 playfile

 Timestamp is 54f828eb (Thu Mar 05 17:59:07 2015)

 Preferred load address is 00400000

 Start         Length     Name                   Class
 0001:00000000 0005aea9H .textbss                DATA
 0002:00000000 000bb146H .text$mn                CODE
 0002:000bb150 00001161H .text$x                 CODE
 0003:00000000 00000104H .CRT$XCA                DATA
 0003:00000104 00000104H .CRT$XCZ                DATA
 0003:00000208 00000104H .CRT$XIA                DATA
 0003:0000030c 0000011cH .CRT$XIC                DATA
 0003:00000428 00000104H .CRT$XIY                DATA
 0003:0000052c 00000104H .CRT$XIZ                DATA
 0003:00000630 00000104H .CRT$XPA                DATA
 0003:00000734 00000109H .CRT$XPX                DATA
 0003:00000840 00000104H .CRT$XPXA               DATA
 0003:00000944 00000104H .CRT$XPZ                DATA
 0003:00000a48 00000104H .CRT$XTA                DATA
 0003:00000b4c 00000104H .CRT$XTZ                DATA
 0003:00000c50 00032d77H .rdata                  DATA
 0003:000339c8 000001c9H .rdata$debug            DATA
 0003:00033b94 00000563H .rdata$r                DATA
 0003:000340f8 00000104H .rtc$IAA                DATA
 0003:000341fc 00000104H .rtc$IZZ                DATA
 0003:00034300 00000104H .rtc$TAA                DATA
 0003:00034404 00000104H .rtc$TZZ                DATA
 0003:00034508 00000e4eH .xdata$x                DATA
 0003:00035356 00000000H .edata                  DATA
 0004:00000000 00007271H .data                   DATA
 0004:00007274 00000293H .data$r                 DATA
 0004:00007520 00003c64H .bss                    DATA
 0005:00000000 000003d8H .idata$5                DATA
 0005:000003d8 00000050H .idata$2                DATA
 0005:00000428 00000014H .idata$3                DATA
 0005:0000043c 000003d8H .idata$4                DATA
 0005:00000814 00000c81H .idata$6                DATA

  Address         Publics by Value              Rva+Base       Lib:Object

 0000:00000000       ___safe_se_handler_count   00000000     <absolute>
 0000:00000000       ___guard_fids_table        00000000     <absolute>
 0000:00000000       __except_list              00000000     <absolute>
 0000:00000000       ___guard_fids_count        00000000     <absolute>
 0000:00000000       ___guard_flags             00000000     <absolute>
 0000:00000000       ___safe_se_handler_table   00000000     <absolute>
 0000:00000000       ___ImageBase               00400000     <linker-defined>
 0001:00000000       __enc$textbss$begin        00401000     <linker-defined>
 0001:0005aea9       __enc$textbss$end          0045bea9     <linker-defined>
 0002:00004ff0       _get_snd_options           00460ff0 f   playfile.obj
 0002:00005350       _dump_pool_usage           00461350 f   playfile.obj
 0002:000053f0       _main                      004613f0 f   playfile.obj
 0002:00005af0       _pjmedia_port_destroy      00461af0 f   pjmedia-i386-win32-vc8-debug:port.obj
 0002:00005b80       _pjmedia_port_get_clock_src 00461b80 f   pjmedia-i386-win32-vc8-debug:port.obj
 0002:00005bd0       _pjmedia_port_get_frame    00461bd0 f   pjmedia-i386-win32-vc8-debug:port.obj
 0002:00005c70       _pjmedia_port_info_init    00461c70 f   pjmedia-i386-win32-vc8-debug:port.obj
 0002:00005d40       _pjmedia_port_info_init2   00461d40 f   pjmedia-i386-win32-vc8-debug:port.obj
 0002:00005db0       _pjmedia_port_put_frame    00461db0 f   pjmedia-i386-win32-vc8-debug:port.obj
 0002:00006290       _pjmedia_endpt_atexit      00462290 f   pjmedia-i386-win32-vc8-debug:endpoint.obj
 0002:00006360       _pjmedia_endpt_create      00462360 f   pjmedia-i386-win32-vc8-debug:endpoint.obj
 0002:00006710       _pjmedia_endpt_create_audio_sdp 00462710 f   pjmedia-i386-win32-vc8-debug:endpoint.obj
 0002:00006f80       _pjmedia_endpt_create_base_sdp 00462f80 f   pjmedia-i386-win32-vc8-debug:endpoint.obj
 0002:00007210       _pjmedia_endpt_create_pool 00463210 f   pjmedia-i386-win32-vc8-debug:endpoint.obj
 0002:00007280       _pjmedia_endpt_create_sdp  00463280 f   pjmedia-i386-win32-vc8-debug:endpoint.obj
 0002:00007410       _pjmedia_endpt_destroy     00463410 f   pjmedia-i386-win32-vc8-debug:endpoint.obj
 0002:00007500       _pjmedia_endpt_dump        00463500 f   pjmedia-i386-win32-vc8-debug:endpoint.obj
 0002:00007890       _pjmedia_endpt_get_codec_mgr 00463890 f   pjmedia-i386-win32-vc8-debug:endpoint.obj
 0002:000078b0       _pjmedia_endpt_get_flag    004638b0 f   pjmedia-i386-win32-vc8-debug:endpoint.obj
 0002:00007940       _pjmedia_endpt_get_ioqueue 00463940 f   pjmedia-i386-win32-vc8-debug:endpoint.obj
 0002:000079a0       _pjmedia_endpt_get_thread  004639a0 f   pjmedia-i386-win32-vc8-debug:endpoint.obj
 0002:00007a50       _pjmedia_endpt_get_thread_count 00463a50 f   pjmedia-i386-win32-vc8-debug:endpoint.obj
 0002:00007ab0       _pjmedia_endpt_set_flag    00463ab0 f   pjmedia-i386-win32-vc8-debug:endpoint.obj
 0002:00007b40       _pjmedia_endpt_stop_threads 00463b40 f   pjmedia-i386-win32-vc8-debug:endpoint.obj
 0002:00007db0       _pjmedia_snd_port_connect  00463db0 f   pjmedia-i386-win32-vc8-debug:sound_port.obj
 0002:00007ec0       _pjmedia_snd_port_create   00463ec0 f   pjmedia-i386-win32-vc8-debug:sound_port.obj
 0002:00007f90       _pjmedia_snd_port_create2  00463f90 f   pjmedia-i386-win32-vc8-debug:sound_port.obj
 0002:000081e0       _pjmedia_snd_port_create_player 004641e0 f   pjmedia-i386-win32-vc8-debug:sound_port.obj
 0002:000082a0       _pjmedia_snd_port_create_rec 004642a0 f   pjmedia-i386-win32-vc8-debug:sound_port.obj
 0002:00008360       _pjmedia_snd_port_destroy  00464360 f   pjmedia-i386-win32-vc8-debug:sound_port.obj
 0002:000083d0       _pjmedia_snd_port_disconnect 004643d0 f   pjmedia-i386-win32-vc8-debug:sound_port.obj
 0002:00008440       _pjmedia_snd_port_get_clock_src 00464440 f   pjmedia-i386-win32-vc8-debug:sound_port.obj
 0002:00008480       _pjmedia_snd_port_get_ec_tail 00464480 f   pjmedia-i386-win32-vc8-debug:sound_port.obj
 0002:000085d0       _pjmedia_snd_port_get_port 004645d0 f   pjmedia-i386-win32-vc8-debug:sound_port.obj
 0002:00008630       _pjmedia_snd_port_get_snd_stream 00464630 f   pjmedia-i386-win32-vc8-debug:sound_port.obj
 0002:00008690       _pjmedia_snd_port_param_default 00464690 f   pjmedia-i386-win32-vc8-debug:sound_port.obj
 0002:000086c0       _pjmedia_snd_port_set_ec   004646c0 f   pjmedia-i386-win32-vc8-debug:sound_port.obj
 0002:00009c50       _pjmedia_wav_player_get_info 00465c50 f   pjmedia-i386-win32-vc8-debug:wav_player.obj
 0002:00009e00       _pjmedia_wav_player_get_len 00465e00 f   pjmedia-i386-win32-vc8-debug:wav_player.obj
 0002:00009ed0       _pjmedia_wav_player_port_create 00465ed0 f   pjmedia-i386-win32-vc8-debug:wav_player.obj
 0002:0000a6d0       _pjmedia_wav_player_port_get_pos 004666d0 f   pjmedia-i386-win32-vc8-debug:wav_player.obj
 0002:0000a7f0       _pjmedia_wav_player_port_set_pos 004667f0 f   pjmedia-i386-win32-vc8-debug:wav_player.obj
 0002:0000a9a0       _pjmedia_wav_player_set_eof_cb 004669a0 f   pjmedia-i386-win32-vc8-debug:wav_player.obj
 0002:0000aaa0       _pjmedia_format_copy       00466aa0 f   pjmedia-i386-win32-vc8-debug:format.obj
 0002:0000aad0       _pjmedia_format_get_audio_format_detail 00466ad0 f   pjmedia-i386-win32-vc8-debug:format.obj
 0002:0000ac30       _pjmedia_codec_info_to_id  00466c30 f   pjmedia-i386-win32-vc8-debug:codec.obj
 0002:0000ad10       _pjmedia_codec_mgr_alloc_codec 00466d10 f   pjmedia-i386-win32-vc8-debug:codec.obj
 0002:0000ae50       _pjmedia_codec_mgr_dealloc_codec 00466e50 f   pjmedia-i386-win32-vc8-debug:codec.obj
 0002:0000aee0       _pjmedia_codec_mgr_destroy 00466ee0 f   pjmedia-i386-win32-vc8-debug:codec.obj
 0002:0000b050       _pjmedia_codec_mgr_enum_codecs 00467050 f   pjmedia-i386-win32-vc8-debug:codec.obj
 0002:0000b1a0       _pjmedia_codec_mgr_find_codecs_by_id 004671a0 f   pjmedia-i386-win32-vc8-debug:codec.obj
 0002:0000b340       _pjmedia_codec_mgr_get_codec_info 00467340 f   pjmedia-i386-win32-vc8-debug:codec.obj
 0002:0000b460       _pjmedia_codec_mgr_get_default_param 00467460 f   pjmedia-i386-win32-vc8-debug:codec.obj
 0002:0000b6e0       _pjmedia_codec_mgr_init    004676e0 f   pjmedia-i386-win32-vc8-debug:codec.obj
 0002:0000b7f0       _pjmedia_codec_mgr_register_factory 004677f0 f   pjmedia-i386-win32-vc8-debug:codec.obj
 0002:0000bab0       _pjmedia_codec_mgr_set_codec_priority 00467ab0 f   pjmedia-i386-win32-vc8-debug:codec.obj
 0002:0000bc00       _pjmedia_codec_mgr_set_default_param 00467c00 f   pjmedia-i386-win32-vc8-debug:codec.obj
 0002:0000beb0       _pjmedia_codec_mgr_unregister_factory 00467eb0 f   pjmedia-i386-win32-vc8-debug:codec.obj
 0002:0000c070       _pjmedia_codec_param_clone 00468070 f   pjmedia-i386-win32-vc8-debug:codec.obj
 0002:0000d0c0       _pjmedia_sdp_attr_add      004690c0 f   pjmedia-i386-win32-vc8-debug:sdp.obj
 0002:0000d1a0       _pjmedia_sdp_attr_clone    004691a0 f   pjmedia-i386-win32-vc8-debug:sdp.obj
 0002:0000d250       _pjmedia_sdp_attr_create   00469250 f   pjmedia-i386-win32-vc8-debug:sdp.obj
 0002:0000d320       _pjmedia_sdp_attr_create_rtcp 00469320 f   pjmedia-i386-win32-vc8-debug:sdp.obj
 0002:0000d4a0       _pjmedia_sdp_attr_find     004694a0 f   pjmedia-i386-win32-vc8-debug:sdp.obj
 0002:0000d570       _pjmedia_sdp_attr_find2    00469570 f   pjmedia-i386-win32-vc8-debug:sdp.obj
 0002:0000d5c0       _pjmedia_sdp_attr_get_fmtp 004695c0 f   pjmedia-i386-win32-vc8-debug:sdp.obj
 0002:0000d700       _pjmedia_sdp_attr_get_rtcp 00469700 f   pjmedia-i386-win32-vc8-debug:sdp.obj
 0002:0000d910       _pjmedia_sdp_attr_get_rtpmap 00469910 f   pjmedia-i386-win32-vc8-debug:sdp.obj
 0002:0000dc80       _pjmedia_sdp_attr_remove   00469c80 f   pjmedia-i386-win32-vc8-debug:sdp.obj
 0002:0000dd90       _pjmedia_sdp_attr_remove_all 00469d90 f   pjmedia-i386-win32-vc8-debug:sdp.obj
 0002:0000deb0       _pjmedia_sdp_attr_to_rtpmap 00469eb0 f   pjmedia-i386-win32-vc8-debug:sdp.obj
 0002:0000dfa0       _pjmedia_sdp_bandw_clone   00469fa0 f   pjmedia-i386-win32-vc8-debug:sdp.obj
 0002:0000e010       _pjmedia_sdp_conn_clone    0046a010 f   pjmedia-i386-win32-vc8-debug:sdp.obj
 0002:0000e0d0       _pjmedia_sdp_media_add_attr 0046a0d0 f   pjmedia-i386-win32-vc8-debug:sdp.obj
 0002:0000e110       _pjmedia_sdp_media_clone   0046a110 f   pjmedia-i386-win32-vc8-debug:sdp.obj
 0002:0000e470       _pjmedia_sdp_media_clone_deactivate 0046a470 f   pjmedia-i386-win32-vc8-debug:sdp.obj
 0002:0000e700       _pjmedia_sdp_media_deactivate 0046a700 f   pjmedia-i386-win32-vc8-debug:sdp.obj
 0002:0000e770       _pjmedia_sdp_media_find_attr 0046a770 f   pjmedia-i386-win32-vc8-debug:sdp.obj
 0002:0000e800       _pjmedia_sdp_media_find_attr2 0046a800 f   pjmedia-i386-win32-vc8-debug:sdp.obj
 0002:0000e890       _pjmedia_sdp_media_remove_all_attr 0046a890 f   pjmedia-i386-win32-vc8-debug:sdp.obj
 0002:0000e8d0       _pjmedia_sdp_media_remove_attr 0046a8d0 f   pjmedia-i386-win32-vc8-debug:sdp.obj
 0002:0000e910       _pjmedia_sdp_parse         0046a910 f   pjmedia-i386-win32-vc8-debug:sdp.obj
 0002:0000ef90       _pjmedia_sdp_print         0046af90 f   pjmedia-i386-win32-vc8-debug:sdp.obj
 0002:0000efc0       _pjmedia_sdp_rtpmap_to_attr 0046afc0 f   pjmedia-i386-win32-vc8-debug:sdp.obj
 0002:0000f240       _pjmedia_sdp_session_add_attr 0046b240 f   pjmedia-i386-win32-vc8-debug:sdp.obj
 0002:0000f280       _pjmedia_sdp_session_clone 0046b280 f   pjmedia-i386-win32-vc8-debug:sdp.obj
 0002:0000f5c0       _pjmedia_sdp_transport_cmp 0046b5c0 f   pjmedia-i386-win32-vc8-debug:sdp.obj
 0002:0000f670       _pjmedia_sdp_validate      0046b670 f   pjmedia-i386-win32-vc8-debug:sdp.obj
 0002:0000f6a0       _pjmedia_sdp_validate2     0046b6a0 f   pjmedia-i386-win32-vc8-debug:sdp.obj
 0002:00010590       _pjmedia_strerror          0046c590 f   pjmedia-i386-win32-vc8-debug:errno.obj
 0002:00010a70       _pjmedia_clock_create      0046ca70 f   pjmedia-i386-win32-vc8-debug:clock_thread.obj
 0002:00010af0       _pjmedia_clock_create2     0046caf0 f   pjmedia-i386-win32-vc8-debug:clock_thread.obj
 0002:00010d40       _pjmedia_clock_destroy     0046cd40 f   pjmedia-i386-win32-vc8-debug:clock_thread.obj
 0002:00010e50       _pjmedia_clock_modify      0046ce50 f   pjmedia-i386-win32-vc8-debug:clock_thread.obj
 0002:00010ed0       _pjmedia_clock_src_get_current_timestamp 0046ced0 f   pjmedia-i386-win32-vc8-debug:clock_thread.obj
 0002:00010fb0       _pjmedia_clock_src_get_time_msec 0046cfb0 f   pjmedia-i386-win32-vc8-debug:clock_thread.obj
 0002:00011050       _pjmedia_clock_src_init    0046d050 f   pjmedia-i386-win32-vc8-debug:clock_thread.obj
 0002:000110f0       _pjmedia_clock_src_update  0046d0f0 f   pjmedia-i386-win32-vc8-debug:clock_thread.obj
 0002:00011180       _pjmedia_clock_start       0046d180 f   pjmedia-i386-win32-vc8-debug:clock_thread.obj
 0002:000112b0       _pjmedia_clock_stop        0046d2b0 f   pjmedia-i386-win32-vc8-debug:clock_thread.obj
 0002:00011380       _pjmedia_clock_wait        0046d380 f   pjmedia-i386-win32-vc8-debug:clock_thread.obj
 0002:000116d0       _pjmedia_echo_cancel       0046d6d0 f   pjmedia-i386-win32-vc8-debug:echo_common.obj
 0002:00011720       _pjmedia_echo_capture      0046d720 f   pjmedia-i386-win32-vc8-debug:echo_common.obj
 0002:00011880       _pjmedia_echo_create       0046d880 f   pjmedia-i386-win32-vc8-debug:echo_common.obj
 0002:000118d0       _pjmedia_echo_create2      0046d8d0 f   pjmedia-i386-win32-vc8-debug:echo_common.obj
 0002:00011c90       _pjmedia_echo_destroy      0046dc90 f   pjmedia-i386-win32-vc8-debug:echo_common.obj
 0002:00011d00       _pjmedia_echo_playback     0046dd00 f   pjmedia-i386-win32-vc8-debug:echo_common.obj
 0002:00011e60       _pjmedia_echo_reset        0046de60 f   pjmedia-i386-win32-vc8-debug:echo_common.obj
 0002:00011f40       _pjmedia_wave_hdr_file_to_host 0046df40 f   pjmedia-i386-win32-vc8-debug:wave.obj
 0002:00011f70       _pjmedia_wave_hdr_host_to_file 0046df70 f   pjmedia-i386-win32-vc8-debug:wave.obj
 0002:00013f70       _get_libsrtp_errstr        0046ff70 f   pjmedia-i386-win32-vc8-debug:transport_srtp.obj
 0002:000144e0       _pjmedia_srtp_init_lib     004704e0 f   pjmedia-i386-win32-vc8-debug:transport_srtp.obj
 0002:000145b0       _pjmedia_srtp_setting_default 004705b0 f   pjmedia-i386-win32-vc8-debug:transport_srtp.obj
 0002:00014960       _pjmedia_transport_srtp_create 00470960 f   pjmedia-i386-win32-vc8-debug:transport_srtp.obj
 0002:00014d40       _pjmedia_transport_srtp_decrypt_pkt 00470d40 f   pjmedia-i386-win32-vc8-debug:transport_srtp.obj
 0002:00014f90       _pjmedia_transport_srtp_get_member 00470f90 f   pjmedia-i386-win32-vc8-debug:transport_srtp.obj
 0002:00015000       _pjmedia_transport_srtp_start 00471000 f   pjmedia-i386-win32-vc8-debug:transport_srtp.obj
 0002:00015aa0       _pjmedia_transport_srtp_stop 00471aa0 f   pjmedia-i386-win32-vc8-debug:transport_srtp.obj
 0002:000162b0       _echo_supp_cancel_echo     004722b0 f   pjmedia-i386-win32-vc8-debug:echo_suppress.obj
 0002:000168d0       _echo_supp_create          004728d0 f   pjmedia-i386-win32-vc8-debug:echo_suppress.obj
 0002:00016b30       _echo_supp_destroy         00472b30 f   pjmedia-i386-win32-vc8-debug:echo_suppress.obj
 0002:00016b50       _echo_supp_reset           00472b50 f   pjmedia-i386-win32-vc8-debug:echo_suppress.obj
 0002:00016d20       _echo_supp_soft_reset      00472d20 f   pjmedia-i386-win32-vc8-debug:echo_suppress.obj
 0002:00017c00       _speex_aec_cancel_echo     00473c00 f   pjmedia-i386-win32-vc8-debug:echo_speex.obj
 0002:00017d00       _speex_aec_capture         00473d00 f   pjmedia-i386-win32-vc8-debug:echo_speex.obj
 0002:00017dd0       _speex_aec_create          00473dd0 f   pjmedia-i386-win32-vc8-debug:echo_speex.obj
 0002:00017ff0       _speex_aec_destroy         00473ff0 f   pjmedia-i386-win32-vc8-debug:echo_speex.obj
 0002:000180c0       _speex_aec_playback        004740c0 f   pjmedia-i386-win32-vc8-debug:echo_speex.obj
 0002:00018150       _speex_aec_reset           00474150 f   pjmedia-i386-win32-vc8-debug:echo_speex.obj
 0002:00018780       _pjmedia_delay_buf_create  00474780 f   pjmedia-i386-win32-vc8-debug:delaybuf.obj
 0002:00018a00       _pjmedia_delay_buf_destroy 00474a00 f   pjmedia-i386-win32-vc8-debug:delaybuf.obj
 0002:00018ae0       _pjmedia_delay_buf_get     00474ae0 f   pjmedia-i386-win32-vc8-debug:delaybuf.obj
 0002:00018d70       _pjmedia_delay_buf_put     00474d70 f   pjmedia-i386-win32-vc8-debug:delaybuf.obj
 0002:00018fc0       _pjmedia_delay_buf_reset   00474fc0 f   pjmedia-i386-win32-vc8-debug:delaybuf.obj
 0002:00019450       _pjmedia_calc_avg_signal   00475450 f   pjmedia-i386-win32-vc8-debug:silencedet.obj
 0002:000194f0       _pjmedia_silence_det_apply 004754f0 f   pjmedia-i386-win32-vc8-debug:silencedet.obj
 0002:000198c0       _pjmedia_silence_det_create 004758c0 f   pjmedia-i386-win32-vc8-debug:silencedet.obj
 0002:000199c0       _pjmedia_silence_det_detect 004759c0 f   pjmedia-i386-win32-vc8-debug:silencedet.obj
 0002:00019a20       _pjmedia_silence_det_disable 00475a20 f   pjmedia-i386-win32-vc8-debug:silencedet.obj
 0002:00019a90       _pjmedia_silence_det_set_adaptive 00475a90 f   pjmedia-i386-win32-vc8-debug:silencedet.obj
 0002:00019b10       _pjmedia_silence_det_set_fixed 00475b10 f   pjmedia-i386-win32-vc8-debug:silencedet.obj
 0002:00019b90       _pjmedia_silence_det_set_name 00475b90 f   pjmedia-i386-win32-vc8-debug:silencedet.obj
 0002:00019c30       _pjmedia_silence_det_set_params 00475c30 f   pjmedia-i386-win32-vc8-debug:silencedet.obj
 0002:0001af50       _pjmedia_wsola_create      00476f50 f   pjmedia-i386-win32-vc8-debug:wsola.obj
 0002:0001b390       _pjmedia_wsola_destroy     00477390 f   pjmedia-i386-win32-vc8-debug:wsola.obj
 0002:0001b3b0       _pjmedia_wsola_discard     004773b0 f   pjmedia-i386-win32-vc8-debug:wsola.obj
 0002:0001b8d0       _pjmedia_wsola_generate    004778d0 f   pjmedia-i386-win32-vc8-debug:wsola.obj
 0002:0001ba00       _pjmedia_wsola_reset       00477a00 f   pjmedia-i386-win32-vc8-debug:wsola.obj
 0002:0001bad0       _pjmedia_wsola_save        00477ad0 f   pjmedia-i386-win32-vc8-debug:wsola.obj
 0002:0001c030       _pjmedia_wsola_set_max_expand 00478030 f   pjmedia-i386-win32-vc8-debug:wsola.obj
 0002:0001d2a0       _pj_getopt                 004792a0 f   pjlib-util-i386-win32-vc8-debug:getopt.obj
 0002:0001d2e0       _pj_getopt_long            004792e0 f   pjlib-util-i386-win32-vc8-debug:getopt.obj
 0002:0001d350       _pj_cis_add_alpha          00479350 f   pjlib-util-i386-win32-vc8-debug:scanner.obj
 0002:0001d390       _pj_cis_add_cis            00479390 f   pjlib-util-i386-win32-vc8-debug:scanner.obj
 0002:0001d420       _pj_cis_add_num            00479420 f   pjlib-util-i386-win32-vc8-debug:scanner.obj
 0002:0001d450       _pj_cis_add_range          00479450 f   pjlib-util-i386-win32-vc8-debug:scanner.obj
 0002:0001d4d0       _pj_cis_add_str            004794d0 f   pjlib-util-i386-win32-vc8-debug:scanner.obj
 0002:0001d540       _pj_cis_buf_init           00479540 f   pjlib-util-i386-win32-vc8-debug:scanner.obj
 0002:0001d580       _pj_cis_del_range          00479580 f   pjlib-util-i386-win32-vc8-debug:scanner.obj
 0002:0001d5e0       _pj_cis_del_str            004795e0 f   pjlib-util-i386-win32-vc8-debug:scanner.obj
 0002:0001d650       _pj_cis_dup                00479650 f   pjlib-util-i386-win32-vc8-debug:scanner.obj
 0002:0001d740       _pj_cis_init               00479740 f   pjlib-util-i386-win32-vc8-debug:scanner.obj
 0002:0001d7e0       _pj_cis_invert             004797e0 f   pjlib-util-i386-win32-vc8-debug:scanner.obj
 0002:0001d9a0       _pj_scan_advance_n         004799a0 f   pjlib-util-i386-win32-vc8-debug:scanner.obj
 0002:0001da20       _pj_scan_fini              00479a20 f   pjlib-util-i386-win32-vc8-debug:scanner.obj
 0002:0001da50       _pj_scan_get               00479a50 f   pjlib-util-i386-win32-vc8-debug:scanner.obj
 0002:0001db50       _pj_scan_get_char          00479b50 f   pjlib-util-i386-win32-vc8-debug:scanner.obj
 0002:0001dbd0       _pj_scan_get_n             00479bd0 f   pjlib-util-i386-win32-vc8-debug:scanner.obj
 0002:0001dc70       _pj_scan_get_newline       00479c70 f   pjlib-util-i386-win32-vc8-debug:scanner.obj
 0002:0001dd30       _pj_scan_get_quote         00479d30 f   pjlib-util-i386-win32-vc8-debug:scanner.obj
 0002:0001dd80       _pj_scan_get_quotes        00479d80 f   pjlib-util-i386-win32-vc8-debug:scanner.obj
 0002:0001dfa0       _pj_scan_get_unescape      00479fa0 f   pjlib-util-i386-win32-vc8-debug:scanner.obj
 0002:0001e250       _pj_scan_get_until         0047a250 f   pjlib-util-i386-win32-vc8-debug:scanner.obj
 0002:0001e320       _pj_scan_get_until_ch      0047a320 f   pjlib-util-i386-win32-vc8-debug:scanner.obj
 0002:0001e3e0       _pj_scan_get_until_chr     0047a3e0 f   pjlib-util-i386-win32-vc8-debug:scanner.obj
 0002:0001e4d0       _pj_scan_init              0047a4d0 f   pjlib-util-i386-win32-vc8-debug:scanner.obj
 0002:0001e570       _pj_scan_peek              0047a570 f   pjlib-util-i386-win32-vc8-debug:scanner.obj
 0002:0001e610       _pj_scan_peek_n            0047a610 f   pjlib-util-i386-win32-vc8-debug:scanner.obj
 0002:0001e680       _pj_scan_peek_until        0047a680 f   pjlib-util-i386-win32-vc8-debug:scanner.obj
 0002:0001e720       _pj_scan_restore_state     0047a720 f   pjlib-util-i386-win32-vc8-debug:scanner.obj
 0002:0001e760       _pj_scan_save_state        0047a760 f   pjlib-util-i386-win32-vc8-debug:scanner.obj
 0002:0001e7a0       _pj_scan_skip_line         0047a7a0 f   pjlib-util-i386-win32-vc8-debug:scanner.obj
 0002:0001e820       _pj_scan_skip_whitespace   0047a820 f   pjlib-util-i386-win32-vc8-debug:scanner.obj
 0002:0001ea80       _pj_scan_strcmp            0047aa80 f   pjlib-util-i386-win32-vc8-debug:scanner.obj
 0002:0001eae0       _pj_scan_stricmp           0047aae0 f   pjlib-util-i386-win32-vc8-debug:scanner.obj
 0002:0001eb40       _pj_scan_stricmp_alnum     0047ab40 f   pjlib-util-i386-win32-vc8-debug:scanner.obj
 0002:0001ee30       _pj_base64_decode          0047ae30 f   pjlib-util-i386-win32-vc8-debug:base64.obj
 0002:0001f1a0       _pj_base64_encode          0047b1a0 f   pjlib-util-i386-win32-vc8-debug:base64.obj
 0002:0001f530       _pj_atexit                 0047b530 f   pjlib-i386-win32-vc8-debug:os_core_win32.obj
 0002:0001f580       _pj_atomic_add             0047b580 f   pjlib-i386-win32-vc8-debug:os_core_win32.obj
 0002:0001f5a0       _pj_atomic_add_and_get     0047b5a0 f   pjlib-i386-win32-vc8-debug:os_core_win32.obj
 0002:0001f5d0       _pj_atomic_create          0047b5d0 f   pjlib-i386-win32-vc8-debug:os_core_win32.obj
 0002:0001f620       _pj_atomic_dec             0047b620 f   pjlib-i386-win32-vc8-debug:os_core_win32.obj
 0002:0001f650       _pj_atomic_dec_and_get     0047b650 f   pjlib-i386-win32-vc8-debug:os_core_win32.obj
 0002:0001f690       _pj_atomic_destroy         0047b690 f   pjlib-i386-win32-vc8-debug:os_core_win32.obj
 0002:0001f6f0       _pj_atomic_get             0047b6f0 f   pjlib-i386-win32-vc8-debug:os_core_win32.obj
 0002:0001f760       _pj_atomic_inc             0047b760 f   pjlib-i386-win32-vc8-debug:os_core_win32.obj
 0002:0001f790       _pj_atomic_inc_and_get     0047b790 f   pjlib-i386-win32-vc8-debug:os_core_win32.obj
 0002:0001f7e0       _pj_atomic_set             0047b7e0 f   pjlib-i386-win32-vc8-debug:os_core_win32.obj
 0002:0001f8d0       _pj_enter_critical_section 0047b8d0 f   pjlib-i386-win32-vc8-debug:os_core_win32.obj
 0002:0001f900       _pj_event_create           0047b900 f   pjlib-i386-win32-vc8-debug:os_core_win32.obj
 0002:0001faf0       _pj_event_destroy          0047baf0 f   pjlib-i386-win32-vc8-debug:os_core_win32.obj
 0002:0001fbe0       _pj_event_pulse            0047bbe0 f   pjlib-i386-win32-vc8-debug:os_core_win32.obj
 0002:0001fcd0       _pj_event_reset            0047bcd0 f   pjlib-i386-win32-vc8-debug:os_core_win32.obj
 0002:0001fdc0       _pj_event_set              0047bdc0 f   pjlib-i386-win32-vc8-debug:os_core_win32.obj
 0002:0001feb0       _pj_event_trywait          0047beb0 f   pjlib-i386-win32-vc8-debug:os_core_win32.obj
 0002:0001ff20       _pj_event_wait             0047bf20 f   pjlib-i386-win32-vc8-debug:os_core_win32.obj
 0002:000200c0       _pj_getpid                 0047c0c0 f   pjlib-i386-win32-vc8-debug:os_core_win32.obj
 0002:00020100       _pj_init                   0047c100 f   pjlib-i386-win32-vc8-debug:os_core_win32.obj
 0002:00020360       _pj_leave_critical_section 0047c360 f   pjlib-i386-win32-vc8-debug:os_core_win32.obj
 0002:00020390       _pj_mutex_create           0047c390 f   pjlib-i386-win32-vc8-debug:os_core_win32.obj
 0002:00020450       _pj_mutex_create_recursive 0047c450 f   pjlib-i386-win32-vc8-debug:os_core_win32.obj
 0002:00020480       _pj_mutex_create_simple    0047c480 f   pjlib-i386-win32-vc8-debug:os_core_win32.obj
 0002:000204b0       _pj_mutex_destroy          0047c4b0 f   pjlib-i386-win32-vc8-debug:os_core_win32.obj
 0002:00020540       _pj_mutex_is_locked        0047c540 f   pjlib-i386-win32-vc8-debug:os_core_win32.obj
 0002:00020580       _pj_mutex_lock             0047c580 f   pjlib-i386-win32-vc8-debug:os_core_win32.obj
 0002:00020650       _pj_mutex_trylock          0047c650 f   pjlib-i386-win32-vc8-debug:os_core_win32.obj
 0002:00020740       _pj_mutex_unlock           0047c740 f   pjlib-i386-win32-vc8-debug:os_core_win32.obj
 0002:00020840       _pj_run_app                0047c840 f   pjlib-i386-win32-vc8-debug:os_core_win32.obj
 0002:00020870       _pj_rwmutex_create         0047c870 f   pjlib-i386-win32-vc8-debug:os_core_win32.obj
 0002:00020980       _pj_rwmutex_destroy        0047c980 f   pjlib-i386-win32-vc8-debug:os_core_win32.obj
 0002:00020a00       _pj_rwmutex_lock_read      0047ca00 f   pjlib-i386-win32-vc8-debug:os_core_win32.obj
 0002:00020b30       _pj_rwmutex_lock_write     0047cb30 f   pjlib-i386-win32-vc8-debug:os_core_win32.obj
 0002:00020ba0       _pj_rwmutex_unlock_read    0047cba0 f   pjlib-i386-win32-vc8-debug:os_core_win32.obj
 0002:00020cc0       _pj_rwmutex_unlock_write   0047ccc0 f   pjlib-i386-win32-vc8-debug:os_core_win32.obj
 0002:00020d60       _pj_sem_create             0047cd60 f   pjlib-i386-win32-vc8-debug:os_core_win32.obj
 0002:00020f00       _pj_sem_destroy            0047cf00 f   pjlib-i386-win32-vc8-debug:os_core_win32.obj
 0002:00020ff0       _pj_sem_post               0047cff0 f   pjlib-i386-win32-vc8-debug:os_core_win32.obj
 0002:000210e0       _pj_sem_trywait            0047d0e0 f   pjlib-i386-win32-vc8-debug:os_core_win32.obj
 0002:00021160       _pj_sem_wait               0047d160 f   pjlib-i386-win32-vc8-debug:os_core_win32.obj
 0002:00021310       _pj_shutdown               0047d310 f   pjlib-i386-win32-vc8-debug:os_core_win32.obj
 0002:000214a0       _pj_term_get_color         0047d4a0 f   pjlib-i386-win32-vc8-debug:os_core_win32.obj
 0002:00021510       _pj_term_set_color         0047d510 f   pjlib-i386-win32-vc8-debug:os_core_win32.obj
 0002:000215e0       _pj_thread_check_stack     0047d5e0 f   pjlib-i386-win32-vc8-debug:os_core_win32.obj
 0002:000216e0       _pj_thread_create          0047d6e0 f   pjlib-i386-win32-vc8-debug:os_core_win32.obj
 0002:00021920       _pj_thread_destroy         0047d920 f   pjlib-i386-win32-vc8-debug:os_core_win32.obj
 0002:00021a00       _pj_thread_get_name        0047da00 f   pjlib-i386-win32-vc8-debug:os_core_win32.obj
 0002:00021a80       _pj_thread_get_os_handle   0047da80 f   pjlib-i386-win32-vc8-debug:os_core_win32.obj
 0002:00021ae0       _pj_thread_get_prio        0047dae0 f   pjlib-i386-win32-vc8-debug:os_core_win32.obj
 0002:00021b10       _pj_thread_get_prio_max    0047db10 f   pjlib-i386-win32-vc8-debug:os_core_win32.obj
 0002:00021b30       _pj_thread_get_prio_min    0047db30 f   pjlib-i386-win32-vc8-debug:os_core_win32.obj
 0002:00021b50       _pj_thread_get_stack_info  0047db50 f   pjlib-i386-win32-vc8-debug:os_core_win32.obj
 0002:00021bb0       _pj_thread_get_stack_max_usage 0047dbb0 f   pjlib-i386-win32-vc8-debug:os_core_win32.obj
 0002:00021bd0       _pj_thread_init            0047dbd0 f   pjlib-i386-win32-vc8-debug:os_core_win32.obj
 0002:00021c30       _pj_thread_is_registered   0047dc30 f   pjlib-i386-win32-vc8-debug:os_core_win32.obj
 0002:00021c80       _pj_thread_join            0047dc80 f   pjlib-i386-win32-vc8-debug:os_core_win32.obj
 0002:00021db0       _pj_thread_local_alloc     0047ddb0 f   pjlib-i386-win32-vc8-debug:os_core_win32.obj
 0002:00021e70       _pj_thread_local_free      0047de70 f   pjlib-i386-win32-vc8-debug:os_core_win32.obj
 0002:00021eb0       _pj_thread_local_get       0047deb0 f   pjlib-i386-win32-vc8-debug:os_core_win32.obj
 0002:00021ed0       _pj_thread_local_set       0047ded0 f   pjlib-i386-win32-vc8-debug:os_core_win32.obj
 0002:00021f60       _pj_thread_register        0047df60 f   pjlib-i386-win32-vc8-debug:os_core_win32.obj
 0002:000220d0       _pj_thread_resume          0047e0d0 f   pjlib-i386-win32-vc8-debug:os_core_win32.obj
 0002:000221b0       _pj_thread_set_prio        0047e1b0 f   pjlib-i386-win32-vc8-debug:os_core_win32.obj
 0002:000222c0       _pj_thread_sleep           0047e2c0 f   pjlib-i386-win32-vc8-debug:os_core_win32.obj
 0002:00022300       _pj_thread_this            0047e300 f   pjlib-i386-win32-vc8-debug:os_core_win32.obj
 0002:000224e0       _pj_errno_clear_handlers   0047e4e0 f   pjlib-i386-win32-vc8-debug:errno.obj
 0002:00022550       _pj_perror                 0047e550 f   pjlib-i386-win32-vc8-debug:errno.obj
 0002:000225a0       _pj_perror_1               0047e5a0 f   pjlib-i386-win32-vc8-debug:errno.obj
 0002:000225f0       _pj_perror_2               0047e5f0 f   pjlib-i386-win32-vc8-debug:errno.obj
 0002:00022640       _pj_perror_3               0047e640 f   pjlib-i386-win32-vc8-debug:errno.obj
 0002:00022690       _pj_perror_4               0047e690 f   pjlib-i386-win32-vc8-debug:errno.obj
 0002:000226e0       _pj_perror_5               0047e6e0 f   pjlib-i386-win32-vc8-debug:errno.obj
 0002:00022800       _pj_register_strerror      0047e800 f   pjlib-i386-win32-vc8-debug:errno.obj
 0002:00022a30       _pj_strerror               0047ea30 f   pjlib-i386-win32-vc8-debug:errno.obj
 0002:00022d20       _pj_NO_MEMORY_EXCEPTION    0047ed20 f   pjlib-i386-win32-vc8-debug:pool.obj
 0002:00022da0       _pj_pool_alloc             0047eda0 f   pjlib-i386-win32-vc8-debug:pool.obj
 0002:00022e00       _pj_pool_alloc_from_block  0047ee00 f   pjlib-i386-win32-vc8-debug:pool.obj
 0002:00022e70       _pj_pool_allocate_find     0047ee70 f   pjlib-i386-win32-vc8-debug:pool.obj
 0002:00022ff0       _pj_pool_calloc            0047eff0 f   pjlib-i386-win32-vc8-debug:pool.obj
 0002:00023050       _pj_pool_create            0047f050 f   pjlib-i386-win32-vc8-debug:pool.obj
 0002:000231b0       _pj_pool_create_int        0047f1b0 f   pjlib-i386-win32-vc8-debug:pool.obj
 0002:00023330       _pj_pool_destroy_int       0047f330 f   pjlib-i386-win32-vc8-debug:pool.obj
 0002:000233b0       _pj_pool_get_capacity      0047f3b0 f   pjlib-i386-win32-vc8-debug:pool.obj
 0002:000233d0       _pj_pool_get_used_size     0047f3d0 f   pjlib-i386-win32-vc8-debug:pool.obj
 0002:00023440       _pj_pool_getobjname        0047f440 f   pjlib-i386-win32-vc8-debug:pool.obj
 0002:00023460       _pj_pool_init_int          0047f460 f   pjlib-i386-win32-vc8-debug:pool.obj
 0002:00023530       _pj_pool_release           0047f530 f   pjlib-i386-win32-vc8-debug:pool.obj
 0002:00023580       _pj_pool_reset             0047f580 f   pjlib-i386-win32-vc8-debug:pool.obj
 0002:00023dd0       _pj_caching_pool_destroy   0047fdd0 f   pjlib-i386-win32-vc8-debug:pool_caching.obj
 0002:00023f40       _pj_caching_pool_init      0047ff40 f   pjlib-i386-win32-vc8-debug:pool_caching.obj
 0002:000242d0       _pj_log                    004802d0 f   pjlib-i386-win32-vc8-debug:log.obj
 0002:00024b80       _pj_log_1                  00480b80 f   pjlib-i386-win32-vc8-debug:log.obj
 0002:00024bc0       _pj_log_2                  00480bc0 f   pjlib-i386-win32-vc8-debug:log.obj
 0002:00024c00       _pj_log_3                  00480c00 f   pjlib-i386-win32-vc8-debug:log.obj
 0002:00024c40       _pj_log_4                  00480c40 f   pjlib-i386-win32-vc8-debug:log.obj
 0002:00024c80       _pj_log_5                  00480c80 f   pjlib-i386-win32-vc8-debug:log.obj
 0002:00024cc0       _pj_log_add_indent         00480cc0 f   pjlib-i386-win32-vc8-debug:log.obj
 0002:00024cf0       _pj_log_get_color          00480cf0 f   pjlib-i386-win32-vc8-debug:log.obj
 0002:00024d90       _pj_log_get_decor          00480d90 f   pjlib-i386-win32-vc8-debug:log.obj
 0002:00024db0       _pj_log_get_level          00480db0 f   pjlib-i386-win32-vc8-debug:log.obj
 0002:00024dd0       _pj_log_get_log_func       00480dd0 f   pjlib-i386-win32-vc8-debug:log.obj
 0002:00024df0       _pj_log_init               00480df0 f   pjlib-i386-win32-vc8-debug:log.obj
 0002:00024e90       _pj_log_pop_indent         00480e90 f   pjlib-i386-win32-vc8-debug:log.obj
 0002:00024eb0       _pj_log_push_indent        00480eb0 f   pjlib-i386-win32-vc8-debug:log.obj
 0002:00024ed0       _pj_log_set_color          00480ed0 f   pjlib-i386-win32-vc8-debug:log.obj
 0002:00025000       _pj_log_set_decor          00481000 f   pjlib-i386-win32-vc8-debug:log.obj
 0002:00025020       _pj_log_set_level          00481020 f   pjlib-i386-win32-vc8-debug:log.obj
 0002:00025040       _pj_log_set_log_func       00481040 f   pjlib-i386-win32-vc8-debug:log.obj
 0002:000252a0       _pj_pool_factory_get_default_policy 004812a0 f   pjlib-i386-win32-vc8-debug:pool_policy_malloc.obj
 0002:000252f0       _pj_gethostname            004812f0 f   pjlib-i386-win32-vc8-debug:sock_bsd.obj
 0002:000253a0       _pj_htonl                  004813a0 f   pjlib-i386-win32-vc8-debug:sock_bsd.obj
 0002:000253c0       _pj_htons                  004813c0 f   pjlib-i386-win32-vc8-debug:sock_bsd.obj
 0002:000253f0       _pj_inet_aton              004813f0 f   pjlib-i386-win32-vc8-debug:sock_bsd.obj
 0002:00025520       _pj_inet_ntoa              00481520 f   pjlib-i386-win32-vc8-debug:sock_bsd.obj
 0002:00025540       _pj_inet_ntop              00481540 f   pjlib-i386-win32-vc8-debug:sock_bsd.obj
 0002:00025780       _pj_inet_pton              00481780 f   pjlib-i386-win32-vc8-debug:sock_bsd.obj
 0002:00025a30       _pj_ntohl                  00481a30 f   pjlib-i386-win32-vc8-debug:sock_bsd.obj
 0002:00025a50       _pj_ntohs                  00481a50 f   pjlib-i386-win32-vc8-debug:sock_bsd.obj
 0002:00025a80       _pj_sock_accept            00481a80 f   pjlib-i386-win32-vc8-debug:sock_bsd.obj
 0002:00025b70       _pj_sock_bind              00481b70 f   pjlib-i386-win32-vc8-debug:sock_bsd.obj
 0002:00025c60       _pj_sock_bind_in           00481c60 f   pjlib-i386-win32-vc8-debug:sock_bsd.obj
 0002:00025d10       _pj_sock_close             00481d10 f   pjlib-i386-win32-vc8-debug:sock_bsd.obj
 0002:00025db0       _pj_sock_connect           00481db0 f   pjlib-i386-win32-vc8-debug:sock_bsd.obj
 0002:00025e50       _pj_sock_getpeername       00481e50 f   pjlib-i386-win32-vc8-debug:sock_bsd.obj
 0002:00025ef0       _pj_sock_getsockname       00481ef0 f   pjlib-i386-win32-vc8-debug:sock_bsd.obj
 0002:00025f90       _pj_sock_getsockopt        00481f90 f   pjlib-i386-win32-vc8-debug:sock_bsd.obj
 0002:00026090       _pj_sock_listen            00482090 f   pjlib-i386-win32-vc8-debug:sock_bsd.obj
 0002:00026130       _pj_sock_recv              00482130 f   pjlib-i386-win32-vc8-debug:sock_bsd.obj
 0002:00026230       _pj_sock_recvfrom          00482230 f   pjlib-i386-win32-vc8-debug:sock_bsd.obj
 0002:00026340       _pj_sock_send              00482340 f   pjlib-i386-win32-vc8-debug:sock_bsd.obj
 0002:00026430       _pj_sock_sendto            00482430 f   pjlib-i386-win32-vc8-debug:sock_bsd.obj
 0002:00026530       _pj_sock_setsockopt        00482530 f   pjlib-i386-win32-vc8-debug:sock_bsd.obj
 0002:00026610       _pj_sock_setsockopt_params 00482610 f   pjlib-i386-win32-vc8-debug:sock_bsd.obj
 0002:00026770       _pj_sock_shutdown          00482770 f   pjlib-i386-win32-vc8-debug:sock_bsd.obj
 0002:00026810       _pj_sock_socket            00482810 f   pjlib-i386-win32-vc8-debug:sock_bsd.obj
 0002:000269b0       _pj_getdefaultipinterface  004829b0 f   pjlib-i386-win32-vc8-debug:sock_common.obj
 0002:00026a30       _pj_gethostaddr            00482a30 f   pjlib-i386-win32-vc8-debug:sock_common.obj
 0002:00026a80       _pj_gethostip              00482a80 f   pjlib-i386-win32-vc8-debug:sock_common.obj
 0002:00027750       _pj_getipinterface         00483750 f   pjlib-i386-win32-vc8-debug:sock_common.obj
 0002:000279a0       _pj_inet_addr              004839a0 f   pjlib-i386-win32-vc8-debug:sock_common.obj
 0002:000279d0       _pj_inet_addr2             004839d0 f   pjlib-i386-win32-vc8-debug:sock_common.obj
 0002:00027a10       _pj_inet_ntop2             00483a10 f   pjlib-i386-win32-vc8-debug:sock_common.obj
 0002:00027b00       _pj_sock_bind_random       00483b00 f   pjlib-i386-win32-vc8-debug:sock_common.obj
 0002:00027c80       _pj_sock_setsockopt_sobuf  00483c80 f   pjlib-i386-win32-vc8-debug:sock_common.obj
 0002:00027eb0       _pj_sockaddr_cmp           00483eb0 f   pjlib-i386-win32-vc8-debug:sock_common.obj
 0002:00027fc0       _pj_sockaddr_copy_addr     00483fc0 f   pjlib-i386-win32-vc8-debug:sock_common.obj
 0002:00028020       _pj_sockaddr_cp            00484020 f   pjlib-i386-win32-vc8-debug:sock_common.obj
 0002:00028060       _pj_sockaddr_get_addr      00484060 f   pjlib-i386-win32-vc8-debug:sock_common.obj
 0002:00028130       _pj_sockaddr_get_addr_len  00484130 f   pjlib-i386-win32-vc8-debug:sock_common.obj
 0002:00028200       _pj_sockaddr_get_len       00484200 f   pjlib-i386-win32-vc8-debug:sock_common.obj
 0002:000282d0       _pj_sockaddr_get_port      004842d0 f   pjlib-i386-win32-vc8-debug:sock_common.obj
 0002:000283c0       _pj_sockaddr_has_addr      004843c0 f   pjlib-i386-win32-vc8-debug:sock_common.obj
 0002:000284b0       _pj_sockaddr_in_get_addr   004844b0 f   pjlib-i386-win32-vc8-debug:sock_common.obj
 0002:000284e0       _pj_sockaddr_in_get_port   004844e0 f   pjlib-i386-win32-vc8-debug:sock_common.obj
 0002:00028510       _pj_sockaddr_in_init       00484510 f   pjlib-i386-win32-vc8-debug:sock_common.obj
 0002:000285c0       _pj_sockaddr_in_set_addr   004845c0 f   pjlib-i386-win32-vc8-debug:sock_common.obj
 0002:000285f0       _pj_sockaddr_in_set_port   004845f0 f   pjlib-i386-win32-vc8-debug:sock_common.obj
 0002:00028620       _pj_sockaddr_in_set_str_addr 00484620 f   pjlib-i386-win32-vc8-debug:sock_common.obj
 0002:00028780       _pj_sockaddr_init          00484780 f   pjlib-i386-win32-vc8-debug:sock_common.obj
 0002:00028880       _pj_sockaddr_parse         00484880 f   pjlib-i386-win32-vc8-debug:sock_common.obj
 0002:00028a20       _pj_sockaddr_parse2        00484a20 f   pjlib-i386-win32-vc8-debug:sock_common.obj
 0002:00028ec0       _pj_sockaddr_print         00484ec0 f   pjlib-i386-win32-vc8-debug:sock_common.obj
 0002:00029020       _pj_sockaddr_set_port      00485020 f   pjlib-i386-win32-vc8-debug:sock_common.obj
 0002:00029100       _pj_sockaddr_set_str_addr  00485100 f   pjlib-i386-win32-vc8-debug:sock_common.obj
 0002:000292b0       _pj_create_random_string   004852b0 f   pjlib-i386-win32-vc8-debug:string.obj
 0002:00029580       _pj_str                    00485580 f   pjlib-i386-win32-vc8-debug:string.obj
 0002:000295d0       _pj_strassign              004855d0 f   pjlib-i386-win32-vc8-debug:string.obj
 0002:00029610       _pj_strcat                 00485610 f   pjlib-i386-win32-vc8-debug:string.obj
 0002:00029670       _pj_strcat2                00485670 f   pjlib-i386-win32-vc8-debug:string.obj
 0002:000296f0       _pj_strcmp                 004856f0 f   pjlib-i386-win32-vc8-debug:string.obj
 0002:00029810       _pj_strcmp2                00485810 f   pjlib-i386-win32-vc8-debug:string.obj
 0002:00029870       _pj_strcpy                 00485870 f   pjlib-i386-win32-vc8-debug:string.obj
 0002:000298d0       _pj_strcpy2                004858d0 f   pjlib-i386-win32-vc8-debug:string.obj
 0002:00029950       _pj_strdup                 00485950 f   pjlib-i386-win32-vc8-debug:string.obj
 0002:000299e0       _pj_strdup2                004859e0 f   pjlib-i386-win32-vc8-debug:string.obj
 0002:00029a80       _pj_strdup2_with_null      00485a80 f   pjlib-i386-win32-vc8-debug:string.obj
 0002:00029b30       _pj_strdup3                00485b30 f   pjlib-i386-win32-vc8-debug:string.obj
 0002:00029b70       _pj_strdup_with_null       00485b70 f   pjlib-i386-win32-vc8-debug:string.obj
 0002:00029c00       _pj_stricmp                00485c00 f   pjlib-i386-win32-vc8-debug:string.obj
 0002:00029d20       _pj_stricmp2               00485d20 f   pjlib-i386-win32-vc8-debug:string.obj
 0002:00029d80       _pj_stristr                00485d80 f   pjlib-i386-win32-vc8-debug:string.obj
 0002:00029e20       _pj_strltrim               00485e20 f   pjlib-i386-win32-vc8-debug:string.obj
 0002:00029eb0       _pj_strncmp                00485eb0 f   pjlib-i386-win32-vc8-debug:string.obj
 0002:00029f30       _pj_strncmp2               00485f30 f   pjlib-i386-win32-vc8-debug:string.obj
 0002:00029f90       _pj_strncpy                00485f90 f   pjlib-i386-win32-vc8-debug:string.obj
 0002:00029ff0       _pj_strncpy_with_null      00485ff0 f   pjlib-i386-win32-vc8-debug:string.obj
 0002:0002a070       _pj_strnicmp               00486070 f   pjlib-i386-win32-vc8-debug:string.obj
 0002:0002a0f0       _pj_strnicmp2              004860f0 f   pjlib-i386-win32-vc8-debug:string.obj
 0002:0002a150       _pj_strrtrim               00486150 f   pjlib-i386-win32-vc8-debug:string.obj
 0002:0002a1e0       _pj_strstr                 004861e0 f   pjlib-i386-win32-vc8-debug:string.obj
 0002:0002a280       _pj_strtof                 00486280 f   pjlib-i386-win32-vc8-debug:string.obj
 0002:0002a450       _pj_strtol                 00486450 f   pjlib-i386-win32-vc8-debug:string.obj
 0002:0002a550       _pj_strtoul                00486550 f   pjlib-i386-win32-vc8-debug:string.obj
 0002:0002a600       _pj_strtoul2               00486600 f   pjlib-i386-win32-vc8-debug:string.obj
 0002:0002a790       _pj_strtrim                00486790 f   pjlib-i386-win32-vc8-debug:string.obj
 0002:0002a7d0       _pj_utoa                   004867d0 f   pjlib-i386-win32-vc8-debug:string.obj
 0002:0002a800       _pj_utoa_pad               00486800 f   pjlib-i386-win32-vc8-debug:string.obj
 0002:0002aa60       _pj_gettimeofday           00486a60 f   pjlib-i386-win32-vc8-debug:os_time_win32.obj
 0002:0002ab40       _pj_time_decode            00486b40 f   pjlib-i386-win32-vc8-debug:os_time_win32.obj
 0002:0002ac50       _pj_time_encode            00486c50 f   pjlib-i386-win32-vc8-debug:os_time_win32.obj
 0002:0002ade0       _pj_list_erase             00486de0 f   pjlib-i386-win32-vc8-debug:list.obj
 0002:0002ae20       _pj_list_find_node         00486e20 f   pjlib-i386-win32-vc8-debug:list.obj
 0002:0002aec0       _pj_list_insert_after      00486ec0 f   pjlib-i386-win32-vc8-debug:list.obj
 0002:0002af10       _pj_list_insert_before     00486f10 f   pjlib-i386-win32-vc8-debug:list.obj
 0002:0002af40       _pj_list_insert_nodes_after 00486f40 f   pjlib-i386-win32-vc8-debug:list.obj
 0002:0002afa0       _pj_list_insert_nodes_before 00486fa0 f   pjlib-i386-win32-vc8-debug:list.obj
 0002:0002afd0       _pj_list_merge_first       00486fd0 f   pjlib-i386-win32-vc8-debug:list.obj
 0002:0002b040       _pj_list_merge_last        00487040 f   pjlib-i386-win32-vc8-debug:list.obj
 0002:0002b0b0       _pj_list_search            004870b0 f   pjlib-i386-win32-vc8-debug:list.obj
 0002:0002b120       _pj_list_size              00487120 f   pjlib-i386-win32-vc8-debug:list.obj
 0002:0002b480       _ioqueue_dispatch_exception_event 00487480 f   pjlib-i386-win32-vc8-debug:ioqueue_select.obj
 0002:0002b630       _ioqueue_dispatch_read_event 00487630 f   pjlib-i386-win32-vc8-debug:ioqueue_select.obj
 0002:0002ba10       _ioqueue_dispatch_write_event 00487a10 f   pjlib-i386-win32-vc8-debug:ioqueue_select.obj
 0002:0002c2b0       _pj_ioqueue_accept         004882b0 f   pjlib-i386-win32-vc8-debug:ioqueue_select.obj
 0002:0002c4e0       _pj_ioqueue_connect        004884e0 f   pjlib-i386-win32-vc8-debug:ioqueue_select.obj
 0002:0002c660       _pj_ioqueue_create         00488660 f   pjlib-i386-win32-vc8-debug:ioqueue_select.obj
 0002:0002c980       _pj_ioqueue_destroy        00488980 f   pjlib-i386-win32-vc8-debug:ioqueue_select.obj
 0002:0002cad0       _pj_ioqueue_get_user_data  00488ad0 f   pjlib-i386-win32-vc8-debug:ioqueue_select.obj
 0002:0002cb30       _pj_ioqueue_is_pending     00488b30 f   pjlib-i386-win32-vc8-debug:ioqueue_select.obj
 0002:0002cb70       _pj_ioqueue_lock_key       00488b70 f   pjlib-i386-win32-vc8-debug:ioqueue_select.obj
 0002:0002cbc0       _pj_ioqueue_name           00488bc0 f   pjlib-i386-win32-vc8-debug:ioqueue_select.obj
 0002:0002cbe0       _pj_ioqueue_op_key_init    00488be0 f   pjlib-i386-win32-vc8-debug:ioqueue_select.obj
 0002:0002cc10       _pj_ioqueue_poll           00488c10 f   pjlib-i386-win32-vc8-debug:ioqueue_select.obj
 0002:0002d300       _pj_ioqueue_post_completion 00489300 f   pjlib-i386-win32-vc8-debug:ioqueue_select.obj
 0002:0002d4c0       _pj_ioqueue_recv           004894c0 f   pjlib-i386-win32-vc8-debug:ioqueue_select.obj
 0002:0002d6c0       _pj_ioqueue_recvfrom       004896c0 f   pjlib-i386-win32-vc8-debug:ioqueue_select.obj
 0002:0002d8e0       _pj_ioqueue_register_sock  004898e0 f   pjlib-i386-win32-vc8-debug:ioqueue_select.obj
 0002:0002d920       _pj_ioqueue_register_sock2 00489920 f   pjlib-i386-win32-vc8-debug:ioqueue_select.obj
 0002:0002db90       _pj_ioqueue_send           00489b90 f   pjlib-i386-win32-vc8-debug:ioqueue_select.obj
 0002:0002ddf0       _pj_ioqueue_sendto         00489df0 f   pjlib-i386-win32-vc8-debug:ioqueue_select.obj
 0002:0002e0c0       _pj_ioqueue_set_concurrency 0048a0c0 f   pjlib-i386-win32-vc8-debug:ioqueue_select.obj
 0002:0002e180       _pj_ioqueue_set_default_concurrency 0048a180 f   pjlib-i386-win32-vc8-debug:ioqueue_select.obj
 0002:0002e1e0       _pj_ioqueue_set_lock       0048a1e0 f   pjlib-i386-win32-vc8-debug:ioqueue_select.obj
 0002:0002e280       _pj_ioqueue_set_user_data  0048a280 f   pjlib-i386-win32-vc8-debug:ioqueue_select.obj
 0002:0002e300       _pj_ioqueue_unlock_key     0048a300 f   pjlib-i386-win32-vc8-debug:ioqueue_select.obj
 0002:0002e350       _pj_ioqueue_unregister     0048a350 f   pjlib-i386-win32-vc8-debug:ioqueue_select.obj
 0002:0002e900       _pj_file_delete            0048a900 f   pjlib-i386-win32-vc8-debug:file_access_win32.obj
 0002:0002e9c0       _pj_file_exists            0048a9c0 f   pjlib-i386-win32-vc8-debug:file_access_win32.obj
 0002:0002ea60       _pj_file_getstat           0048aa60 f   pjlib-i386-win32-vc8-debug:file_access_win32.obj
 0002:0002ed30       _pj_file_move              0048ad30 f   pjlib-i386-win32-vc8-debug:file_access_win32.obj
 0002:0002ee10       _pj_file_size              0048ae10 f   pjlib-i386-win32-vc8-debug:file_access_win32.obj
 0002:0002ef30       _pj_file_close             0048af30 f   pjlib-i386-win32-vc8-debug:file_io_win32.obj
 0002:0002efb0       _pj_file_flush             0048afb0 f   pjlib-i386-win32-vc8-debug:file_io_win32.obj
 0002:0002f040       _pj_file_getpos            0048b040 f   pjlib-i386-win32-vc8-debug:file_io_win32.obj
 0002:0002f110       _pj_file_open              0048b110 f   pjlib-i386-win32-vc8-debug:file_io_win32.obj
 0002:0002f360       _pj_file_read              0048b360 f   pjlib-i386-win32-vc8-debug:file_io_win32.obj
 0002:0002f410       _pj_file_setpos            0048b410 f   pjlib-i386-win32-vc8-debug:file_io_win32.obj
 0002:0002f530       _pj_file_write             0048b530 f   pjlib-i386-win32-vc8-debug:file_io_win32.obj
 0002:0002f5e0       _pj_array_erase            0048b5e0 f   pjlib-i386-win32-vc8-debug:array.obj
 0002:0002f670       _pj_array_find             0048b670 f   pjlib-i386-win32-vc8-debug:array.obj
 0002:0002f6f0       _pj_array_insert           0048b6f0 f   pjlib-i386-win32-vc8-debug:array.obj
 0002:0002f810       _pj_exception_id_alloc     0048b810 f   pjlib-i386-win32-vc8-debug:except.obj
 0002:0002f890       _pj_exception_id_free      0048b890 f   pjlib-i386-win32-vc8-debug:except.obj
 0002:0002f920       _pj_exception_id_name      0048b920 f   pjlib-i386-win32-vc8-debug:except.obj
 0002:0002f9d0       _pj_pop_exception_handler_ 0048b9d0 f   pjlib-i386-win32-vc8-debug:except.obj
 0002:0002fa30       _pj_push_exception_handler_ 0048ba30 f   pjlib-i386-win32-vc8-debug:except.obj
 0002:0002fae0       _pj_throw_exception_       0048bae0 f   pjlib-i386-win32-vc8-debug:except.obj
 0002:00030250       _pj_grp_lock_acquire       0048c250 f   pjlib-i386-win32-vc8-debug:lock.obj
 0002:00030280       _pj_grp_lock_add_handler   0048c280 f   pjlib-i386-win32-vc8-debug:lock.obj
 0002:00030310       _pj_grp_lock_add_ref       0048c310 f   pjlib-i386-win32-vc8-debug:lock.obj
 0002:00030340       _pj_grp_lock_chain_lock    0048c340 f   pjlib-i386-win32-vc8-debug:lock.obj
 0002:00030430       _pj_grp_lock_config_default 0048c430 f   pjlib-i386-win32-vc8-debug:lock.obj
 0002:00030460       _pj_grp_lock_create        0048c460 f   pjlib-i386-win32-vc8-debug:lock.obj
 0002:00030640       _pj_grp_lock_dec_ref       0048c640 f   pjlib-i386-win32-vc8-debug:lock.obj
 0002:00030670       _pj_grp_lock_del_handler   0048c670 f   pjlib-i386-win32-vc8-debug:lock.obj
 0002:00030710       _pj_grp_lock_destroy       0048c710 f   pjlib-i386-win32-vc8-debug:lock.obj
 0002:00030740       _pj_grp_lock_dump          0048c740 f   pjlib-i386-win32-vc8-debug:lock.obj
 0002:00030760       _pj_grp_lock_get_ref       0048c760 f   pjlib-i386-win32-vc8-debug:lock.obj
 0002:00030790       _pj_grp_lock_release       0048c790 f   pjlib-i386-win32-vc8-debug:lock.obj
 0002:000307c0       _pj_grp_lock_replace       0048c7c0 f   pjlib-i386-win32-vc8-debug:lock.obj
 0002:00030870       _pj_grp_lock_tryacquire    0048c870 f   pjlib-i386-win32-vc8-debug:lock.obj
 0002:000308a0       _pj_grp_lock_unchain_lock  0048c8a0 f   pjlib-i386-win32-vc8-debug:lock.obj
 0002:000309d0       _pj_lock_acquire           0048c9d0 f   pjlib-i386-win32-vc8-debug:lock.obj
 0002:00030a40       _pj_lock_create_null_mutex 0048ca40 f   pjlib-i386-win32-vc8-debug:lock.obj
 0002:00030aa0       _pj_lock_create_recursive_mutex 0048caa0 f   pjlib-i386-win32-vc8-debug:lock.obj
 0002:00030ad0       _pj_lock_create_semaphore  0048cad0 f   pjlib-i386-win32-vc8-debug:lock.obj
 0002:00030bc0       _pj_lock_create_simple_mutex 0048cbc0 f   pjlib-i386-win32-vc8-debug:lock.obj
 0002:00030bf0       _pj_lock_destroy           0048cbf0 f   pjlib-i386-win32-vc8-debug:lock.obj
 0002:00030c60       _pj_lock_release           0048cc60 f   pjlib-i386-win32-vc8-debug:lock.obj
 0002:00030cd0       _pj_lock_tryacquire        0048ccd0 f   pjlib-i386-win32-vc8-debug:lock.obj
 0002:00030da0       _pj_get_timestamp          0048cda0 f   pjlib-i386-win32-vc8-debug:os_timestamp_win32.obj
 0002:00030e30       _pj_get_timestamp_freq     0048ce30 f   pjlib-i386-win32-vc8-debug:os_timestamp_win32.obj
 0002:00031060       _pj_elapsed_cycle          0048d060 f   pjlib-i386-win32-vc8-debug:os_timestamp_common.obj
 0002:00031080       _pj_elapsed_msec           0048d080 f   pjlib-i386-win32-vc8-debug:os_timestamp_common.obj
 0002:000310c0       _pj_elapsed_msec64         0048d0c0 f   pjlib-i386-win32-vc8-debug:os_timestamp_common.obj
 0002:00031100       _pj_elapsed_nanosec        0048d100 f   pjlib-i386-win32-vc8-debug:os_timestamp_common.obj
 0002:000311c0       _pj_elapsed_time           0048d1c0 f   pjlib-i386-win32-vc8-debug:os_timestamp_common.obj
 0002:000312a0       _pj_elapsed_usec           0048d2a0 f   pjlib-i386-win32-vc8-debug:os_timestamp_common.obj
 0002:000312e0       _pj_gettickcount           0048d2e0 f   pjlib-i386-win32-vc8-debug:os_timestamp_common.obj
 0002:000314c0       _pj_GUID_STRING_LENGTH     0048d4c0 f   pjlib-i386-win32-vc8-debug:guid_win32.obj
 0002:000314e0       _pj_generate_unique_string 0048d4e0 f   pjlib-i386-win32-vc8-debug:guid_win32.obj
 0002:00031550       _pj_dump_config            0048d550 f   pjlib-i386-win32-vc8-debug:config.obj
 0002:00031b30       _pj_get_version            0048db30 f   pjlib-i386-win32-vc8-debug:config.obj
 0002:00031b50       _pj_get_netos_error        0048db50 f   pjlib-i386-win32-vc8-debug:os_error_win32.obj
 0002:00031ba0       _pj_get_os_error           0048dba0 f   pjlib-i386-win32-vc8-debug:os_error_win32.obj
 0002:00031c20       _pj_set_netos_error        0048dc20 f   pjlib-i386-win32-vc8-debug:os_error_win32.obj
 0002:00031c70       _pj_set_os_error           0048dc70 f   pjlib-i386-win32-vc8-debug:os_error_win32.obj
 0002:00031cc0       _platform_strerror         0048dcc0 f   pjlib-i386-win32-vc8-debug:os_error_win32.obj
 0002:00031ec0       _pj_pool_create_on_buf     0048dec0 f   pjlib-i386-win32-vc8-debug:pool_buf.obj
 0002:00032130       _pj_log_write              0048e130 f   pjlib-i386-win32-vc8-debug:log_writer_stdout.obj
 0002:00032be0       _pj_enum_ip_interface      0048ebe0 f   pjlib-i386-win32-vc8-debug:ip_helper_win32.obj
 0002:00032d40       _pj_enum_ip_route          0048ed40 f   pjlib-i386-win32-vc8-debug:ip_helper_win32.obj
 0002:000331b0       _pj_getaddrinfo            0048f1b0 f   pjlib-i386-win32-vc8-debug:addr_resolv_sock.obj
 0002:00033510       _pj_gethostbyname          0048f510 f   pjlib-i386-win32-vc8-debug:addr_resolv_sock.obj
 0002:000336a0       _pj_rand                   0048f6a0 f   pjlib-i386-win32-vc8-debug:rand.obj
 0002:000336e0       _pj_srand                  0048f6e0 f   pjlib-i386-win32-vc8-debug:rand.obj
 0002:00033760       _pj_time_val_normalize     0048f760 f   pjlib-i386-win32-vc8-debug:types.obj
 0002:000338a0       _PJ_FD_CLR                 0048f8a0 f   pjlib-i386-win32-vc8-debug:sock_select.obj
 0002:000339f0       _PJ_FD_COUNT               0048f9f0 f   pjlib-i386-win32-vc8-debug:sock_select.obj
 0002:00033a20       _PJ_FD_ISSET               0048fa20 f   pjlib-i386-win32-vc8-debug:sock_select.obj
 0002:00033a80       _PJ_FD_SET                 0048fa80 f   pjlib-i386-win32-vc8-debug:sock_select.obj
 0002:00033bc0       _PJ_FD_ZERO                0048fbc0 f   pjlib-i386-win32-vc8-debug:sock_select.obj
 0002:00033c20       _pj_sock_select            0048fc20 f   pjlib-i386-win32-vc8-debug:sock_select.obj
 0002:000344a0       _speex_echo_cancel         004904a0 f   libspeex-i386-win32-vc8-debug:mdf.obj
 0002:000344e0       _speex_echo_cancellation   004904e0 f   libspeex-i386-win32-vc8-debug:mdf.obj
 0002:00036250       _speex_echo_capture        00492250 f   libspeex-i386-win32-vc8-debug:mdf.obj
 0002:000363f0       _speex_echo_ctl            004923f0 f   libspeex-i386-win32-vc8-debug:mdf.obj
 0002:00036580       _speex_echo_get_residual   00492580 f   libspeex-i386-win32-vc8-debug:mdf.obj
 0002:000366e0       _speex_echo_playback       004926e0 f   libspeex-i386-win32-vc8-debug:mdf.obj
 0002:000368b0       _speex_echo_state_destroy  004928b0 f   libspeex-i386-win32-vc8-debug:mdf.obj
 0002:00036aa0       _speex_echo_state_init     00492aa0 f   libspeex-i386-win32-vc8-debug:mdf.obj
 0002:000372f0       _speex_echo_state_reset    004932f0 f   libspeex-i386-win32-vc8-debug:mdf.obj
 0002:000385d0       _speex_preprocess          004945d0 f   libspeex-i386-win32-vc8-debug:preprocess.obj
 0002:00038600       _speex_preprocess_ctl      00494600 f   libspeex-i386-win32-vc8-debug:preprocess.obj
 0002:00039010       _speex_preprocess_estimate_update 00495010 f   libspeex-i386-win32-vc8-debug:preprocess.obj
 0002:00039250       _speex_preprocess_run      00495250 f   libspeex-i386-win32-vc8-debug:preprocess.obj
 0002:0003aa50       _speex_preprocess_state_destroy 00496a50 f   libspeex-i386-win32-vc8-debug:preprocess.obj
 0002:0003ac60       _speex_preprocess_state_init 00496c60 f   libspeex-i386-win32-vc8-debug:preprocess.obj
 0002:0003bad0       _spx_fft                   00497ad0 f   libspeex-i386-win32-vc8-debug:fftwrap.obj
 0002:0003bc10       _spx_fft_destroy           00497c10 f   libspeex-i386-win32-vc8-debug:fftwrap.obj
 0002:0003bc50       _spx_fft_float             00497c50 f   libspeex-i386-win32-vc8-debug:fftwrap.obj
 0002:0003bc80       _spx_fft_init              00497c80 f   libspeex-i386-win32-vc8-debug:fftwrap.obj
 0002:0003bcc0       _spx_ifft                  00497cc0 f   libspeex-i386-win32-vc8-debug:fftwrap.obj
 0002:0003bd60       _spx_ifft_float            00497d60 f   libspeex-i386-win32-vc8-debug:fftwrap.obj
 0002:0003bd90       _filterbank_compute_bank   00497d90 f   libspeex-i386-win32-vc8-debug:filterbank.obj
 0002:0003bf00       _filterbank_compute_bank32 00497f00 f   libspeex-i386-win32-vc8-debug:filterbank.obj
 0002:0003c020       _filterbank_compute_psd    00498020 f   libspeex-i386-win32-vc8-debug:filterbank.obj
 0002:0003c0f0       _filterbank_compute_psd16  004980f0 f   libspeex-i386-win32-vc8-debug:filterbank.obj
 0002:0003c1c0       _filterbank_destroy        004981c0 f   libspeex-i386-win32-vc8-debug:filterbank.obj
 0002:0003c240       _filterbank_new            00498240 f   libspeex-i386-win32-vc8-debug:filterbank.obj
 0002:0003c780       _filterbank_psy_smooth     00498780 f   libspeex-i386-win32-vc8-debug:filterbank.obj
 0002:00041720       _spx_drft_backward         0049d720 f   libspeex-i386-win32-vc8-debug:smallft.obj
 0002:00041780       _spx_drft_clear            0049d780 f   libspeex-i386-win32-vc8-debug:smallft.obj
 0002:000417e0       _spx_drft_forward          0049d7e0 f   libspeex-i386-win32-vc8-debug:smallft.obj
 0002:00041840       _spx_drft_init             0049d840 f   libspeex-i386-win32-vc8-debug:smallft.obj
 0002:000418c0       _crypto_get_random         0049d8c0 f   libsrtp-i386-win32-vc8-debug:crypto_kernel.obj
 0002:00041900       _crypto_kernel_alloc_auth  0049d900 f   libsrtp-i386-win32-vc8-debug:crypto_kernel.obj
 0002:00041970       _crypto_kernel_alloc_cipher 0049d970 f   libsrtp-i386-win32-vc8-debug:crypto_kernel.obj
 0002:000419e0       _crypto_kernel_get_auth_type 0049d9e0 f   libsrtp-i386-win32-vc8-debug:crypto_kernel.obj
 0002:00041a30       _crypto_kernel_get_cipher_type 0049da30 f   libsrtp-i386-win32-vc8-debug:crypto_kernel.obj
 0002:00041a80       _crypto_kernel_init        0049da80 f   libsrtp-i386-win32-vc8-debug:crypto_kernel.obj
 0002:00041cf0       _crypto_kernel_list_debug_modules 0049dcf0 f   libsrtp-i386-win32-vc8-debug:crypto_kernel.obj
 0002:00041d90       _crypto_kernel_load_auth_type 0049dd90 f   libsrtp-i386-win32-vc8-debug:crypto_kernel.obj
 0002:00041e90       _crypto_kernel_load_cipher_type 0049de90 f   libsrtp-i386-win32-vc8-debug:crypto_kernel.obj
 0002:00041f90       _crypto_kernel_load_debug_module 0049df90 f   libsrtp-i386-win32-vc8-debug:crypto_kernel.obj
 0002:00042050       _crypto_kernel_set_debug_module 0049e050 f   libsrtp-i386-win32-vc8-debug:crypto_kernel.obj
 0002:000420c0       _crypto_kernel_shutdown    0049e0c0 f   libsrtp-i386-win32-vc8-debug:crypto_kernel.obj
 0002:00042230       _crypto_kernel_status      0049e230 f   libsrtp-i386-win32-vc8-debug:crypto_kernel.obj
 0002:000424b0       _srtp_event_reporter       0049e4b0 f   libsrtp-i386-win32-vc8-debug:srtp.obj
 0002:00042580       _append_salt_to_key        0049e580 f   libsrtp-i386-win32-vc8-debug:srtp.obj
 0002:00042610       _crypto_policy_set_aes_cm_128_hmac_sha1_32 0049e610 f   libsrtp-i386-win32-vc8-debug:srtp.obj
 0002:00042670       _crypto_policy_set_aes_cm_128_null_auth 0049e670 f   libsrtp-i386-win32-vc8-debug:srtp.obj
 0002:000426d0       _crypto_policy_set_from_profile_for_rtcp 0049e6d0 f   libsrtp-i386-win32-vc8-debug:srtp.obj
 0002:00042750       _crypto_policy_set_from_profile_for_rtp 0049e750 f   libsrtp-i386-win32-vc8-debug:srtp.obj
 0002:000427d0       _crypto_policy_set_null_cipher_hmac_sha1_80 0049e7d0 f   libsrtp-i386-win32-vc8-debug:srtp.obj
 0002:00042830       _crypto_policy_set_rtcp_default 0049e830 f   libsrtp-i386-win32-vc8-debug:srtp.obj
 0002:00042890       _crypto_policy_set_rtp_default 0049e890 f   libsrtp-i386-win32-vc8-debug:srtp.obj
 0002:000428f0       _srtp_add_stream           0049e8f0 f   libsrtp-i386-win32-vc8-debug:srtp.obj
 0002:00042a50       _srtp_create               0049ea50 f   libsrtp-i386-win32-vc8-debug:srtp.obj
 0002:00042b10       _srtp_dealloc              0049eb10 f   libsrtp-i386-win32-vc8-debug:srtp.obj
 0002:00042ca0       _srtp_deinit               0049eca0 f   libsrtp-i386-win32-vc8-debug:srtp.obj
 0002:00042cd0       _srtp_get_stream           0049ecd0 f   libsrtp-i386-win32-vc8-debug:srtp.obj
 0002:00042d20       _srtp_init                 0049ed20 f   libsrtp-i386-win32-vc8-debug:srtp.obj
 0002:00042d70       _srtp_install_event_handler 0049ed70 f   libsrtp-i386-win32-vc8-debug:srtp.obj
 0002:00042d90       _srtp_kdf_clear            0049ed90 f   libsrtp-i386-win32-vc8-debug:srtp.obj
 0002:00042dc0       _srtp_kdf_generate         0049edc0 f   libsrtp-i386-win32-vc8-debug:srtp.obj
 0002:00042e80       _srtp_kdf_init             0049ee80 f   libsrtp-i386-win32-vc8-debug:srtp.obj
 0002:00042eb0       _srtp_profile_get_master_key_length 0049eeb0 f   libsrtp-i386-win32-vc8-debug:srtp.obj
 0002:00042f10       _srtp_profile_get_master_salt_length 0049ef10 f   libsrtp-i386-win32-vc8-debug:srtp.obj
 0002:00042f70       _srtp_protect              0049ef70 f   libsrtp-i386-win32-vc8-debug:srtp.obj
 0002:000436f0       _srtp_protect_rtcp         0049f6f0 f   libsrtp-i386-win32-vc8-debug:srtp.obj
 0002:00043c40       _srtp_remove_stream        0049fc40 f   libsrtp-i386-win32-vc8-debug:srtp.obj
 0002:00043cf0       _srtp_stream_alloc         0049fcf0 f   libsrtp-i386-win32-vc8-debug:srtp.obj
 0002:00043fb0       _srtp_stream_clone         0049ffb0 f   libsrtp-i386-win32-vc8-debug:srtp.obj
 0002:00044100       _srtp_stream_dealloc       004a0100 f   libsrtp-i386-win32-vc8-debug:srtp.obj
 0002:000442b0       _srtp_stream_init          004a02b0 f   libsrtp-i386-win32-vc8-debug:srtp.obj
 0002:000443b0       _srtp_stream_init_keys     004a03b0 f   libsrtp-i386-win32-vc8-debug:srtp.obj
 0002:000448e0       _srtp_unprotect            004a08e0 f   libsrtp-i386-win32-vc8-debug:srtp.obj
 0002:000450c0       _srtp_unprotect_rtcp       004a10c0 f   libsrtp-i386-win32-vc8-debug:srtp.obj
 0002:000456c0       _crypto_alloc              004a16c0 f   libsrtp-i386-win32-vc8-debug:alloc.obj
 0002:00045750       _crypto_free               004a1750 f   libsrtp-i386-win32-vc8-debug:alloc.obj
 0002:000457a0       _err_report                004a17a0 f   libsrtp-i386-win32-vc8-debug:srtp_err.obj
 0002:00045800       _err_reporting_init        004a1800 f   libsrtp-i386-win32-vc8-debug:srtp_err.obj
 0002:00045820       _err_reporting_set_level   004a1820 f   libsrtp-i386-win32-vc8-debug:srtp_err.obj
 0002:00045840       _rand_source_deinit        004a1840 f   libsrtp-i386-win32-vc8-debug:rand_source.obj
 0002:00045870       _rand_source_get_octet_string 004a1870 f   libsrtp-i386-win32-vc8-debug:rand_source.obj
 0002:000458d0       _rand_source_init          004a18d0 f   libsrtp-i386-win32-vc8-debug:rand_source.obj
 0002:00045910       _cipher_bits_per_second    004a1910 f   libsrtp-i386-win32-vc8-debug:cipher.obj
 0002:00045ad0       _cipher_get_key_length     004a1ad0 f   libsrtp-i386-win32-vc8-debug:cipher.obj
 0002:00045af0       _cipher_output             004a1af0 f   libsrtp-i386-win32-vc8-debug:cipher.obj
 0002:00045b40       _cipher_type_self_test     004a1b40 f   libsrtp-i386-win32-vc8-debug:cipher.obj
 0002:00046a60       _ctr_prng_deinit           004a2a60 f   libsrtp-i386-win32-vc8-debug:ctr_prng.obj
 0002:00046a80       _ctr_prng_get_octet_string 004a2a80 f   libsrtp-i386-win32-vc8-debug:ctr_prng.obj
 0002:00046b10       _ctr_prng_init             004a2b10 f   libsrtp-i386-win32-vc8-debug:ctr_prng.obj
 0002:00046ba0       _auth_get_key_length       004a2ba0 f   libsrtp-i386-win32-vc8-debug:auth.obj
 0002:00046bc0       _auth_get_prefix_length    004a2bc0 f   libsrtp-i386-win32-vc8-debug:auth.obj
 0002:00046be0       _auth_get_tag_length       004a2be0 f   libsrtp-i386-win32-vc8-debug:auth.obj
 0002:00046c00       _auth_type_get_ref_count   004a2c00 f   libsrtp-i386-win32-vc8-debug:auth.obj
 0002:00046c20       _auth_type_self_test       004a2c20 f   libsrtp-i386-win32-vc8-debug:auth.obj
 0002:00047000       _stat_test_monobit         004a3000 f   libsrtp-i386-win32-vc8-debug:stat.obj
 0002:000470c0       _stat_test_poker           004a30c0 f   libsrtp-i386-win32-vc8-debug:stat.obj
 0002:000472d0       _stat_test_rand_source     004a32d0 f   libsrtp-i386-win32-vc8-debug:stat.obj
 0002:00047b00       _stat_test_rand_source_with_repetition 004a3b00 f   libsrtp-i386-win32-vc8-debug:stat.obj
 0002:00047b90       _stat_test_runs            004a3b90 f   libsrtp-i386-win32-vc8-debug:stat.obj
 0002:00048060       _null_cipher_init          004a4060 f   libsrtp-i386-win32-vc8-debug:null_cipher.obj
 0002:000480a0       _null_cipher_encrypt       004a40a0 f   libsrtp-i386-win32-vc8-debug:null_cipher.obj
 0002:000480c0       _null_cipher_alloc         004a40c0 f   libsrtp-i386-win32-vc8-debug:null_cipher.obj
 0002:00048170       _null_cipher_dealloc       004a4170 f   libsrtp-i386-win32-vc8-debug:null_cipher.obj
 0002:000481c0       _null_cipher_set_iv        004a41c0 f   libsrtp-i386-win32-vc8-debug:null_cipher.obj
 0002:000481e0       _aes_icm_context_init      004a41e0 f   libsrtp-i386-win32-vc8-debug:aes_icm.obj
 0002:00048340       _aes_icm_set_iv            004a4340 f   libsrtp-i386-win32-vc8-debug:aes_icm.obj
 0002:000484b0       _aes_icm_encrypt           004a44b0 f   libsrtp-i386-win32-vc8-debug:aes_icm.obj
 0002:000484e0       _aes_icm_dealloc           004a44e0 f   libsrtp-i386-win32-vc8-debug:aes_icm.obj
 0002:00048530       _aes_icm_alloc             004a4530 f   libsrtp-i386-win32-vc8-debug:aes_icm.obj
 0002:00048750       _aes_icm_alloc_ismacryp    004a4750 f   libsrtp-i386-win32-vc8-debug:aes_icm.obj
 0002:00048820       _aes_icm_encrypt_ismacryp  004a4820 f   libsrtp-i386-win32-vc8-debug:aes_icm.obj
 0002:00048e80       _aes_icm_output            004a4e80 f   libsrtp-i386-win32-vc8-debug:aes_icm.obj
 0002:00048ed0       _aes_icm_set_octet         004a4ed0 f   libsrtp-i386-win32-vc8-debug:aes_icm.obj
 0002:00049120       _aes_cbc_context_init      004a5120 f   libsrtp-i386-win32-vc8-debug:aes_cbc.obj
 0002:000491f0       _aes_cbc_set_iv            004a51f0 f   libsrtp-i386-win32-vc8-debug:aes_cbc.obj
 0002:00049290       _aes_cbc_nist_encrypt      004a5290 f   libsrtp-i386-win32-vc8-debug:aes_cbc.obj
 0002:00049360       _aes_cbc_nist_decrypt      004a5360 f   libsrtp-i386-win32-vc8-debug:aes_cbc.obj
 0002:00049400       _aes_cbc_alloc             004a5400 f   libsrtp-i386-win32-vc8-debug:aes_cbc.obj
 0002:000494d0       _aes_cbc_dealloc           004a54d0 f   libsrtp-i386-win32-vc8-debug:aes_cbc.obj
 0002:00049520       _aes_cbc_decrypt           004a5520 f   libsrtp-i386-win32-vc8-debug:aes_cbc.obj
 0002:00049730       _aes_cbc_encrypt           004a5730 f   libsrtp-i386-win32-vc8-debug:aes_cbc.obj
 0002:000498e0       _null_auth_alloc           004a58e0 f   libsrtp-i386-win32-vc8-debug:null_auth.obj
 0002:000499e0       _null_auth_dealloc         004a59e0 f   libsrtp-i386-win32-vc8-debug:null_auth.obj
 0002:00049a30       _null_auth_init            004a5a30 f   libsrtp-i386-win32-vc8-debug:null_auth.obj
 0002:00049a50       _null_auth_compute         004a5a50 f   libsrtp-i386-win32-vc8-debug:null_auth.obj
 0002:00049a70       _null_auth_update          004a5a70 f   libsrtp-i386-win32-vc8-debug:null_auth.obj
 0002:00049a90       _null_auth_start           004a5a90 f   libsrtp-i386-win32-vc8-debug:null_auth.obj
 0002:00049ab0       _hmac_alloc                004a5ab0 f   libsrtp-i386-win32-vc8-debug:hmac.obj
 0002:00049bd0       _hmac_dealloc              004a5bd0 f   libsrtp-i386-win32-vc8-debug:hmac.obj
 0002:00049c20       _hmac_init                 004a5c20 f   libsrtp-i386-win32-vc8-debug:hmac.obj
 0002:00049d80       _hmac_start                004a5d80 f   libsrtp-i386-win32-vc8-debug:hmac.obj
 0002:00049dc0       _hmac_update               004a5dc0 f   libsrtp-i386-win32-vc8-debug:hmac.obj
 0002:00049e30       _hmac_compute              004a5e30 f   libsrtp-i386-win32-vc8-debug:hmac.obj
 0002:00049fb0       _base64_char_to_sextet     004a5fb0 f   libsrtp-i386-win32-vc8-debug:datatypes.obj
 0002:0004a470       _base64_string_to_octet_string 004a6470 f   libsrtp-i386-win32-vc8-debug:datatypes.obj
 0002:0004a740       _hex_string_to_octet_string 004a6740 f   libsrtp-i386-win32-vc8-debug:datatypes.obj
 0002:0004a830       _is_hex_string             004a6830 f   libsrtp-i386-win32-vc8-debug:datatypes.obj
 0002:0004a890       _nibble_to_hex_char        004a6890 f   libsrtp-i386-win32-vc8-debug:datatypes.obj
 0002:0004a920       _octet_get_weight          004a6920 f   libsrtp-i386-win32-vc8-debug:datatypes.obj
 0002:0004a950       _octet_string_hex_string   004a6950 f   libsrtp-i386-win32-vc8-debug:datatypes.obj
 0002:0004aa40       _octet_string_is_eq        004a6a40 f   libsrtp-i386-win32-vc8-debug:datatypes.obj
 0002:0004aab0       _octet_string_set_to_zero  004a6ab0 f   libsrtp-i386-win32-vc8-debug:datatypes.obj
 0002:0004aaf0       _v128_bit_string           004a6af0 f   libsrtp-i386-win32-vc8-debug:datatypes.obj
 0002:0004abc0       _v128_copy_octet_string    004a6bc0 f   libsrtp-i386-win32-vc8-debug:datatypes.obj
 0002:0004ae10       _v128_hex_string           004a6e10 f   libsrtp-i386-win32-vc8-debug:datatypes.obj
 0002:0004aee0       _v128_left_shift           004a6ee0 f   libsrtp-i386-win32-vc8-debug:datatypes.obj
 0002:0004b090       _v128_right_shift          004a7090 f   libsrtp-i386-win32-vc8-debug:datatypes.obj
 0002:0004b250       _index_advance             004a7250 f   libsrtp-i386-win32-vc8-debug:rdbx.obj
 0002:0004b280       _index_guess               004a7280 f   libsrtp-i386-win32-vc8-debug:rdbx.obj
 0002:0004b3d0       _index_init                004a73d0 f   libsrtp-i386-win32-vc8-debug:rdbx.obj
 0002:0004b400       _rdbx_add_index            004a7400 f   libsrtp-i386-win32-vc8-debug:rdbx.obj
 0002:0004b4c0       _rdbx_check                004a74c0 f   libsrtp-i386-win32-vc8-debug:rdbx.obj
 0002:0004b530       _rdbx_estimate_index       004a7530 f   libsrtp-i386-win32-vc8-debug:rdbx.obj
 0002:0004b5a0       _rdbx_init                 004a75a0 f   libsrtp-i386-win32-vc8-debug:rdbx.obj
 0002:0004b630       _key_limit_check           004a7630 f   libsrtp-i386-win32-vc8-debug:key.obj
 0002:0004b660       _key_limit_clone           004a7660 f   libsrtp-i386-win32-vc8-debug:key.obj
 0002:0004b690       _key_limit_set             004a7690 f   libsrtp-i386-win32-vc8-debug:key.obj
 0002:0004b6f0       _key_limit_update          004a76f0 f   libsrtp-i386-win32-vc8-debug:key.obj
 0002:0004b7a0       _rdb_add_index             004a77a0 f   libsrtp-i386-win32-vc8-debug:rdb.obj
 0002:0004b870       _rdb_check                 004a7870 f   libsrtp-i386-win32-vc8-debug:rdb.obj
 0002:0004b8f0       _rdb_get_value             004a78f0 f   libsrtp-i386-win32-vc8-debug:rdb.obj
 0002:0004b910       _rdb_increment             004a7910 f   libsrtp-i386-win32-vc8-debug:rdb.obj
 0002:0004b960       _rdb_init                  004a7960 f   libsrtp-i386-win32-vc8-debug:rdb.obj
 0002:0004b9e0       _aes_decrypt               004a79e0 f   libsrtp-i386-win32-vc8-debug:aes.obj
 0002:0004bb70       _aes_encrypt               004a7b70 f   libsrtp-i386-win32-vc8-debug:aes.obj
 0002:0004bd00       _aes_expand_decryption_key 004a7d00 f   libsrtp-i386-win32-vc8-debug:aes.obj
 0002:0004c310       _aes_expand_encryption_key 004a8310 f   libsrtp-i386-win32-vc8-debug:aes.obj
 0002:0004d270       _sha1                      004a9270 f   libsrtp-i386-win32-vc8-debug:sha1.obj
 0002:0004d2e0       _sha1_core                 004a92e0 f   libsrtp-i386-win32-vc8-debug:sha1.obj
 0002:0004e340       _sha1_final                004aa340 f   libsrtp-i386-win32-vc8-debug:sha1.obj
 0002:0004f000       _sha1_init                 004ab000 f   libsrtp-i386-win32-vc8-debug:sha1.obj
 0002:0004f0a0       _sha1_update               004ab0a0 f   libsrtp-i386-win32-vc8-debug:sha1.obj
 0002:0004f230       _CoCreateGuid@4            004ab230 f   ole32:ole32.dll
 0002:0004f236       _WSAStartup@8              004ab236 f   ws2_32:WS2_32.dll
 0002:0004f23c       _WSACleanup@0              004ab23c f   ws2_32:WS2_32.dll
 0002:0004f242       _WSAGetLastError@0         004ab242 f   ws2_32:WS2_32.dll
 0002:0004f248       _accept@12                 004ab248 f   ws2_32:WS2_32.dll
 0002:0004f24e       _bind@12                   004ab24e f   ws2_32:WS2_32.dll
 0002:0004f254       _closesocket@4             004ab254 f   ws2_32:WS2_32.dll
 0002:0004f25a       _connect@12                004ab25a f   ws2_32:WS2_32.dll
 0002:0004f260       _getpeername@12            004ab260 f   ws2_32:WS2_32.dll
 0002:0004f266       _getsockname@12            004ab266 f   ws2_32:WS2_32.dll
 0002:0004f26c       _getsockopt@20             004ab26c f   ws2_32:WS2_32.dll
 0002:0004f272       _htonl@4                   004ab272 f   ws2_32:WS2_32.dll
 0002:0004f278       _htons@4                   004ab278 f   ws2_32:WS2_32.dll
 0002:0004f27e       _inet_addr@4               004ab27e f   ws2_32:WS2_32.dll
 0002:0004f284       _inet_ntoa@4               004ab284 f   ws2_32:WS2_32.dll
 0002:0004f28a       _listen@8                  004ab28a f   ws2_32:WS2_32.dll
 0002:0004f290       _ntohl@4                   004ab290 f   ws2_32:WS2_32.dll
 0002:0004f296       _ntohs@4                   004ab296 f   ws2_32:WS2_32.dll
 0002:0004f29c       _recv@16                   004ab29c f   ws2_32:WS2_32.dll
 0002:0004f2a2       _recvfrom@24               004ab2a2 f   ws2_32:WS2_32.dll
 0002:0004f2a8       _send@16                   004ab2a8 f   ws2_32:WS2_32.dll
 0002:0004f2ae       _sendto@24                 004ab2ae f   ws2_32:WS2_32.dll
 0002:0004f2b4       _setsockopt@20             004ab2b4 f   ws2_32:WS2_32.dll
 0002:0004f2ba       _shutdown@8                004ab2ba f   ws2_32:WS2_32.dll
 0002:0004f2c0       _gethostname@8             004ab2c0 f   ws2_32:WS2_32.dll
 0002:0004f2c6       _WSAIoctl@36               004ab2c6 f   ws2_32:WS2_32.dll
 0002:0004f2cc       _WSASocketA@24             004ab2cc f   ws2_32:WS2_32.dll
 0002:0004f2d2       _WSAAddressToStringA@20    004ab2d2 f   ws2_32:WS2_32.dll
 0002:0004f2d8       _WSAStringToAddressA@20    004ab2d8 f   ws2_32:WS2_32.dll
 0002:0004f2de       _ioctlsocket@12            004ab2de f   ws2_32:WS2_32.dll
 0002:0004f2e4       _WSASetLastError@4         004ab2e4 f   ws2_32:WS2_32.dll
 0002:0004f2ea       _gethostbyname@4           004ab2ea f   ws2_32:WS2_32.dll
 0002:0004f2f0       ___WSAFDIsSet@8            004ab2f0 f   ws2_32:WS2_32.dll
 0002:0004f2f6       _select@20                 004ab2f6 f   ws2_32:WS2_32.dll
 0002:0004f300       ___initstdio               004ab300 f   LIBCMTD:_file.obj
 0002:0004f400       ___endstdio                004ab400 f   LIBCMTD:_file.obj
 0002:0004f450       ___iob_func                004ab450 f   LIBCMTD:_file.obj
 0002:0004f460       __lock_file                004ab460 f   LIBCMTD:_file.obj
 0002:0004f4d0       __lock_file2               004ab4d0 f   LIBCMTD:_file.obj
 0002:0004f520       __unlock_file              004ab520 f   LIBCMTD:_file.obj
 0002:0004f590       __unlock_file2             004ab590 f   LIBCMTD:_file.obj
 0002:0004f5e0       _fgets                     004ab5e0 f   LIBCMTD:fgets.obj
 0002:0004faa0       __get_printf_count_output  004abaa0 f   LIBCMTD:printf.obj
 0002:0004fae0       __printf_l                 004abae0 f   LIBCMTD:printf.obj
 0002:0004fb10       __printf_p                 004abb10 f   LIBCMTD:printf.obj
 0002:0004fb40       __printf_p_l               004abb40 f   LIBCMTD:printf.obj
 0002:0004fb70       __printf_s_l               004abb70 f   LIBCMTD:printf.obj
 0002:0004fba0       __set_printf_count_output  004abba0 f   LIBCMTD:printf.obj
 0002:0004fc10       _printf                    004abc10 f   LIBCMTD:printf.obj
 0002:0004fde0       _printf_s                  004abde0 f   LIBCMTD:printf.obj
 0002:0004fe10       _puts                      004abe10 f   LIBCMTD:puts.obj
 0002:00050210       ??0_LocaleUpdate@@QAE@PAUlocaleinfo_struct@@@Z 004ac210 f i LIBCMTD:strtol.obj
 0002:00050320       ??1_LocaleUpdate@@QAE@XZ   004ac320 f i LIBCMTD:strtol.obj
 0002:00050360       ?GetLocaleT@_LocaleUpdate@@QAEPAUlocaleinfo_struct@@XZ 004ac360 f i LIBCMTD:strtol.obj
 0002:000509b0       __strtol_l                 004ac9b0 f   LIBCMTD:strtol.obj
 0002:000509e0       __strtoul_l                004ac9e0 f   LIBCMTD:strtol.obj
 0002:00050a10       _strtol                    004aca10 f   LIBCMTD:strtol.obj
 0002:00050a70       _strtoul                   004aca70 f   LIBCMTD:strtol.obj
 0002:00050ad0       __invoke_watson_if_error   004acad0 f i LIBCMTD:wassert.obj
 0002:00050b00       __wassert                  004acb00 f   LIBCMTD:wassert.obj
 0002:00051a50       @__security_check_cookie@4 004ada50 f   LIBCMTD:secchk.obj
 0002:00051a70       __allmul                   004ada70 f   LIBCMTD:llmul.obj
 0002:00051ac0       __aulldiv                  004adac0 f   LIBCMTD:ulldiv.obj
 0002:00051e40       _mainCRTStartup            004ade40 f   LIBCMTD:crt0.obj
 0002:00051e60       _memset                    004ade60 f   LIBCMTD:memset.obj
 0002:00051f20       __snprintf                 004adf20 f   LIBCMTD:snprintf.obj
 0002:00052170       __snprintf_l               004ae170 f   LIBCMTD:snprintf.obj
 0002:000521b0       __scprintf                 004ae1b0 f   LIBCMTD:sprintf.obj
 0002:000521e0       __scprintf_l               004ae1e0 f   LIBCMTD:sprintf.obj
 0002:00052210       __scprintf_p               004ae210 f   LIBCMTD:sprintf.obj
 0002:00052240       __scprintf_p_l             004ae240 f   LIBCMTD:sprintf.obj
 0002:00052270       __snprintf_s               004ae270 f   LIBCMTD:sprintf.obj
 0002:000522b0       __snprintf_s_l             004ae2b0 f   LIBCMTD:sprintf.obj
 0002:000522f0       __sprintf_l                004ae2f0 f   LIBCMTD:sprintf.obj
 0002:00052320       __sprintf_p                004ae320 f   LIBCMTD:sprintf.obj
 0002:00052360       __sprintf_p_l              004ae360 f   LIBCMTD:sprintf.obj
 0002:000523a0       __sprintf_s_l              004ae3a0 f   LIBCMTD:sprintf.obj
 0002:000523e0       _sprintf                   004ae3e0 f   LIBCMTD:sprintf.obj
 0002:00052610       _sprintf_s                 004ae610 f   LIBCMTD:sprintf.obj
 0002:00052650       _memcpy                    004ae650 f   LIBCMTD:memcpy.obj
 0002:00052e30       __alldiv                   004aee30 f   LIBCMTD:lldiv.obj
 0002:00052f10       ___ascii_stricmp           004aef10 f   LIBCMTD:stricmp.obj
 0002:00052fb0       __stricmp                  004aefb0 f   LIBCMTD:stricmp.obj
 0002:00053130       __stricmp_l                004af130 f   LIBCMTD:stricmp.obj
 0002:00053380       _strlen                    004af380 f   LIBCMTD:strlen.obj
 0002:00053430       ___isascii                 004af430 f i LIBCMTD:_ctype.obj
 0002:00053460       ___iscsym                  004af460 f i LIBCMTD:_ctype.obj
 0002:000534b0       ___iscsymf                 004af4b0 f i LIBCMTD:_ctype.obj
 0002:000534f0       ___toascii                 004af4f0 f i LIBCMTD:_ctype.obj
 0002:00053500       __isalnum_l                004af500 f i LIBCMTD:_ctype.obj
 0002:000535a0       __isalpha_l                004af5a0 f i LIBCMTD:_ctype.obj
 0002:00053640       __isblank_l                004af640 f i LIBCMTD:_ctype.obj
 0002:00053700       __iscntrl_l                004af700 f i LIBCMTD:_ctype.obj
 0002:000537a0       __iscsym_l                 004af7a0 f i LIBCMTD:_ctype.obj
 0002:000537f0       __iscsymf_l                004af7f0 f i LIBCMTD:_ctype.obj
 0002:00053840       __isdigit_l                004af840 f i LIBCMTD:_ctype.obj
 0002:000538e0       __isgraph_l                004af8e0 f i LIBCMTD:_ctype.obj
 0002:00053980       __islower_l                004af980 f i LIBCMTD:_ctype.obj
 0002:00053a20       __isprint_l                004afa20 f i LIBCMTD:_ctype.obj
 0002:00053ac0       __ispunct_l                004afac0 f i LIBCMTD:_ctype.obj
 0002:00053b60       __isspace_l                004afb60 f i LIBCMTD:_ctype.obj
 0002:00053c00       __isupper_l                004afc00 f i LIBCMTD:_ctype.obj
 0002:00053ca0       __isxdigit_l               004afca0 f i LIBCMTD:_ctype.obj
 0002:00053d40       _isalnum                   004afd40 f i LIBCMTD:_ctype.obj
 0002:00053d80       _isalpha                   004afd80 f i LIBCMTD:_ctype.obj
 0002:00053dc0       _isblank                   004afdc0 f i LIBCMTD:_ctype.obj
 0002:00053e20       _iscntrl                   004afe20 f i LIBCMTD:_ctype.obj
 0002:00053e60       _isdigit                   004afe60 f i LIBCMTD:_ctype.obj
 0002:00053ea0       _isgraph                   004afea0 f i LIBCMTD:_ctype.obj
 0002:00053ee0       _islower                   004afee0 f i LIBCMTD:_ctype.obj
 0002:00053f20       _isprint                   004aff20 f i LIBCMTD:_ctype.obj
 0002:00053f60       _ispunct                   004aff60 f i LIBCMTD:_ctype.obj
 0002:00053fa0       _isspace                   004affa0 f i LIBCMTD:_ctype.obj
 0002:00053fe0       _isupper                   004affe0 f i LIBCMTD:_ctype.obj
 0002:00054020       _isxdigit                  004b0020 f i LIBCMTD:_ctype.obj
 0002:00054060       __setjmp3                  004b0060 f   LIBCMTD:setjmp3.obj
 0002:00054100       ___raise_securityfailure   004b0100 f   LIBCMTD:gs_report.obj
 0002:00054160       ___report_gsfailure        004b0160 f   LIBCMTD:gs_report.obj
 0002:000542b0       ___report_rangecheckfailure 004b02b0 f   LIBCMTD:gs_report.obj
 0002:000542c0       ___report_securityfailure  004b02c0 f   LIBCMTD:gs_report.obj
 0002:000543d0       ___report_securityfailureEx 004b03d0 f   LIBCMTD:gs_report.obj
 0002:00054540       _memmove                   004b0540 f   LIBCMTD:memmove.obj
 0002:00054d20       _strtok                    004b0d20 f   LIBCMTD:strtok.obj
 0002:00054ee0       __atoi64                   004b0ee0 f   LIBCMTD:atox.obj
 0002:00054f00       __atoi64_l                 004b0f00 f   LIBCMTD:atox.obj
 0002:00054f20       __atoi_l                   004b0f20 f   LIBCMTD:atox.obj
 0002:00054f40       __atol_l                   004b0f40 f   LIBCMTD:atox.obj
 0002:00054f60       __atoll_l                  004b0f60 f   LIBCMTD:atox.obj
 0002:00054f80       _atoi                      004b0f80 f   LIBCMTD:atox.obj
 0002:00054fa0       _atol                      004b0fa0 f   LIBCMTD:atox.obj
 0002:00054fc0       _atoll                     004b0fc0 f   LIBCMTD:atox.obj
 0002:00054fe0       __fpmath                   004b0fe0 f   LIBCMTD:fpinit.obj
 0002:00055000       ___setfflag                004b1000 f   LIBCMTD:fpinit.obj
 0002:00055030       __cfltcvt_init             004b1030 f   LIBCMTD:fpinit.obj
 0002:00055120       _strncpy                   004b1120 f   LIBCMTD:strncpy.obj
 0002:00055290       _cos                       004b1290 f   LIBCMTD:cos.obj
 0002:000552d0       __CIcos                    004b12d0 f   LIBCMTD:cos.obj
 0002:0005530b       __CIcos_default            004b130b f   LIBCMTD:cos.obj
 0002:0005531f       __cos_default              004b131f     LIBCMTD:cos.obj
 0002:00055410       _strcmp                    004b1410 f   LIBCMTD:strcmp.obj
 0002:000554c0       _strncmp                   004b14c0 f   LIBCMTD:strncmp.obj
 0002:00055560       _memchr                    004b1560 f   LIBCMTD:memchr.obj
 0002:00055640       _strchr                    004b1640 f   LIBCMTD:strchr.obj
 0002:000556ae       ___from_strstr_to_strchr   004b16ae     LIBCMTD:strchr.obj
 0002:000557c0       __strnicmp                 004b17c0 f   LIBCMTD:strnicmp.obj
 0002:00055a00       __strnicmp_l               004b1a00 f   LIBCMTD:strnicmp.obj
 0002:00055d30       _strcpy                    004b1d30 f   LIBCMTD:strcat.obj
 0002:00055d40       _strcat                    004b1d40 f   LIBCMTD:strcat.obj
 0002:00055e70       __vsnprintf                004b1e70 f   LIBCMTD:vsnprint.obj
 0002:00055ea0       __vsnprintf_l              004b1ea0 f   LIBCMTD:vsnprint.obj
 0002:000560f0       __alloca_probe             004b20f0 f   LIBCMTD:chkstk.obj
 0002:000560f0       __chkstk                   004b20f0 f   LIBCMTD:chkstk.obj
 0002:00056130       _free                      004b2130 f   LIBCMTD:dbgfree.obj
 0002:00056150       _malloc                    004b2150 f   LIBCMTD:dbgmalloc.obj
 0002:00056390       _memcmp                    004b2390 f   LIBCMTD:memcmp.obj
 0002:00056e90       __allshl                   004b2e90 f   LIBCMTD:llshl.obj
 0002:00056ec0       __allshr                   004b2ec0 f   LIBCMTD:llshr.obj
 0002:00056ef0       _longjmp                   004b2ef0 f   LIBCMTD:longjmp.obj
 0002:00056fd0       _fmod                      004b2fd0 f   LIBCMTD:87fmod.obj
 0002:00056fda       __CIfmod                   004b2fda f   LIBCMTD:87fmod.obj
 0002:00057000       __ftoui3                   004b3000 f   LIBCMTD:ftol3.obj
 0002:0005700f       __ftoul3                   004b300f f   LIBCMTD:ftol3.obj
 0002:0005701e       __ftol3                    004b301e f   LIBCMTD:ftol3.obj
 0002:0005702b       __ftol3_NaN                004b302b f   LIBCMTD:ftol3.obj
 0002:00057043       __ftol3_work               004b3043 f   LIBCMTD:ftol3.obj
 0002:000570c9       __ftol3_common             004b30c9 f   LIBCMTD:ftol3.obj
 0002:0005718b       __ftol3_arg_error          004b318b f   LIBCMTD:ftol3.obj
 0002:0005719d       __ftol3_except             004b319d f   LIBCMTD:ftol3.obj
 0002:000571e1       __dtoui3                   004b31e1 f   LIBCMTD:ftol3.obj
 0002:000571f0       __dtoul3                   004b31f0 f   LIBCMTD:ftol3.obj
 0002:000571ff       __dtol3                    004b31ff f   LIBCMTD:ftol3.obj
 0002:0005720c       __dtol3_NaN                004b320c f   LIBCMTD:ftol3.obj
 0002:00057229       __dtol3_work               004b3229 f   LIBCMTD:ftol3.obj
 0002:0005730e       __ultod3                   004b330e f   LIBCMTD:ftol3.obj
 0002:0005739f       __ltod3                    004b339f f   LIBCMTD:ftol3.obj
 0002:000574c0       _rand                      004b34c0 f   LIBCMTD:rand.obj
 0002:00057510       _srand                     004b3510 f   LIBCMTD:rand.obj
 0002:00057530       _calloc                    004b3530 f   LIBCMTD:dbgcalloc.obj
 0002:00057560       _exp                       004b3560 f   LIBCMTD:87ctran.obj
 0002:0005759c       __CIexp                    004b359c f   LIBCMTD:87ctran.obj
 0002:000575d7       __exp_default              004b35d7 f   LIBCMTD:87ctran.obj
 0002:000575e1       __CIexp_default            004b35e1 f   LIBCMTD:87ctran.obj
 0002:00057610       __CIsqrt                   004b3610 f   LIBCMTD:sqrt.obj
 0002:00057624       _sqrt                      004b3624     LIBCMTD:sqrt.obj
 0002:00057700       _fabs                      004b3700 f   LIBCMTD:fabs.obj
 0002:00057840       _log                       004b3840 f   LIBCMTD:log.obj
 0002:00057880       __CIlog                    004b3880 f   LIBCMTD:log.obj
 0002:000578bb       __CIlog_default            004b38bb f   LIBCMTD:log.obj
 0002:000578cf       __log_default              004b38cf     LIBCMTD:log.obj
 0002:000579f0       _pow                       004b39f0 f   LIBCMTD:pow.obj
 0002:00057a30       __CIpow                    004b3a30 f   LIBCMTD:pow.obj
 0002:00057a6b       __CIpow_default            004b3a6b f   LIBCMTD:pow.obj
 0002:00057a84       __pow_default              004b3a84     LIBCMTD:pow.obj
 0002:00057d20       _floor                     004b3d20 f   LIBCMTD:floor_pentium4.obj
 0002:00057d60       __floor_pentium4           004b3d60 f   LIBCMTD:floor_pentium4.obj
 0002:00057e90       __ftol2_sse                004b3e90 f   LIBCMTD:ftol2.obj
 0002:00057e99       __ftol2_pentium4           004b3e99 f   LIBCMTD:ftol2.obj
 0002:00057eac       __ftol2_sse_excpt          004b3eac f   LIBCMTD:ftol2.obj
 0002:00057ec6       __ftol2                    004b3ec6 f   LIBCMTD:ftol2.obj
 0002:00057f70       _atan                      004b3f70 f   LIBCMTD:atan.obj
 0002:00057fb0       __CIatan                   004b3fb0 f   LIBCMTD:atan.obj
 0002:00057feb       __CIatan_default           004b3feb f   LIBCMTD:atan.obj
 0002:00057fff       __atan_default             004b3fff     LIBCMTD:atan.obj
 0002:000580d0       _sin                       004b40d0 f   LIBCMTD:sin.obj
 0002:00058110       __CIsin                    004b4110 f   LIBCMTD:sin.obj
 0002:0005814b       __CIsin_default            004b414b f   LIBCMTD:sin.obj
 0002:0005815f       __sin_default              004b415f     LIBCMTD:sin.obj
 0002:00058250       ___copy_path_to_wide_string 004b4250 f   LIBCMTD:crt0dat.obj
 0002:000584b0       ___copy_to_char            004b44b0 f   LIBCMTD:crt0dat.obj
 0002:00058720       ___crtCorExitProcess       004b4720 f   LIBCMTD:crt0dat.obj
 0002:00058770       ___crtExitProcess          004b4770 f   LIBCMTD:crt0dat.obj
 0002:000587a0       ___freeCrtMemory           004b47a0 f   LIBCMTD:crt0dat.obj
 0002:000589e0       __amsg_exit                004b49e0 f   LIBCMTD:crt0dat.obj
 0002:00058a10       __c_exit                   004b4a10 f   LIBCMTD:crt0dat.obj
 0002:00058a30       __cexit                    004b4a30 f   LIBCMTD:crt0dat.obj
 0002:00058a50       __cinit                    004b4a50 f   LIBCMTD:crt0dat.obj
 0002:00058b20       __exit                     004b4b20 f   LIBCMTD:crt0dat.obj
 0002:00058b40       __exit_app                 004b4b40 f   LIBCMTD:crt0dat.obj
 0002:00058b60       __get_pgmptr               004b4b60 f   LIBCMTD:crt0dat.obj
 0002:00058cc0       __get_wpgmptr              004b4cc0 f   LIBCMTD:crt0dat.obj
 0002:00058e20       __init_pointers            004b4e20 f   LIBCMTD:crt0dat.obj
 0002:00058ed0       __initterm_e               004b4ed0 f   LIBCMTD:crt0dat.obj
 0002:00058f20       __lockexit                 004b4f20 f   LIBCMTD:crt0dat.obj
 0002:00058f40       __unlockexit               004b4f40 f   LIBCMTD:crt0dat.obj
 0002:000591c0       _exit                      004b51c0 f   LIBCMTD:crt0dat.obj
 0002:000591e0       __aullshr                  004b51e0 f   LIBCMTD:ullshr.obj
 0002:00059210       ___inittime                004b5210 f   LIBCMTD:clock.obj
 0002:00059260       _clock                     004b5260 f   LIBCMTD:clock.obj
 0002:000592e0       __aullrem                  004b52e0 f   LIBCMTD:ullrem.obj
 0002:00059380       __fcloseall                004b5380 f   LIBCMTD:closeall.obj
 0002:000594f0       __fflush_nolock            004b54f0 f   LIBCMTD:fflush.obj
 0002:00059580       __flush                    004b5580 f   LIBCMTD:fflush.obj
 0002:00059670       __flushall                 004b5670 f   LIBCMTD:fflush.obj
 0002:00059690       _fflush                    004b5690 f   LIBCMTD:fflush.obj
 0002:00059970       __lock                     004b5970 f   LIBCMTD:mlock.obj
 0002:000599c0       __lockerr_exit             004b59c0 f   LIBCMTD:mlock.obj
 0002:000599f0       __mtdeletelocks            004b59f0 f   LIBCMTD:mlock.obj
 0002:00059ae0       __mtinitlocknum            004b5ae0 f   LIBCMTD:mlock.obj
 0002:00059c50       __mtinitlocks              004b5c50 f   LIBCMTD:mlock.obj
 0002:00059cf0       __unlock                   004b5cf0 f   LIBCMTD:mlock.obj
 0002:0005a2c0       __CrtCheckMemory           004b62c0 f   LIBCMTD:dbgheap.obj
 0002:0005a830       __CrtDoForAllClientObjects 004b6830 f   LIBCMTD:dbgheap.obj
 0002:0005a9b0       __CrtDumpMemoryLeaks       004b69b0 f   LIBCMTD:dbgheap.obj
 0002:0005aa70       __CrtGetAllocHook          004b6a70 f   LIBCMTD:dbgheap.obj
 0002:0005aa80       __CrtGetCheckCount         004b6a80 f   LIBCMTD:dbgheap.obj
 0002:0005aa90       __CrtGetDumpClient         004b6a90 f   LIBCMTD:dbgheap.obj
 0002:0005aaa0       __CrtIsMemoryBlock         004b6aa0 f   LIBCMTD:dbgheap.obj
 0002:0005ac70       __CrtIsValidHeapPointer    004b6c70 f   LIBCMTD:dbgheap.obj
 0002:0005acc0       __CrtIsValidPointer        004b6cc0 f   LIBCMTD:dbgheap.obj
 0002:0005acf0       __CrtMemCheckpoint         004b6cf0 f   LIBCMTD:dbgheap.obj
 0002:0005afb0       __CrtMemDifference         004b6fb0 f   LIBCMTD:dbgheap.obj
 0002:0005b2a0       __CrtMemDumpAllObjectsSince 004b72a0 f   LIBCMTD:dbgheap.obj
 0002:0005b2f0       __CrtMemDumpStatistics     004b72f0 f   LIBCMTD:dbgheap.obj
 0002:0005b460       __CrtReportBlockType       004b7460 f   LIBCMTD:dbgheap.obj
 0002:0005b4a0       __CrtSetAllocHook          004b74a0 f   LIBCMTD:dbgheap.obj
 0002:0005b4d0       __CrtSetBreakAlloc         004b74d0 f   LIBCMTD:dbgheap.obj
 0002:0005b500       __CrtSetCheckCount         004b7500 f   LIBCMTD:dbgheap.obj
 0002:0005b520       __CrtSetDbgBlockType       004b7520 f   LIBCMTD:dbgheap.obj
 0002:0005b640       __CrtSetDbgFlag            004b7640 f   LIBCMTD:dbgheap.obj
 0002:0005b7e0       __CrtSetDebugFillThreshold 004b77e0 f   LIBCMTD:dbgheap.obj
 0002:0005b810       __CrtSetDumpClient         004b7810 f   LIBCMTD:dbgheap.obj
 0002:0005b840       __aligned_free             004b7840 f   LIBCMTD:dbgheap.obj
 0002:0005b860       __aligned_free_dbg         004b7860 f   LIBCMTD:dbgheap.obj
 0002:0005b940       __aligned_malloc           004b7940 f   LIBCMTD:dbgheap.obj
 0002:0005b970       __aligned_malloc_dbg       004b7970 f   LIBCMTD:dbgheap.obj
 0002:0005b9a0       __aligned_msize            004b79a0 f   LIBCMTD:dbgheap.obj
 0002:0005b9c0       __aligned_msize_dbg        004b79c0 f   LIBCMTD:dbgheap.obj
 0002:0005bb30       __aligned_offset_malloc    004b7b30 f   LIBCMTD:dbgheap.obj
 0002:0005bb60       __aligned_offset_malloc_dbg 004b7b60 f   LIBCMTD:dbgheap.obj
 0002:0005bdb0       __aligned_offset_realloc   004b7db0 f   LIBCMTD:dbgheap.obj
 0002:0005bde0       __aligned_offset_realloc_dbg 004b7de0 f   LIBCMTD:dbgheap.obj
 0002:0005c1b0       __aligned_offset_recalloc  004b81b0 f   LIBCMTD:dbgheap.obj
 0002:0005c1e0       __aligned_offset_recalloc_dbg 004b81e0 f   LIBCMTD:dbgheap.obj
 0002:0005c2d0       __aligned_realloc          004b82d0 f   LIBCMTD:dbgheap.obj
 0002:0005c300       __aligned_realloc_dbg      004b8300 f   LIBCMTD:dbgheap.obj
 0002:0005c330       __aligned_recalloc         004b8330 f   LIBCMTD:dbgheap.obj
 0002:0005c360       __aligned_recalloc_dbg     004b8360 f   LIBCMTD:dbgheap.obj
 0002:0005c390       __calloc_dbg               004b8390 f   LIBCMTD:dbgheap.obj
 0002:0005c400       __calloc_dbg_impl          004b8400 f   LIBCMTD:dbgheap.obj
 0002:0005c4a0       __expand                   004b84a0 f   LIBCMTD:dbgheap.obj
 0002:0005c4d0       __expand_dbg               004b84d0 f   LIBCMTD:dbgheap.obj
 0002:0005c640       __free_dbg                 004b8640 f   LIBCMTD:dbgheap.obj
 0002:0005c6e0       __free_dbg_nolock          004b86e0 f   LIBCMTD:dbgheap.obj
 0002:0005cd20       __free_nolock              004b8d20 f   LIBCMTD:dbgheap.obj
 0002:0005cd40       __heap_alloc               004b8d40 f   LIBCMTD:dbgheap.obj
 0002:0005cd60       __heap_alloc_dbg           004b8d60 f   LIBCMTD:dbgheap.obj
 0002:0005d280       __invoke_watson_if_oneof   004b9280 f i LIBCMTD:dbgheap.obj
 0002:0005d2d0       __malloc_dbg               004b92d0 f   LIBCMTD:dbgheap.obj
 0002:0005d310       __msize                    004b9310 f   LIBCMTD:dbgheap.obj
 0002:0005d330       __msize_dbg                004b9330 f   LIBCMTD:dbgheap.obj
 0002:0005d5d0       __nh_malloc                004b95d0 f   LIBCMTD:dbgheap.obj
 0002:0005d600       __nh_malloc_dbg            004b9600 f   LIBCMTD:dbgheap.obj
 0002:0005d920       __realloc_dbg              004b9920 f   LIBCMTD:dbgheap.obj
 0002:0005d9e0       __recalloc                 004b99e0 f   LIBCMTD:dbgheap.obj
 0002:0005da20       __recalloc_dbg             004b9a20 f   LIBCMTD:dbgheap.obj
 0002:0005e290       ?_invalid_parameter@@YAXPBG00II@Z 004ba290 f   LIBCMTD:invarg.obj
 0002:0005e2c0       ?_invoke_watson@@YAXPBG00II@Z 004ba2c0 f   LIBCMTD:invarg.obj
 0002:0005e2f0       __call_reportfault         004ba2f0 f   LIBCMTD:invarg.obj
 0002:0005e4a0       __get_invalid_parameter_handler 004ba4a0 f   LIBCMTD:invarg.obj
 0002:0005e4d0       __initp_misc_invarg        004ba4d0 f   LIBCMTD:invarg.obj
 0002:0005e4e0       __invalid_parameter        004ba4e0 f   LIBCMTD:invarg.obj
 0002:0005e550       __invoke_watson            004ba550 f   LIBCMTD:invarg.obj
 0002:0005e5a0       __set_invalid_parameter_handler 004ba5a0 f   LIBCMTD:invarg.obj
 0002:0005e5f0       __filbuf                   004ba5f0 f   LIBCMTD:_filbuf.obj
 0002:0005e900       __fileno                   004ba900 f   LIBCMTD:fileno.obj
 0002:0005e9b0       ?_CrtDbgReportW@@YAHHPBGH00ZZ 004ba9b0 f   LIBCMTD:dbgrptw.obj
 0002:0005ea10       __CrtDbgReportW            004baa10 f   LIBCMTD:dbgrptw.obj
 0002:0005ea70       __CrtDbgReportWV           004baa70 f i LIBCMTD:dbgrptw.obj
 0002:0005eab0       __CrtSetReportHookW2       004baab0 f   LIBCMTD:dbgrptw.obj
 0002:0005eed0       ___crtMessageWindowW       004baed0 f   LIBCMTD:dbgrptw.obj
 0002:0005f4a0       ___doserrno                004bb4a0 f   LIBCMTD:dosmap.obj
 0002:0005f4d0       __dosmaperr                004bb4d0 f   LIBCMTD:dosmap.obj
 0002:0005f500       __errno                    004bb500 f   LIBCMTD:dosmap.obj
 0002:0005f530       __get_doserrno             004bb530 f   LIBCMTD:dosmap.obj
 0002:0005f5e0       __get_errno                004bb5e0 f   LIBCMTD:dosmap.obj
 0002:0005f690       __get_errno_from_oserr     004bb690 f   LIBCMTD:dosmap.obj
 0002:0005f720       __set_doserrno             004bb720 f   LIBCMTD:dosmap.obj
 0002:0005f760       __set_errno                004bb760 f   LIBCMTD:dosmap.obj
 0002:0005f820       __except_handler4          004bb820 f   LIBCMTD:chandler4.obj
 0002:0005fa50       __ioinit                   004bba50 f   LIBCMTD:ioinit.obj
 0002:00060070       __ioterm                   004bc070 f   LIBCMTD:ioinit.obj
 0002:00060140       __vprintf_l                004bc140 f   LIBCMTD:vprintf.obj
 0002:00060170       __vprintf_p                004bc170 f   LIBCMTD:vprintf.obj
 0002:000601a0       __vprintf_p_l              004bc1a0 f   LIBCMTD:vprintf.obj
 0002:000601d0       __vprintf_s_l              004bc1d0 f   LIBCMTD:vprintf.obj
 0002:00060200       _vprintf                   004bc200 f   LIBCMTD:vprintf.obj
 0002:00060230       _vprintf_helper            004bc230 f   LIBCMTD:vprintf.obj
 0002:000603c0       _vprintf_s                 004bc3c0 f   LIBCMTD:vprintf.obj
 0002:000603f0       __ftbuf                    004bc3f0 f   LIBCMTD:_sftbuf.obj
 0002:000604a0       __stbuf                    004bc4a0 f   LIBCMTD:_sftbuf.obj
 0002:00060670       __output_l                 004bc670 f   LIBCMTD:output.obj
 0002:000622c0       _get_int64_arg             004be2c0 f i LIBCMTD:output.obj
 0002:000622f0       _get_int_arg               004be2f0 f i LIBCMTD:output.obj
 0002:00062310       _get_short_arg             004be310 f i LIBCMTD:output.obj
 0002:00062540       __flsbuf                   004be540 f   LIBCMTD:_flsbuf.obj
 0002:000628d0       __fwrite_nolock            004be8d0 f   LIBCMTD:fwrite.obj
 0002:00062de0       _fwrite                    004bede0 f   LIBCMTD:fwrite.obj
 0002:00062f50       ___addlocaleref            004bef50 f   LIBCMTD:localref.obj
 0002:000630c0       ___freetlocinfo            004bf0c0 f   LIBCMTD:localref.obj
 0002:00063470       ___removelocaleref         004bf470 f   LIBCMTD:localref.obj
 0002:000635e0       ___updatetlocinfo          004bf5e0 f   LIBCMTD:localref.obj
 0002:000636e0       __updatetlocinfoEx_nolock  004bf6e0 f   LIBCMTD:localref.obj
 0002:00063780       ___initmbctable            004bf780 f   LIBCMTD:mbctype.obj
 0002:00063f10       ___updatetmbcinfo          004bff10 f   LIBCMTD:mbctype.obj
 0002:00064070       __getmbcp                  004c0070 f   LIBCMTD:mbctype.obj
 0002:00064100       __setmbcp                  004c0100 f   LIBCMTD:mbctype.obj
 0002:00064440       __setmbcp_nolock           004c0440 f   LIBCMTD:mbctype.obj
 0002:000648a0       __chvalidator              004c08a0 f   LIBCMTD:isctype.obj
 0002:00064900       __chvalidator_l            004c0900 f   LIBCMTD:isctype.obj
 0002:000649f0       __isctype                  004c09f0 f   LIBCMTD:isctype.obj
 0002:00064a40       __isctype_l                004c0a40 f   LIBCMTD:isctype.obj
 0002:00064bf0       ___get_flsindex            004c0bf0 f   LIBCMTD:tidtable.obj
 0002:00064c00       ___threadhandle            004c0c00 f   LIBCMTD:tidtable.obj
 0002:00064c10       ___threadid                004c0c10 f   LIBCMTD:tidtable.obj
 0002:00064c20       __freefls@4                004c0c20 f   LIBCMTD:tidtable.obj
 0002:00064ea0       __freeptd                  004c0ea0 f   LIBCMTD:tidtable.obj
 0002:00064ef0       __getptd                   004c0ef0 f   LIBCMTD:tidtable.obj
 0002:00064f20       __getptd_noexit            004c0f20 f   LIBCMTD:tidtable.obj
 0002:00065000       __initptd                  004c1000 f   LIBCMTD:tidtable.obj
 0002:00065190       __mtinit                   004c1190 f   LIBCMTD:tidtable.obj
 0002:00065270       __mtterm                   004c1270 f   LIBCMTD:tidtable.obj
 0002:000653f0       ?_CallCatchBlock2@@YAPAXPAUEHRegistrationNode@@PBU_s_FuncInfo@@PAXHK@Z 004c13f0 f   LIBCMTD:_trnsctrl_.obj
 0002:00065480       ?_CallMemberFunction0@@YGXPAX0@Z 004c1480 f   LIBCMTD:_trnsctrl_.obj
 0002:00065490       ?_CallMemberFunction1@@YGXPAX00@Z 004c1490 f   LIBCMTD:_trnsctrl_.obj
 0002:000654a0       ?_CallMemberFunction2@@YGXPAX00H@Z 004c14a0 f   LIBCMTD:_trnsctrl_.obj
 0002:000654b0       ?_CallSETranslator@@YAHPAUEHExceptionRecord@@PAUEHRegistrationNode@@PAX2PBU_s_FuncInfo@@H1@Z 004c14b0 f   LIBCMTD:_trnsctrl_.obj
 0002:000655e0       ?_GetRangeOfTrysToCheck@@YAPBU_s_TryBlockMapEntry@@PBU_s_FuncInfo@@HHPAI1@Z 004c15e0 f   LIBCMTD:_trnsctrl_.obj
 0002:00065690       ?_JumpToContinuation@@YGXPAXPAUEHRegistrationNode@@@Z 004c1690 f   LIBCMTD:_trnsctrl_.obj
 0002:000656d0       ?_UnwindNestedFrames@@YGXPAUEHRegistrationNode@@PAUEHExceptionRecord@@@Z 004c16d0 f   LIBCMTD:_trnsctrl_.obj
 0002:00065740       __CreateFrameInfo          004c1740 f   LIBCMTD:_trnsctrl_.obj
 0002:00065780       __FindAndUnlinkFrame       004c1780 f   LIBCMTD:_trnsctrl_.obj
 0002:000657f0       __IsExceptionObjectToBeDestroyed 004c17f0 f   LIBCMTD:_trnsctrl_.obj
 0002:00065830       ___CxxFrameHandler         004c1830 f   LIBCMTD:_trnsctrl_.obj
 0002:00065880       ___CxxFrameHandler2        004c1880 f   LIBCMTD:_trnsctrl_.obj
 0002:000658d0       ___CxxFrameHandler3        004c18d0 f   LIBCMTD:_trnsctrl_.obj
 0002:00065920       ___CxxLongjmpUnwind@4      004c1920 f   LIBCMTD:_trnsctrl_.obj
 0002:00065960       ___init_dummy              004c1960 f   LIBCMTD:wsetloca.obj
 0002:00065970       __locterm                  004c1970 f   LIBCMTD:wsetloca.obj
 0002:00065a30       ____setlc_active_func      004c1a30 f   LIBCMTD:wsetloca.obj
 0002:00065a40       ____unguarded_readlc_active_add_func 004c1a40 f   LIBCMTD:wsetloca.obj
 0002:00065a50       ___copy_locale_name        004c1a50 f   LIBCMTD:wsetloca.obj
 0002:00065b20       ___create_locale           004c1b20 f   LIBCMTD:wsetloca.obj
 0002:00065b40       ___free_locale             004c1b40 f   LIBCMTD:wsetloca.obj
 0002:00065b60       ___get_current_locale      004c1b60 f   LIBCMTD:wsetloca.obj
 0002:00065b70       ___lc_lctowcs              004c1b70 f   LIBCMTD:wsetloca.obj
 0002:00065c50       ___lc_wcstolc              004c1c50 f   LIBCMTD:wsetloca.obj
 0002:00065f00       __configthreadlocale       004c1f00 f   LIBCMTD:wsetloca.obj
 0002:000660b0       __create_locale            004c20b0 f   LIBCMTD:wsetloca.obj
 0002:00066140       __expandlocale             004c2140 f   LIBCMTD:wsetloca.obj
 0002:00066770       __free_locale              004c2770 f   LIBCMTD:wsetloca.obj
 0002:000668e0       __get_current_locale       004c28e0 f   LIBCMTD:wsetloca.obj
 0002:00066a40       __wcreate_locale           004c2a40 f   LIBCMTD:wsetloca.obj
 0002:00066ca0       __wcscats                  004c2ca0 f   LIBCMTD:wsetloca.obj
 0002:00066d30       __wsetlocale               004c2d30 f   LIBCMTD:wsetloca.obj
 0002:000681e0       _memcpy_s                  004c41e0 f   LIBCMTD:memcpy_s.obj
 0002:00068420       _wcscat_s                  004c4420 f   LIBCMTD:wcscat_s.obj
 0002:00068930       _wcscpy_s                  004c4930 f   LIBCMTD:wcscpy_s.obj
 0002:00068d00       _wcslen                    004c4d00 f   LIBCMTD:wcslen.obj
 0002:00068d50       _wcsncat_s                 004c4d50 f   LIBCMTD:wcsncat_s.obj
 0002:00069370       __set_abort_behavior       004c5370 f   LIBCMTD:abort.obj
 0002:000693b0       _abort                     004c53b0 f   LIBCMTD:abort.obj
 0002:00069440       ___set_app_type            004c5440 f   LIBCMTD:errmode.obj
 0002:00069450       __set_error_mode           004c5450 f   LIBCMTD:errmode.obj
 0002:00069a90       __i64tow_s                 004c5a90 f   LIBCMTD:xtows.obj
 0002:00069af0       __itow_s                   004c5af0 f   LIBCMTD:xtows.obj
 0002:00069b60       __ltow_s                   004c5b60 f   LIBCMTD:xtows.obj
 0002:00069bb0       __ui64tow_s                004c5bb0 f   LIBCMTD:xtows.obj
 0002:00069be0       __ultow_s                  004c5be0 f   LIBCMTD:xtows.obj
 0002:0006a110       _setvbuf                   004c6110 f   LIBCMTD:setvbuf.obj
 0002:0006a4c0       __fwprintf_l               004c64c0 f   LIBCMTD:fwprintf.obj
 0002:0006a4f0       __fwprintf_p               004c64f0 f   LIBCMTD:fwprintf.obj
 0002:0006a520       __fwprintf_p_l             004c6520 f   LIBCMTD:fwprintf.obj
 0002:0006a550       __fwprintf_s_l             004c6550 f   LIBCMTD:fwprintf.obj
 0002:0006a580       _fwprintf                  004c6580 f   LIBCMTD:fwprintf.obj
 0002:0006a7a0       _fwprintf_s                004c67a0 f   LIBCMTD:fwprintf.obj
 0002:0006a7d0       __vsnwprintf_s             004c67d0 f   LIBCMTD:vswprnc.obj
 0002:0006a800       __vsnwprintf_s_l           004c6800 f   LIBCMTD:vswprnc.obj
 0002:0006acd0       __vswprintf_c              004c6cd0 f   LIBCMTD:vswprnc.obj
 0002:0006ad30       __vswprintf_c_l            004c6d30 f   LIBCMTD:vswprnc.obj
 0002:0006ad90       __vswprintf_helper         004c6d90 f   LIBCMTD:vswprnc.obj
 0002:0006b0a0       __vswprintf_p              004c70a0 f   LIBCMTD:vswprnc.obj
 0002:0006b100       __vswprintf_p_l            004c7100 f   LIBCMTD:vswprnc.obj
 0002:0006b160       __vswprintf_s_l            004c7160 f   LIBCMTD:vswprnc.obj
 0002:0006b490       _vswprintf_s               004c7490 f   LIBCMTD:vswprnc.obj
 0002:0006b4c0       ___fpecode                 004c74c0 f   LIBCMTD:winsig.obj
 0002:0006b4d0       ___get_sigabrt             004c74d0 f   LIBCMTD:winsig.obj
 0002:0006b4f0       ___pxcptinfoptrs           004c74f0 f   LIBCMTD:winsig.obj
 0002:0006b500       __initp_misc_winsig        004c7500 f   LIBCMTD:winsig.obj
 0002:0006b670       _raise                     004c7670 f   LIBCMTD:winsig.obj
 0002:0006bae0       _signal                    004c7ae0 f   LIBCMTD:winsig.obj
 0002:0006bf80       ___crtMessageBoxW          004c7f80 f   LIBCMTD:crtmboxw.obj
 0002:0006c360       ___crtMessageBoxWaitThreadW@4 004c8360 f   LIBCMTD:crtmboxw.obj
 0002:0006c3b0       __FF_MSGBANNER             004c83b0 f   LIBCMTD:crt0msg.obj
 0002:0006c410       __GET_RTERRMSG             004c8410 f   LIBCMTD:crt0msg.obj
 0002:0006c460       __NMSG_WRITE               004c8460 f   LIBCMTD:crt0msg.obj
 0002:0006c910       ?__CxxUnhandledExceptionFilter@@YGJPAU_EXCEPTION_POINTERS@@@Z 004c8910 f   LIBCMTD:unhandld.obj
 0002:0006c990       ___CxxSetUnhandledExceptionFilter 004c8990 f   LIBCMTD:unhandld.obj
 0002:0006c9b0       __XcptFilter               004c89b0 f   LIBCMTD:winxfltr.obj
 0002:0006cc30       ___CppXcptFilter           004c8c30 f   LIBCMTD:winxfltr.obj
 0002:0006ccd0       __get_heap_handle          004c8cd0 f   LIBCMTD:heapinit.obj
 0002:0006cd20       __heap_init                004c8d20 f   LIBCMTD:heapinit.obj
 0002:0006cd50       __heap_term                004c8d50 f   LIBCMTD:heapinit.obj
 0002:0006cd70       __set_pgmptr               004c8d70 f i LIBCMTD:stdargv.obj
 0002:0006cd80       __setargv                  004c8d80 f   LIBCMTD:stdargv.obj
 0002:0006d380       __setenvp                  004c9380 f   LIBCMTD:stdenvp.obj
 0002:0006d580       ___security_init_cookie    004c9580 f   LIBCMTD:gs_support.obj
 0002:0006d6a0       __RTC_Initialize           004c96a0 f   LIBCMTD:initsect.obj
 0002:0006d6d0       __RTC_Terminate            004c96d0 f   LIBCMTD:initsect.obj
 0002:0006d700       ___crtGetEnvironmentStringsA 004c9700 f   LIBCMTD:a_env.obj
 0002:0006d840       __VEC_memset               004c9840 f   LIBCMTD:p4_memset.obj
 0002:0006d940       ___isa_available_init      004c9940 f   LIBCMTD:cpu_disp.obj
 0002:0006dc90       __vscprintf                004c9c90 f   LIBCMTD:vsprintf.obj
 0002:0006dcc0       __vscprintf_helper         004c9cc0 f   LIBCMTD:vsprintf.obj
 0002:0006ddf0       __vscprintf_l              004c9df0 f   LIBCMTD:vsprintf.obj
 0002:0006de20       __vscprintf_p              004c9e20 f   LIBCMTD:vsprintf.obj
 0002:0006de50       __vscprintf_p_l            004c9e50 f   LIBCMTD:vsprintf.obj
 0002:0006de80       __vsprintf_l               004c9e80 f   LIBCMTD:vsprintf.obj
 0002:0006e0b0       _vsprintf                  004ca0b0 f   LIBCMTD:vsprintf.obj
 0002:0006e0e0       __vsnprintf_c              004ca0e0 f   LIBCMTD:vsnprnc.obj
 0002:0006e140       __vsnprintf_c_l            004ca140 f   LIBCMTD:vsnprnc.obj
 0002:0006e1a0       __vsnprintf_helper         004ca1a0 f   LIBCMTD:vsnprnc.obj
 0002:0006e420       __vsnprintf_s              004ca420 f   LIBCMTD:vsnprnc.obj
 0002:0006e450       __vsnprintf_s_l            004ca450 f   LIBCMTD:vsnprnc.obj
 0002:0006e900       __vsprintf_p               004ca900 f   LIBCMTD:vsnprnc.obj
 0002:0006e960       __vsprintf_p_l             004ca960 f   LIBCMTD:vsnprnc.obj
 0002:0006e9c0       __vsprintf_s_l             004ca9c0 f   LIBCMTD:vsnprnc.obj
 0002:0006ecf0       _vsprintf_s                004cacf0 f   LIBCMTD:vsnprnc.obj
 0002:0006ed20       __tolower                  004cad20 f   LIBCMTD:tolower.obj
 0002:0006ed30       __tolower_l                004cad30 f   LIBCMTD:tolower.obj
 0002:0006f000       _tolower                   004cb000 f   LIBCMTD:tolower.obj
 0002:0006f060       __global_unwind2           004cb060 f   LIBCMTD:exsup.obj
 0002:0006f0c5       __local_unwind2            004cb0c5 f   LIBCMTD:exsup.obj
 0002:0006f149       __abnormal_termination     004cb149 f   LIBCMTD:exsup.obj
 0002:0006f16c       __NLG_Notify1              004cb16c f   LIBCMTD:exsup.obj
 0002:0006f175       __NLG_Notify               004cb175 f   LIBCMTD:exsup.obj
 0002:0006f18c       __NLG_Dispatch             004cb18c     LIBCMTD:exsup.obj
 0002:0006f18c       __NLG_Dispatch2            004cb18c     LIBCMTD:exsup.obj
 0002:0006f194       __NLG_Call                 004cb194 f   LIBCMTD:exsup.obj
 0002:0006f196       __NLG_Return2              004cb196     LIBCMTD:exsup.obj
 0002:0006f1f0       __CrtDefaultAllocHook      004cb1f0 f   LIBCMTD:dbghook.obj
 0002:0006f200       __crt_debugger_hook        004cb200 f   LIBCMTD:dbghook.obj
 0002:0006f280       ___crtCloseThreadpoolTimer 004cb280 f   LIBCMTD:winapisupp.obj
 0002:0006f2c0       ___crtCloseThreadpoolWait  004cb2c0 f   LIBCMTD:winapisupp.obj
 0002:0006f300       ___crtCreateEventExW       004cb300 f   LIBCMTD:winapisupp.obj
 0002:0006f370       ___crtCreateSemaphoreExW   004cb370 f   LIBCMTD:winapisupp.obj
 0002:0006f3e0       ___crtCreateSymbolicLinkW  004cb3e0 f   LIBCMTD:winapisupp.obj
 0002:0006f430       ___crtCreateThreadpoolTimer 004cb430 f   LIBCMTD:winapisupp.obj
 0002:0006f480       ___crtCreateThreadpoolWait 004cb480 f   LIBCMTD:winapisupp.obj
 0002:0006f4d0       ___crtFlsAlloc             004cb4d0 f   LIBCMTD:winapisupp.obj
 0002:0006f510       ___crtFlsFree              004cb510 f   LIBCMTD:winapisupp.obj
 0002:0006f560       ___crtFlsGetValue          004cb560 f   LIBCMTD:winapisupp.obj
 0002:0006f5a0       ___crtFlsSetValue          004cb5a0 f   LIBCMTD:winapisupp.obj
 0002:0006f5f0       ___crtFlushProcessWriteBuffers 004cb5f0 f   LIBCMTD:winapisupp.obj
 0002:0006f620       ___crtFreeLibraryWhenCallbackReturns 004cb620 f   LIBCMTD:winapisupp.obj
 0002:0006f660       ___crtGetCurrentProcessorNumber 004cb660 f   LIBCMTD:winapisupp.obj
 0002:0006f6a0       ___crtGetFileInformationByHandleEx 004cb6a0 f   LIBCMTD:winapisupp.obj
 0002:0006f6f0       ___crtGetLogicalProcessorInformation 004cb6f0 f   LIBCMTD:winapisupp.obj
 0002:0006f740       ___crtGetShowWindowMode    004cb740 f   LIBCMTD:winapisupp.obj
 0002:0006f780       ___crtGetTickCount64       004cb780 f   LIBCMTD:winapisupp.obj
 0002:0006f7c0       ___crtInitializeCriticalSectionEx 004cb7c0 f   LIBCMTD:winapisupp.obj
 0002:0006f820       ___crtIsPackagedApp        004cb820 f   LIBCMTD:winapisupp.obj
 0002:0006f870       ___crtLoadWinApiPointers   004cb870 f   LIBCMTD:winapisupp.obj
 0002:0006fe30       ___crtSetFileInformationByHandle 004cbe30 f   LIBCMTD:winapisupp.obj
 0002:0006fe80       ___crtSetThreadStackGuarantee 004cbe80 f   LIBCMTD:winapisupp.obj
 0002:0006fec0       ___crtSetThreadpoolTimer   004cbec0 f   LIBCMTD:winapisupp.obj
 0002:0006ff10       ___crtSetThreadpoolWait    004cbf10 f   LIBCMTD:winapisupp.obj
 0002:0006ff50       ___crtSetUnhandledExceptionFilter 004cbf50 f   LIBCMTD:winapisupp.obj
 0002:0006ff70       ___crtSleep                004cbf70 f   LIBCMTD:winapisupp.obj
 0002:0006ff90       ___crtTerminateProcess     004cbf90 f   LIBCMTD:winapisupp.obj
 0002:0006ffb0       ___crtUnhandledException   004cbfb0 f   LIBCMTD:winapisupp.obj
 0002:0006ffd0       ___crtWaitForThreadpoolTimerCallbacks 004cbfd0 f   LIBCMTD:winapisupp.obj
 0002:00070690       __strtof_l                 004cc690 f   LIBCMTD:strtoq.obj
 0002:000706c0       __strtoi64                 004cc6c0 f   LIBCMTD:strtoq.obj
 0002:00070720       __strtoi64_l               004cc720 f   LIBCMTD:strtoq.obj
 0002:00070750       __strtoimax_l              004cc750 f   LIBCMTD:strtoq.obj
 0002:00070780       __strtold_l                004cc780 f   LIBCMTD:strtoq.obj
 0002:000707a0       __strtoll_l                004cc7a0 f   LIBCMTD:strtoq.obj
 0002:000707d0       __strtoui64                004cc7d0 f   LIBCMTD:strtoq.obj
 0002:00070830       __strtoui64_l              004cc830 f   LIBCMTD:strtoq.obj
 0002:00070860       __strtoull_l               004cc860 f   LIBCMTD:strtoq.obj
 0002:00070890       __strtoumax_l              004cc890 f   LIBCMTD:strtoq.obj
 0002:000708c0       _strtof                    004cc8c0 f   LIBCMTD:strtoq.obj
 0002:000708f0       _strtoimax                 004cc8f0 f   LIBCMTD:strtoq.obj
 0002:00070910       _strtold                   004cc910 f   LIBCMTD:strtoq.obj
 0002:00070930       _strtoll                   004cc930 f   LIBCMTD:strtoq.obj
 0002:00070950       _strtoull                  004cc950 f   LIBCMTD:strtoq.obj
 0002:00070970       _strtoumax                 004cc970 f   LIBCMTD:strtoq.obj
 0002:00070990       ?strrchr@@YAPADPADH@Z      004cc990 f i LIBCMTD:cvt.obj
 0002:000709b0       __cfltcvt                  004cc9b0 f   LIBCMTD:cvt.obj
 0002:000709e0       __cfltcvt_l                004cc9e0 f   LIBCMTD:cvt.obj
 0002:00070ad0       __cftoa                    004ccad0 f   LIBCMTD:cvt.obj
 0002:00070b00       __cftoa_l                  004ccb00 f   LIBCMTD:cvt.obj
 0002:00071580       __cftoe                    004cd580 f   LIBCMTD:cvt.obj
 0002:00071ac0       __cftoe_l                  004cdac0 f   LIBCMTD:cvt.obj
 0002:00071d80       __cftof                    004cdd80 f   LIBCMTD:cvt.obj
 0002:000720f0       __cftof_l                  004ce0f0 f   LIBCMTD:cvt.obj
 0002:00072370       __cftog                    004ce370 f   LIBCMTD:cvt.obj
 0002:000723a0       __cftog_l                  004ce3a0 f   LIBCMTD:cvt.obj
 0002:000726d0       __cropzeros                004ce6d0 f   LIBCMTD:cvt.obj
 0002:000726f0       __cropzeros_l              004ce6f0 f   LIBCMTD:cvt.obj
 0002:00072850       __fassign                  004ce850 f   LIBCMTD:cvt.obj
 0002:00072880       __fassign_l                004ce880 f   LIBCMTD:cvt.obj
 0002:000728f0       __forcdecpt                004ce8f0 f   LIBCMTD:cvt.obj
 0002:00072910       __forcdecpt_l              004ce910 f   LIBCMTD:cvt.obj
 0002:00072a10       __positive                 004cea10 f   LIBCMTD:cvt.obj
 0002:00072a90       __setdefaultprecision      004cea90 f   LIBCMTD:fp8.obj
 0002:00072ae0       __initp_misc_cfltcvt_tab   004ceae0 f   LIBCMTD:cmiscdat.obj
 0002:00072b30       __sse2_mathfcns_init       004ceb30 f   LIBCMTD:mathfcns.obj
 0002:00072b50       __set_SSE2_enable          004ceb50 f   LIBCMTD:mathfcns.obj
 0002:00072bb0       __CIcos_pentium4           004cebb0 f   LIBCMTD:cos_pentium4.obj
 0002:00072bc8       __cos_pentium4             004cebc8     LIBCMTD:cos_pentium4.obj
 0002:00072dd0       __trandisp1                004cedd0 f   LIBCMTD:87disp.obj
 0002:00072e37       __trandisp2                004cee37 f   LIBCMTD:87disp.obj
 0002:00072ec3       __rttospopde               004ceec3     LIBCMTD:87disp.obj
 0002:00072ec8       __rttospop                 004ceec8     LIBCMTD:87disp.obj
 0002:00072eca       __rtnospop                 004ceeca     LIBCMTD:87disp.obj
 0002:00072ecc       __rttosnpop                004ceecc     LIBCMTD:87disp.obj
 0002:00072ecd       __rtnospopde               004ceecd     LIBCMTD:87disp.obj
 0002:00072ed4       __rtzeropop                004ceed4     LIBCMTD:87disp.obj
 0002:00072ed6       __rtzeronpop               004ceed6     LIBCMTD:87disp.obj
 0002:00072edb       __rtonepop                 004ceedb     LIBCMTD:87disp.obj
 0002:00072edd       __rtonenpop                004ceedd     LIBCMTD:87disp.obj
 0002:00072ee2       __tosnan1                  004ceee2     LIBCMTD:87disp.obj
 0002:00072f0d       __nosnan2                  004cef0d     LIBCMTD:87disp.obj
 0002:00072f0f       __tosnan2                  004cef0f     LIBCMTD:87disp.obj
 0002:00072f37       __nan2                     004cef37     LIBCMTD:87disp.obj
 0002:00072f76       __rtindfpop                004cef76     LIBCMTD:87disp.obj
 0002:00072f78       __rtindfnpop               004cef78     LIBCMTD:87disp.obj
 0002:00072f89       __rttosnpopde              004cef89     LIBCMTD:87disp.obj
 0002:00072f93       __rtchsifneg               004cef93     LIBCMTD:87disp.obj
 0002:00073010       __twoToTOS                 004cf010 f   LIBCMTD:common.obj
 0002:00073025       __load_CW                  004cf025 f   LIBCMTD:common.obj
 0002:0007303c       __convertTOStoQNaN         004cf03c f   LIBCMTD:common.obj
 0002:00073055       __fload_withFB             004cf055 f   LIBCMTD:common.obj
 0002:00073098       __checkTOS_withFB          004cf098 f   LIBCMTD:common.obj
 0002:000730ae       __fast_exit                004cf0ae f   LIBCMTD:common.obj
 0002:000730bb       __math_exit                004cf0bb f   LIBCMTD:common.obj
 0002:000730e5       __check_overflow_exit      004cf0e5 f   LIBCMTD:common.obj
 0002:000730f9       __check_range_exit         004cf0f9 f   LIBCMTD:common.obj
 0002:00073200       __startTwoArgErrorHandling 004cf200 f   LIBCMTD:genexcep.obj
 0002:00073217       __startOneArgErrorHandling 004cf217 f   LIBCMTD:genexcep.obj
 0002:00073270       ___ascii_strnicmp          004cf270 f   LIBCMTD:_strnicm.obj
 0002:000732f0       __rt_probe_read4@4         004cf2f0 f   LIBCMTD:sehsupp.obj
 0002:000733c0       __cintrindisp2             004cf3c0 f   LIBCMTD:87cdisp.obj
 0002:000733fe       __cintrindisp1             004cf3fe f   LIBCMTD:87cdisp.obj
 0002:0007343b       __ctrandisp2               004cf43b f   LIBCMTD:87cdisp.obj
 0002:000735ca       __ctrandisp1               004cf5ca f   LIBCMTD:87cdisp.obj
 0002:000735fd       __fload                    004cf5fd f   LIBCMTD:87cdisp.obj
 0002:000736e0       __errcode                  004cf6e0 f   LIBCMTD:fpexcept.obj
 0002:00073760       __except1                  004cf760 f   LIBCMTD:fpexcept.obj
 0002:000738a0       __except2                  004cf8a0 f   LIBCMTD:fpexcept.obj
 0002:00073a40       __handle_exc               004cfa40 f   LIBCMTD:fpexcept.obj
 0002:00073e20       __handle_qnan1             004cfe20 f   LIBCMTD:fpexcept.obj
 0002:00073ea0       __handle_qnan2             004cfea0 f   LIBCMTD:fpexcept.obj
 0002:00073f30       __raise_exc                004cff30 f   LIBCMTD:fpexcept.obj
 0002:00073f60       __raise_exc_ex             004cff60 f   LIBCMTD:fpexcept.obj
 0002:00074640       __raise_excf               004d0640 f   LIBCMTD:fpexcept.obj
 0002:00074670       __set_errno_from_matherr   004d0670 f   LIBCMTD:fpexcept.obj
 0002:000746c0       __umatherr                 004d06c0 f   LIBCMTD:fpexcept.obj
 0002:00074790       __CIexp_pentium4           004d0790 f   LIBCMTD:exp_pentium4.obj
 0002:000747a8       __exp_pentium4             004d07a8     LIBCMTD:exp_pentium4.obj
 0002:00074b11       __fFEXP                    004d0b11     LIBCMTD:87tran.obj
 0002:00074b68       __rtinfpopse               004d0b68     LIBCMTD:87tran.obj
 0002:00074b6a       __rtinfnpopse              004d0b6a     LIBCMTD:87tran.obj
 0002:00074b7a       __fFLN                     004d0b7a     LIBCMTD:87tran.obj
 0002:00074c2f       __rtinfpop                 004d0c2f     LIBCMTD:87tran.obj
 0002:00074c31       __rtinfnpop                004d0c31     LIBCMTD:87tran.obj
 0002:00074c4e       __ffexpm1                  004d0c4e     LIBCMTD:87tran.obj
 0002:00074d80       __add_exp                  004d0d80 f   LIBCMTD:util.obj
 0002:00074dc0       __decomp                   004d0dc0 f   LIBCMTD:util.obj
 0002:00074f30       __get_exp                  004d0f30 f   LIBCMTD:util.obj
 0002:00074f70       __set_bexp                 004d0f70 f   LIBCMTD:util.obj
 0002:00074fb0       __set_exp                  004d0fb0 f   LIBCMTD:util.obj
 0002:00075000       __sptype                   004d1000 f   LIBCMTD:util.obj
 0002:00075090       ___clrfp_sse2              004d1090 f   LIBCMTD:fpctrl.obj
 0002:000750d0       ___ctrlfp_sse2             004d10d0 f   LIBCMTD:fpctrl.obj
 0002:00075140       ___fclrf_sse2              004d1140 f   LIBCMTD:fpctrl.obj
 0002:00075170       ___get_fpsr_sse2           004d1170 f   LIBCMTD:fpctrl.obj
 0002:000751a0       ___set_fpsr_sse2           004d11a0 f   LIBCMTD:fpctrl.obj
 0002:000752b0       ___set_statfp_sse2         004d12b0 f   LIBCMTD:fpctrl.obj
 0002:000752f0       ___statfp_sse2             004d12f0 f   LIBCMTD:fpctrl.obj
 0002:00075330       __clrfp                    004d1330 f   LIBCMTD:fpctrl.obj
 0002:00075350       __ctrlfp                   004d1350 f   LIBCMTD:fpctrl.obj
 0002:00075390       __set_statfp               004d1390 f   LIBCMTD:fpctrl.obj
 0002:00075410       __statfp                   004d1410 f   LIBCMTD:fpctrl.obj
 0002:00075430       __CIlog_pentium4           004d1430 f   LIBCMTD:log_pentium4.obj
 0002:00075448       __log_pentium4             004d1448     LIBCMTD:log_pentium4.obj
 0002:00075740       __CIpow_pentium4           004d1740 f   LIBCMTD:pow_pentium4.obj
 0002:00075759       __pow_pentium4             004d1759     LIBCMTD:pow_pentium4.obj
 0002:00076580       __d_inttype                004d2580 f   LIBCMTD:powhlp.obj
 0002:00076630       __powhlp                   004d2630 f   LIBCMTD:powhlp.obj
 0002:00076840       ___libm_error_support      004d2840 f   LIBCMTD:libm_error.obj
 0002:00077710       ___libm_setusermatherr     004d3710 f   LIBCMTD:libm_error.obj
 0002:00077750       __floor_default            004d3750 f   LIBCMTD:floor.obj
 0002:000778e0       __CIatan_pentium4          004d38e0 f   LIBCMTD:atan_pentium4.obj
 0002:000778f8       __atan_pentium4            004d38f8     LIBCMTD:atan_pentium4.obj
 0002:00077c90       __CIsin_pentium4           004d3c90 f   LIBCMTD:sin_pentium4.obj
 0002:00077ca8       __sin_pentium4             004d3ca8     LIBCMTD:sin_pentium4.obj
 0002:00077ed0       __FindPESection            004d3ed0 f   LIBCMTD:pesect.obj
 0002:00077f60       __IsNonwritableInCurrentImage 004d3f60 f   LIBCMTD:pesect.obj
 0002:000780e0       __ValidateImageBase        004d40e0 f   LIBCMTD:pesect.obj
 0002:00078160       ___onexitinit              004d4160 f   LIBCMTD:onexit.obj
 0002:000781d0       __onexit                   004d41d0 f   LIBCMTD:onexit.obj
 0002:00078400       _atexit                    004d4400 f   LIBCMTD:onexit.obj
 0002:00078440       ?_inconsistency@@YAXXZ     004d4440 f   LIBCMTD:hooks.obj
 0002:000784f0       ?terminate@@YAXXZ          004d44f0 f   LIBCMTD:hooks.obj
 0002:00078590       ?unexpected@@YAXXZ         004d4590 f   LIBCMTD:hooks.obj
 0002:000785c0       __initp_eh_hooks           004d45c0 f   LIBCMTD:hooks.obj
 0002:000785e0       ?_query_new_handler@@YAP6AHI@ZXZ 004d45e0 f   LIBCMTD:handler.obj
 0002:00078600       ?_set_new_handler@@YAP6AHI@ZH@Z 004d4600 f   LIBCMTD:handler.obj
 0002:00078650       ?_set_new_handler@@YAP6AHI@ZP6AHI@Z@Z 004d4650 f   LIBCMTD:handler.obj
 0002:000786a0       __callnewh                 004d46a0 f   LIBCMTD:handler.obj
 0002:000786f0       __initp_heap_handler       004d46f0 f   LIBCMTD:handler.obj
 0002:00078700       ___getlocaleinfo           004d4700 f   LIBCMTD:inithelp.obj
 0002:00078ac0       __initp_misc_purevirt      004d4ac0 f   LIBCMTD:inithelp.obj
 0002:00078ad0       __initp_misc_rand_s        004d4ad0 f   LIBCMTD:rand_s.obj
 0002:00078ae0       _rand_s                    004d4ae0 f   LIBCMTD:rand_s.obj
 0002:00078de0       __fclose_nolock            004d4de0 f   LIBCMTD:fclose.obj
 0002:00078f30       _fclose                    004d4f30 f   LIBCMTD:fclose.obj
 0002:00079090       __commit                   004d5090 f   LIBCMTD:commit.obj
 0002:00079360       __write                    004d5360 f   LIBCMTD:write.obj
 0002:00079640       __write_nolock             004d5640 f   LIBCMTD:write.obj
 0002:0007a750       __free_base                004d6750 f   LIBCMTD:free.obj
 0002:0007a7b0       __realloc_base             004d67b0 f   LIBCMTD:realloc.obj
 0002:0007a8f0       __expand_base              004d68f0 f   LIBCMTD:expand.obj
 0002:0007aab0       __CrtDbgReport             004d6ab0 f   LIBCMTD:dbgrpt.obj
 0002:0007ab10       __CrtDbgReportV            004d6b10 f i LIBCMTD:dbgrpt.obj
 0002:0007ab50       __CrtSetReportHook2        004d6b50 f   LIBCMTD:dbgrpt.obj
 0002:0007af70       ___crtMessageWindowA       004d6f70 f   LIBCMTD:dbgrpt.obj
 0002:0007b540       __heapchk                  004d7540 f   LIBCMTD:heapchk.obj
 0002:0007b580       __heapset                  004d7580 f   LIBCMTD:heapchk.obj
 0002:0007b590       __heap_alloc_base          004d7590 f i LIBCMTD:malloc.obj
 0002:0007b600       __malloc_base              004d7600 f   LIBCMTD:malloc.obj
 0002:0007b6b0       __read                     004d76b0 f   LIBCMTD:read.obj
 0002:0007ba40       __read_nolock              004d7a40 f   LIBCMTD:read.obj
 0002:0007d110       __getbuf                   004d9110 f   LIBCMTD:_getbuf.obj
 0002:0007d210       ___swprintf_l              004d9210 f   LIBCMTD:swprintf.obj
 0002:0007d240       __scwprintf                004d9240 f   LIBCMTD:swprintf.obj
 0002:0007d270       __scwprintf_l              004d9270 f   LIBCMTD:swprintf.obj
 0002:0007d2a0       __scwprintf_p              004d92a0 f   LIBCMTD:swprintf.obj
 0002:0007d2d0       __scwprintf_p_l            004d92d0 f   LIBCMTD:swprintf.obj
 0002:0007d300       __snwprintf_s              004d9300 f   LIBCMTD:swprintf.obj
 0002:0007d340       __snwprintf_s_l            004d9340 f   LIBCMTD:swprintf.obj
 0002:0007d380       __swprintf                 004d9380 f   LIBCMTD:swprintf.obj
 0002:0007d630       __swprintf_p               004d9630 f   LIBCMTD:swprintf.obj
 0002:0007d670       __swprintf_p_l             004d9670 f   LIBCMTD:swprintf.obj
 0002:0007d6b0       __swprintf_s_l             004d96b0 f   LIBCMTD:swprintf.obj
 0002:0007d6f0       _swprintf_s                004d96f0 f   LIBCMTD:swprintf.obj
 0002:0007d730       __CrtDbgBreak              004d9730 f   LIBCMTD:dbgrptt.obj
 0002:0007d740       __CrtGetReportHook         004d9740 f   LIBCMTD:dbgrptt.obj
 0002:0007d750       __CrtSetReportFile         004d9750 f   LIBCMTD:dbgrptt.obj
 0002:0007d890       __CrtSetReportHook         004d9890 f   LIBCMTD:dbgrptt.obj
 0002:0007d8c0       __CrtSetReportMode         004d98c0 f   LIBCMTD:dbgrptt.obj
 0002:0007da50       __VCrtDbgReportA           004d9a50 f   LIBCMTD:dbgrptt.obj
 0002:0007e4e0       __VCrtDbgReportW           004da4e0 f   LIBCMTD:dbgrptt.obj
 0002:0007f0b0       __local_unwind4            004db0b0 f   LIBCMTD:exsup4.obj
 0002:0007f186       __seh_longjmp_unwind4@4    004db186 f   LIBCMTD:exsup4.obj
 0002:0007f1a2       @_EH4_CallFilterFunc@8     004db1a2 f   LIBCMTD:exsup4.obj
 0002:0007f1b9       @_EH4_TransferToHandler@8  004db1b9 f   LIBCMTD:exsup4.obj
 0002:0007f1d2       @_EH4_GlobalUnwind2@8      004db1d2 f   LIBCMTD:exsup4.obj
 0002:0007f1eb       @_EH4_LocalUnwind@16       004db1eb f   LIBCMTD:exsup4.obj
 0002:0007f260       __output_s_l               004db260 f   LIBCMTD:outputs.obj
 0002:00081270       __output_p_l               004dd270 f   LIBCMTD:outputp.obj
 0002:00085ff0       __validate_param_reuseA    004e1ff0 f   LIBCMTD:outputp.obj
 0002:00086390       _get_crtdouble_arg         004e2390 f i LIBCMTD:outputp.obj
 0002:000865c0       __isatty                   004e25c0 f   LIBCMTD:isatty.obj
 0002:000866b0       ___iswcsym                 004e26b0 f i LIBCMTD:_wctype.obj
 0002:00086700       ___iswcsymf                004e2700 f i LIBCMTD:_wctype.obj
 0002:00086750       __isleadbyte_l             004e2750 f i LIBCMTD:_wctype.obj
 0002:000867b0       __iswalnum_l               004e27b0 f i LIBCMTD:_wctype.obj
 0002:000867d0       __iswalpha_l               004e27d0 f i LIBCMTD:_wctype.obj
 0002:000867f0       __iswblank_l               004e27f0 f i LIBCMTD:_wctype.obj
 0002:00086830       __iswcntrl_l               004e2830 f i LIBCMTD:_wctype.obj
 0002:00086850       __iswcsym_l                004e2850 f i LIBCMTD:_wctype.obj
 0002:000868a0       __iswcsymf_l               004e28a0 f i LIBCMTD:_wctype.obj
 0002:000868f0       __iswdigit_l               004e28f0 f i LIBCMTD:_wctype.obj
 0002:00086910       __iswgraph_l               004e2910 f i LIBCMTD:_wctype.obj
 0002:00086930       __iswlower_l               004e2930 f i LIBCMTD:_wctype.obj
 0002:00086950       __iswprint_l               004e2950 f i LIBCMTD:_wctype.obj
 0002:00086970       __iswpunct_l               004e2970 f i LIBCMTD:_wctype.obj
 0002:00086990       __iswspace_l               004e2990 f i LIBCMTD:_wctype.obj
 0002:000869b0       __iswupper_l               004e29b0 f i LIBCMTD:_wctype.obj
 0002:000869d0       __iswxdigit_l              004e29d0 f i LIBCMTD:_wctype.obj
 0002:000869f0       _isleadbyte                004e29f0 f i LIBCMTD:_wctype.obj
 0002:00086a10       _iswalnum                  004e2a10 f i LIBCMTD:_wctype.obj
 0002:00086a30       _iswalpha                  004e2a30 f i LIBCMTD:_wctype.obj
 0002:00086a50       _iswascii                  004e2a50 f i LIBCMTD:_wctype.obj
 0002:00086a80       _iswblank                  004e2a80 f i LIBCMTD:_wctype.obj
 0002:00086ac0       _iswcntrl                  004e2ac0 f i LIBCMTD:_wctype.obj
 0002:00086ae0       _iswdigit                  004e2ae0 f i LIBCMTD:_wctype.obj
 0002:00086b00       _iswgraph                  004e2b00 f i LIBCMTD:_wctype.obj
 0002:00086b20       _iswlower                  004e2b20 f i LIBCMTD:_wctype.obj
 0002:00086b40       _iswprint                  004e2b40 f i LIBCMTD:_wctype.obj
 0002:00086b60       _iswpunct                  004e2b60 f i LIBCMTD:_wctype.obj
 0002:00086b80       _iswspace                  004e2b80 f i LIBCMTD:_wctype.obj
 0002:00086ba0       _iswupper                  004e2ba0 f i LIBCMTD:_wctype.obj
 0002:00086bc0       _iswxdigit                 004e2bc0 f i LIBCMTD:_wctype.obj
 0002:00086be0       __wctomb_l                 004e2be0 f   LIBCMTD:wctomb.obj
 0002:00086c70       __wctomb_s_l               004e2c70 f   LIBCMTD:wctomb.obj
 0002:00087090       _wctomb                    004e3090 f   LIBCMTD:wctomb.obj
 0002:000870f0       _wctomb_s                  004e30f0 f   LIBCMTD:wctomb.obj
 0002:00087120       __lseeki64                 004e3120 f   LIBCMTD:lseeki64.obj
 0002:00087430       __lseeki64_nolock          004e3430 f   LIBCMTD:lseeki64.obj
 0002:00087530       ___free_lconv_mon          004e3530 f   LIBCMTD:initmon.obj
 0002:00087740       ___init_monetary           004e3740 f   LIBCMTD:initmon.obj
 0002:00087ed0       ___free_lconv_num          004e3ed0 f   LIBCMTD:initnum.obj
 0002:00087fb0       ___init_numeric            004e3fb0 f   LIBCMTD:initnum.obj
 0002:00088470       ___free_lc_time            004e4470 f   LIBCMTD:inittime.obj
 0002:00088ff0       ___init_time               004e4ff0 f   LIBCMTD:inittime.obj
 0002:0008a3f0       _localeconv                004e63f0 f   LIBCMTD:lconv.obj
 0002:0008a850       __MallocaIsSizeInRange     004e6850 f i LIBCMTD:a_map.obj
 0002:0008a880       __MarkAllocaS              004e6880 f i LIBCMTD:a_map.obj
 0002:0008a8b0       ___crtLCMapStringA         004e68b0 f   LIBCMTD:a_map.obj
 0002:0008a920       __freea                    004e6920 f i LIBCMTD:a_map.obj
 0002:0008ab30       ___crtGetStringTypeA       004e6b30 f   LIBCMTD:a_str.obj
 0002:0008ab90       __CallSettingFrame@12      004e6b90 f   LIBCMTD:lowhelpr.obj
 0002:0008abb7       __NLG_Return               004e6bb7     LIBCMTD:lowhelpr.obj
 0002:0008abf0       ___DestructExceptionObject 004e6bf0 f   LIBCMTD:frame.obj
 0002:0008ad60       ??0bad_exception@std@@QAE@ABV01@@Z 004e6d60 f i LIBCMTD:frame.obj
 0002:0008ad90       ??0bad_exception@std@@QAE@PBD@Z 004e6d90 f i LIBCMTD:frame.obj
 0002:0008adc0       ??1bad_exception@std@@UAE@XZ 004e6dc0 f i LIBCMTD:frame.obj
 0002:0008adf0       ??_Gbad_exception@std@@UAEPAXI@Z 004e6df0 f i LIBCMTD:frame.obj
 0002:0008adf0       ??_Ebad_exception@std@@UAEPAXI@Z 004e6df0 f i LIBCMTD:frame.obj
 0002:0008bce0       ?__uncaught_exception@@YA_NXZ 004e7ce0 f   LIBCMTD:frame.obj
 0002:0008bd20       ?_is_exception_typeof@@YAHABVtype_info@@PAU_EXCEPTION_POINTERS@@@Z 004e7d20 f   LIBCMTD:frame.obj
 0002:0008be30       __SetWinRTOutOfMemoryExceptionCallback 004e7e30 f   LIBCMTD:frame.obj
 0002:0008be40       ___AdjustPointer           004e7e40 f   LIBCMTD:frame.obj
 0002:0008bea0       ___BuildCatchObject        004e7ea0 f   LIBCMTD:frame.obj
 0002:0008bff0       ___BuildCatchObjectHelper  004e7ff0 f   LIBCMTD:frame.obj
 0002:0008c3a0       ___CxxDetectRethrow        004e83a0 f   LIBCMTD:frame.obj
 0002:0008c440       ___CxxExceptionFilter      004e8440 f   LIBCMTD:frame.obj
 0002:0008c6c0       ___CxxQueryExceptionSize   004e86c0 f   LIBCMTD:frame.obj
 0002:0008c6d0       ___CxxRegisterExceptionObject 004e86d0 f   LIBCMTD:frame.obj
 0002:0008c860       ___CxxUnregisterExceptionObject 004e8860 f   LIBCMTD:frame.obj
 0002:0008ca40       ___FrameUnwindFilter       004e8a40 f   LIBCMTD:frame.obj
 0002:0008cae0       ___FrameUnwindToState      004e8ae0 f   LIBCMTD:frame.obj
 0002:0008ccc0       ___GetPlatformExceptionInfo 004e8cc0 f   LIBCMTD:frame.obj
 0002:0008cda0       ___InternalCxxFrameHandler 004e8da0 f   LIBCMTD:frame.obj
 0002:0008cf70       ___TypeMatch               004e8f70 f   LIBCMTD:frame.obj
 0002:0008d080       ___pctype_func             004e9080 f   LIBCMTD:ctype.obj
 0002:0008d0e0       ___pwctype_func            004e90e0 f   LIBCMTD:ctype.obj
 0002:0008d0f0       ___init_collate            004e90f0 f   LIBCMTD:initcoll.obj
 0002:0008d100       ____lc_codepage_func       004e9100 f   LIBCMTD:initctyp.obj
 0002:0008d160       ____lc_collate_cp_func     004e9160 f   LIBCMTD:initctyp.obj
 0002:0008d1c0       ____lc_locale_name_func    004e91c0 f   LIBCMTD:initctyp.obj
 0002:0008d220       ____mb_cur_max_func        004e9220 f   LIBCMTD:initctyp.obj
 0002:0008d280       ____mb_cur_max_l_func      004e9280 f   LIBCMTD:initctyp.obj
 0002:0008d2b0       ___init_ctype              004e92b0 f   LIBCMTD:initctyp.obj
 0002:0008da70       _wcscmp                    004e9a70 f   LIBCMTD:wcscmp.obj
 0002:0008daf0       _wcscspn                   004e9af0 f   LIBCMTD:wcscspn.obj
 0002:0008db70       _wcsnlen                   004e9b70 f   LIBCMTD:wcslen_s.obj
 0002:0008dbc0       _wcsncmp                   004e9bc0 f   LIBCMTD:wcsncmp.obj
 0002:0008dc30       _wcsncpy_s                 004e9c30 f   LIBCMTD:wcsncpy_s.obj
 0002:0008e170       _wcspbrk                   004ea170 f   LIBCMTD:wcspbrk.obj
 0002:0008efa0       ___get_qualified_locale    004eafa0 f   LIBCMTD:getqloc.obj
 0002:00090340       ___get_qualified_locale_downlevel 004ec340 f   LIBCMTD:getqloc_downlevel.obj
 0002:000906c0       _GetTableIndexFromLcid     004ec6c0 f   LIBCMTD:winapinls.obj
 0002:00090740       _GetTableIndexFromLocaleName 004ec740 f   LIBCMTD:winapinls.obj
 0002:000907f0       ___crtCompareStringEx      004ec7f0 f   LIBCMTD:winapinls.obj
 0002:00090880       ___crtDownlevelLCIDToLocaleName 004ec880 f   LIBCMTD:winapinls.obj
 0002:00090980       ___crtDownlevelLocaleNameToLCID 004ec980 f   LIBCMTD:winapinls.obj
 0002:000909f0       ___crtEnumSystemLocalesEx  004ec9f0 f   LIBCMTD:winapinls.obj
 0002:00090a70       ___crtGetDateFormatEx      004eca70 f   LIBCMTD:winapinls.obj
 0002:00090af0       ___crtGetLocaleInfoEx      004ecaf0 f   LIBCMTD:winapinls.obj
 0002:00090b60       ___crtGetTimeFormatEx      004ecb60 f   LIBCMTD:winapinls.obj
 0002:00090be0       ___crtGetUserDefaultLocaleName 004ecbe0 f   LIBCMTD:winapinls.obj
 0002:00090c40       ___crtIsValidLocaleName    004ecc40 f   LIBCMTD:winapinls.obj
 0002:00090c90       ___crtLCMapStringEx        004ecc90 f   LIBCMTD:winapinls.obj
 0002:00090d20       ___wcsnicmp_ascii          004ecd20 f   LIBCMTD:winapinls.obj
 0002:00090e20       __freebuf                  004ece20 f   LIBCMTD:_freebuf.obj
 0002:00090ed0       __vfwprintf_l              004eced0 f   LIBCMTD:vfwprint.obj
 0002:00090f00       __vfwprintf_p              004ecf00 f   LIBCMTD:vfwprint.obj
 0002:00090f30       __vfwprintf_p_l            004ecf30 f   LIBCMTD:vfwprint.obj
 0002:00090f60       __vfwprintf_s_l            004ecf60 f   LIBCMTD:vfwprint.obj
 0002:00090f90       _vfwprintf                 004ecf90 f   LIBCMTD:vfwprint.obj
 0002:00090fc0       _vfwprintf_helper          004ecfc0 f   LIBCMTD:vfwprint.obj
 0002:000911d0       _vfwprintf_s               004ed1d0 f   LIBCMTD:vfwprint.obj
 0002:00091200       __woutput_l                004ed200 f   LIBCMTD:woutput.obj
 0002:00092d60       __woutput_s_l              004eed60 f   LIBCMTD:woutputs.obj
 0002:00094a80       __validate_param_reuseW    004f0a80 f   LIBCMTD:woutputp.obj
 0002:00094e20       __woutput_p_l              004f0e20 f   LIBCMTD:woutputp.obj
 0002:000998d0       __ismbbalnum               004f58d0 f   LIBCMTD:ismbbyte.obj
 0002:000998f0       __ismbbalnum_l             004f58f0 f   LIBCMTD:ismbbyte.obj
 0002:00099920       __ismbbalpha               004f5920 f   LIBCMTD:ismbbyte.obj
 0002:00099940       __ismbbalpha_l             004f5940 f   LIBCMTD:ismbbyte.obj
 0002:00099970       __ismbbblank               004f5970 f   LIBCMTD:ismbbyte.obj
 0002:000999b0       __ismbbblank_l             004f59b0 f   LIBCMTD:ismbbyte.obj
 0002:000999f0       __ismbbgraph               004f59f0 f   LIBCMTD:ismbbyte.obj
 0002:00099a10       __ismbbgraph_l             004f5a10 f   LIBCMTD:ismbbyte.obj
 0002:00099a40       __ismbbkalnum              004f5a40 f   LIBCMTD:ismbbyte.obj
 0002:00099a60       __ismbbkalnum_l            004f5a60 f   LIBCMTD:ismbbyte.obj
 0002:00099a80       __ismbbkana                004f5a80 f   LIBCMTD:ismbbyte.obj
 0002:00099aa0       __ismbbkana_l              004f5aa0 f   LIBCMTD:ismbbyte.obj
 0002:00099b30       __ismbbkprint              004f5b30 f   LIBCMTD:ismbbyte.obj
 0002:00099b50       __ismbbkprint_l            004f5b50 f   LIBCMTD:ismbbyte.obj
 0002:00099b70       __ismbbkpunct              004f5b70 f   LIBCMTD:ismbbyte.obj
 0002:00099b90       __ismbbkpunct_l            004f5b90 f   LIBCMTD:ismbbyte.obj
 0002:00099bb0       __ismbblead                004f5bb0 f   LIBCMTD:ismbbyte.obj
 0002:00099bd0       __ismbblead_l              004f5bd0 f   LIBCMTD:ismbbyte.obj
 0002:00099bf0       __ismbbprint               004f5bf0 f   LIBCMTD:ismbbyte.obj
 0002:00099c10       __ismbbprint_l             004f5c10 f   LIBCMTD:ismbbyte.obj
 0002:00099c40       __ismbbpunct               004f5c40 f   LIBCMTD:ismbbyte.obj
 0002:00099c60       __ismbbpunct_l             004f5c60 f   LIBCMTD:ismbbyte.obj
 0002:00099c80       __ismbbtrail               004f5c80 f   LIBCMTD:ismbbyte.obj
 0002:00099ca0       __ismbbtrail_l             004f5ca0 f   LIBCMTD:ismbbyte.obj
 0002:00099cc0       _strcpy_s                  004f5cc0 f   LIBCMTD:strcpy_s.obj
 0002:0009a080       __strtod_l                 004f6080 f   LIBCMTD:strtod.obj
 0002:0009a310       _strtod                    004f6310 f   LIBCMTD:strtod.obj
 0002:0009a330       ___crt_atoflt_l            004f6330 f   LIBCMTD:atodbl.obj
 0002:0009a480       __atodbl                   004f6480 f   LIBCMTD:atodbl.obj
 0002:0009a4a0       __atodbl_l                 004f64a0 f   LIBCMTD:atodbl.obj
 0002:0009a5e0       __atoflt                   004f65e0 f   LIBCMTD:atodbl.obj
 0002:0009a600       __atoflt_l                 004f6600 f   LIBCMTD:atodbl.obj
 0002:0009a630       __atoldbl                  004f6630 f   LIBCMTD:atodbl.obj
 0002:0009a650       __atoldbl_l                004f6650 f   LIBCMTD:atodbl.obj
 0002:0009a790       _strrchr                   004f6790 f   LIBCMTD:strrchr.obj
 0002:0009a920       __fptostr                  004f6920 f   LIBCMTD:_fptostr.obj
 0002:0009ad00       ___dtold                   004f6d00 f   LIBCMTD:cfout.obj
 0002:0009aec0       __fltout2                  004f6ec0 f   LIBCMTD:cfout.obj
 0002:0009afa0       __allrem                   004f6fa0 f   LIBCMTD:llrem.obj
 0002:0009b080       __get_output_format        004f7080 f   LIBCMTD:outputformat.obj
 0002:0009b090       __set_output_format        004f7090 f   LIBCMTD:outputformat.obj
 0002:0009b150       __controlfp_s              004f7150 f   LIBCMTD:contrlfp.obj
 0002:0009b270       __fptrap                   004f7270 f   LIBCMTD:crt0fp.obj
 0002:0009b290       __87except                 004f7290 f   LIBCMTD:87except.obj
 0002:0009b510       __matherr                  004f7510 f   LIBCMTD:matherr.obj
 0002:0009b520       __frnd                     004f7520 f   LIBCMTD:frnd.obj
 0002:0009b540       __chgsign                  004f7540 f   LIBCMTD:ieeemisc.obj
 0002:0009b580       __chgsignf                 004f7580 f   LIBCMTD:ieeemisc.obj
 0002:0009b5d0       __copysign                 004f75d0 f   LIBCMTD:ieeemisc.obj
 0002:0009b610       __copysignf                004f7610 f   LIBCMTD:ieeemisc.obj
 0002:0009b660       __finite                   004f7660 f   LIBCMTD:ieeemisc.obj
 0002:0009b690       __fpclass                  004f7690 f   LIBCMTD:ieeemisc.obj
 0002:0009b7c0       __isnan                    004f77c0 f   LIBCMTD:ieeemisc.obj
 0002:0009b810       __logb                     004f7810 f   LIBCMTD:ieeemisc.obj
 0002:0009b990       __nextafter                004f7990 f   LIBCMTD:ieeemisc.obj
 0002:0009bd80       __scalb                    004f7d80 f   LIBCMTD:ieeemisc.obj
 0002:0009bda0       _strncpy_s                 004f7da0 f   LIBCMTD:strncpy_s.obj
 0002:0009c440       ___crtGetLocaleInfoA       004f8440 f   LIBCMTD:a_loc.obj
 0002:0009c4a0       __close                    004f84a0 f   LIBCMTD:close.obj
 0002:0009c770       __close_nolock             004f8770 f   LIBCMTD:close.obj
 0002:0009c890       ___lock_fhandle            004f8890 f   LIBCMTD:osfinfo.obj
 0002:0009c9c0       __alloc_osfhnd             004f89c0 f   LIBCMTD:osfinfo.obj
 0002:0009cd10       __free_osfhnd              004f8d10 f   LIBCMTD:osfinfo.obj
 0002:0009ce30       __get_osfhandle            004f8e30 f   LIBCMTD:osfinfo.obj
 0002:0009d010       __open_osfhandle           004f9010 f   LIBCMTD:osfinfo.obj
 0002:0009d2c0       __set_osfhnd               004f92c0 f   LIBCMTD:osfinfo.obj
 0002:0009d3c0       __unlock_fhandle           004f93c0 f   LIBCMTD:osfinfo.obj
 0002:0009d3f0       __mbtowc_l                 004f93f0 f   LIBCMTD:mbtowc.obj
 0002:0009d6b0       _mbtowc                    004f96b0 f   LIBCMTD:mbtowc.obj
 0002:0009d6e0       __putwch                   004f96e0 f   LIBCMTD:putwch.obj
 0002:0009d790       __putwch_nolock            004f9790 f   LIBCMTD:putwch.obj
 0002:0009d800       ___vswprintf_l             004f9800 f   LIBCMTD:vswprint.obj
 0002:0009d830       __vscwprintf               004f9830 f   LIBCMTD:vswprint.obj
 0002:0009d860       __vscwprintf_helper        004f9860 f   LIBCMTD:vswprint.obj
 0002:0009d990       __vscwprintf_l             004f9990 f   LIBCMTD:vswprint.obj
 0002:0009d9c0       __vscwprintf_p             004f99c0 f   LIBCMTD:vswprint.obj
 0002:0009d9f0       __vscwprintf_p_l           004f99f0 f   LIBCMTD:vswprint.obj
 0002:0009da20       __vswprintf                004f9a20 f   LIBCMTD:vswprint.obj
 0002:0009da50       __vswprintf_l              004f9a50 f   LIBCMTD:vswprint.obj
 0002:0009dcf0       _strcat_s                  004f9cf0 f   LIBCMTD:strcat_s.obj
 0002:0009e730       __i64toa_s                 004fa730 f   LIBCMTD:xtoas.obj
 0002:0009e790       __itoa_s                   004fa790 f   LIBCMTD:xtoas.obj
 0002:0009e800       __ltoa_s                   004fa800 f   LIBCMTD:xtoas.obj
 0002:0009e850       __ui64toa_s                004fa850 f   LIBCMTD:xtoas.obj
 0002:0009e880       __ultoa_s                  004fa880 f   LIBCMTD:xtoas.obj
 0002:0009ed90       __mbstowcs_l               004fad90 f   LIBCMTD:mbstowcs.obj
 0002:0009edc0       __mbstowcs_l_helper        004fadc0 f   LIBCMTD:mbstowcs.obj
 0002:0009f230       __mbstowcs_s_l             004fb230 f   LIBCMTD:mbstowcs.obj
 0002:0009f6d0       _mbstowcs                  004fb6d0 f   LIBCMTD:mbstowcs.obj
 0002:0009f730       _mbstowcs_s                004fb730 f   LIBCMTD:mbstowcs.obj
 0002:0009f7d0       __wcstombs_l               004fb7d0 f   LIBCMTD:wcstombs.obj
 0002:0009f800       __wcstombs_l_helper        004fb800 f   LIBCMTD:wcstombs.obj
 0002:0009fe50       __wcstombs_s_l             004fbe50 f   LIBCMTD:wcstombs.obj
 0002:000a0290       _wcstombs                  004fc290 f   LIBCMTD:wcstombs.obj
 0002:000a02c0       _wcstombs_s                004fc2c0 f   LIBCMTD:wcstombs.obj
 0002:000a02f0       __iswctype_l               004fc2f0 f   LIBCMTD:iswctype.obj
 0002:000a0310       _is_wctype                 004fc310 f   LIBCMTD:iswctype.obj
 0002:000a0330       _iswctype                  004fc330 f   LIBCMTD:iswctype.obj
 0002:000a03b0       ??3@YAXPAX@Z               004fc3b0 f   LIBCMTD:dbgdel.obj
 0002:000a04e0       ?_ValidateExecute@@YAHP6GHXZ@Z 004fc4e0 f   LIBCMTD:validate.obj
 0002:000a0510       ?_ValidateRead@@YAHPBXI@Z  004fc510 f   LIBCMTD:validate.obj
 0002:000a0540       ?_ValidateWrite@@YAHPAXI@Z 004fc540 f   LIBCMTD:validate.obj
 0002:000a0570       ??0type_info@@AAE@ABV0@@Z  004fc570 f   LIBCMTD:typinfo.obj
 0002:000a0590       ??1type_info@@UAE@XZ       004fc590 f   LIBCMTD:typinfo.obj
 0002:000a05c0       ??4type_info@@AAEAAV0@ABV0@@Z 004fc5c0 f   LIBCMTD:typinfo.obj
 0002:000a05e0       ??8type_info@@QBE_NABV0@@Z 004fc5e0 f   LIBCMTD:typinfo.obj
 0002:000a0630       ??9type_info@@QBE_NABV0@@Z 004fc630 f   LIBCMTD:typinfo.obj
 0002:000a0680       ??_Gtype_info@@UAEPAXI@Z   004fc680 f i LIBCMTD:typinfo.obj
 0002:000a0680       ??_Etype_info@@UAEPAXI@Z   004fc680 f i LIBCMTD:typinfo.obj
 0002:000a06c0       ?_name_internal_method@type_info@@QBEPBDPAU__type_info_node@@@Z 004fc6c0 f   LIBCMTD:typinfo.obj
 0002:000a06f0       ?_type_info_dtor_internal_method@type_info@@QAEXXZ 004fc6f0 f   LIBCMTD:typinfo.obj
 0002:000a0710       ?before@type_info@@QBE_NABV1@@Z 004fc710 f   LIBCMTD:typinfo.obj
 0002:000a0760       ?name@type_info@@QBEPBDPAU__type_info_node@@@Z 004fc760 f   LIBCMTD:typinfo.obj
 0002:000a0790       ?raw_name@type_info@@QBEPBDXZ 004fc790 f   LIBCMTD:typinfo.obj
 0002:000a07b0       ??0__non_rtti_object@std@@QAE@ABV01@@Z 004fc7b0 f   LIBCMTD:stdexcpt.obj
 0002:000a07e0       ??0__non_rtti_object@std@@QAE@PBD@Z 004fc7e0 f   LIBCMTD:stdexcpt.obj
 0002:000a0810       ??0bad_cast@std@@QAE@ABV01@@Z 004fc810 f   LIBCMTD:stdexcpt.obj
 0002:000a0840       ??0bad_cast@std@@QAE@PBD@Z 004fc840 f   LIBCMTD:stdexcpt.obj
 0002:000a0870       ??0bad_typeid@std@@QAE@ABV01@@Z 004fc870 f   LIBCMTD:stdexcpt.obj
 0002:000a08a0       ??0bad_typeid@std@@QAE@PBD@Z 004fc8a0 f   LIBCMTD:stdexcpt.obj
 0002:000a08d0       ??0exception@std@@QAE@ABQBD@Z 004fc8d0 f   LIBCMTD:stdexcpt.obj
 0002:000a0920       ??0exception@std@@QAE@ABQBDH@Z 004fc920 f   LIBCMTD:stdexcpt.obj
 0002:000a0960       ??0exception@std@@QAE@ABV01@@Z 004fc960 f   LIBCMTD:stdexcpt.obj
 0002:000a09b0       ??0exception@std@@QAE@XZ   004fc9b0 f   LIBCMTD:stdexcpt.obj
 0002:000a09f0       ??1__non_rtti_object@std@@UAE@XZ 004fc9f0 f   LIBCMTD:stdexcpt.obj
 0002:000a0a20       ??1bad_cast@std@@UAE@XZ    004fca20 f   LIBCMTD:stdexcpt.obj
 0002:000a0a50       ??1bad_typeid@std@@UAE@XZ  004fca50 f   LIBCMTD:stdexcpt.obj
 0002:000a0a80       ??1exception@std@@UAE@XZ   004fca80 f   LIBCMTD:stdexcpt.obj
 0002:000a0ab0       ??4exception@std@@QAEAAV01@ABV01@@Z 004fcab0 f   LIBCMTD:stdexcpt.obj
 0002:000a0b10       ??_E__non_rtti_object@std@@UAEPAXI@Z 004fcb10 f i LIBCMTD:stdexcpt.obj
 0002:000a0b10       ??_G__non_rtti_object@std@@UAEPAXI@Z 004fcb10 f i LIBCMTD:stdexcpt.obj
 0002:000a0b50       ??_Gbad_cast@std@@UAEPAXI@Z 004fcb50 f i LIBCMTD:stdexcpt.obj
 0002:000a0b50       ??_Ebad_cast@std@@UAEPAXI@Z 004fcb50 f i LIBCMTD:stdexcpt.obj
 0002:000a0b90       ??_Ebad_typeid@std@@UAEPAXI@Z 004fcb90 f i LIBCMTD:stdexcpt.obj
 0002:000a0b90       ??_Gbad_typeid@std@@UAEPAXI@Z 004fcb90 f i LIBCMTD:stdexcpt.obj
 0002:000a0bd0       ??_Eexception@std@@UAEPAXI@Z 004fcbd0 f i LIBCMTD:stdexcpt.obj
 0002:000a0bd0       ??_Gexception@std@@UAEPAXI@Z 004fcbd0 f i LIBCMTD:stdexcpt.obj
 0002:000a0c10       ?_Copy_str@exception@std@@AAEXPBD@Z 004fcc10 f   LIBCMTD:stdexcpt.obj
 0002:000a0c90       ?_Tidy@exception@std@@AAEXXZ 004fcc90 f   LIBCMTD:stdexcpt.obj
 0002:000a0ce0       ?what@exception@std@@UBEPBDXZ 004fcce0 f   LIBCMTD:stdexcpt.obj
 0002:000a0d20       __CxxThrowException@8      004fcd20 f   LIBCMTD:throw.obj
 0002:000a0df0       __wtoi                     004fcdf0 f   LIBCMTD:wtox.obj
 0002:000a0e10       __wtoi64                   004fce10 f   LIBCMTD:wtox.obj
 0002:000a0e30       __wtoi64_l                 004fce30 f   LIBCMTD:wtox.obj
 0002:000a0e50       __wtoi_l                   004fce50 f   LIBCMTD:wtox.obj
 0002:000a0e70       __wtol                     004fce70 f   LIBCMTD:wtox.obj
 0002:000a0e90       __wtol_l                   004fce90 f   LIBCMTD:wtox.obj
 0002:000a0eb0       __wtoll                    004fceb0 f   LIBCMTD:wtox.obj
 0002:000a0ed0       __wtoll_l                  004fced0 f   LIBCMTD:wtox.obj
 0002:000a0ef0       _wcschr                    004fcef0 f   LIBCMTD:wcschr.obj
 0002:000a10d0       __wcsicmp                  004fd0d0 f   LIBCMTD:wcsicmp.obj
 0002:000a1310       __wcsicmp_l                004fd310 f   LIBCMTD:wcsicmp.obj
 0002:000a1610       __wcsnicmp                 004fd610 f   LIBCMTD:wcsnicmp.obj
 0002:000a1870       __wcsnicmp_l               004fd870 f   LIBCMTD:wcsnicmp.obj
 0002:000a1b70       __fputwc_nolock            004fdb70 f   LIBCMTD:fputwc.obj
 0002:000a1f20       _fputwc                    004fdf20 f   LIBCMTD:fputwc.obj
 0002:000a2070       _putwc                     004fe070 f   LIBCMTD:fputwc.obj
 0002:000a2540       __wcstol_l                 004fe540 f   LIBCMTD:wcstol.obj
 0002:000a2570       __wcstoul_l                004fe570 f   LIBCMTD:wcstol.obj
 0002:000a25a0       _wcstol                    004fe5a0 f   LIBCMTD:wcstol.obj
 0002:000a25d0       _wcstoul                   004fe5d0 f   LIBCMTD:wcstol.obj
 0002:000a2600       __fltin2                   004fe600 f   LIBCMTD:cfin.obj
 0002:000a2710       __CopyMan                  004fe710 f i LIBCMTD:intrncvt.obj
 0002:000a2770       __FillZeroMan              004fe770 f i LIBCMTD:intrncvt.obj
 0002:000a27b0       __IncMan                   004fe7b0 f i LIBCMTD:intrncvt.obj
 0002:000a2890       __IsZeroMan                004fe890 f i LIBCMTD:intrncvt.obj
 0002:000a28e0       __RoundMan                 004fe8e0 f i LIBCMTD:intrncvt.obj
 0002:000a29f0       __ShrMan                   004fe9f0 f i LIBCMTD:intrncvt.obj
 0002:000a2b20       __ZeroTail                 004feb20 f i LIBCMTD:intrncvt.obj
 0002:000a2bd0       ___addl                    004febd0 f i LIBCMTD:intrncvt.obj
 0002:000a2c20       __ld12cvt                  004fec20 f i LIBCMTD:intrncvt.obj
 0002:000a2f90       __ld12tod                  004fef90 f   LIBCMTD:intrncvt.obj
 0002:000a2fb0       __ld12tof                  004fefb0 f   LIBCMTD:intrncvt.obj
 0002:000a2fd0       __ld12told                 004fefd0 f   LIBCMTD:intrncvt.obj
 0002:000a3110       ___STRINGTOLD_L            004ff110 f   LIBCMTD:strgtold.obj
 0002:000a31a0       ___ld12mul                 004ff1a0 f i LIBCMTD:strgtold.obj
 0002:000a36b0       ___multtenpow12            004ff6b0 f i LIBCMTD:strgtold.obj
 0002:000a37c0       ___shl_12                  004ff7c0 f i LIBCMTD:strgtold.obj
 0002:000a3860       ___shr_12                  004ff860 f i LIBCMTD:strgtold.obj
 0002:000a3900       ___strgtold12_l            004ff900 f   LIBCMTD:strgtold.obj
 0002:000a46a0       _$I10_OUTPUT               005006a0 f   LIBCMTD:x10fout.obj
 0002:000a4e30       ___add_12                  00500e30 f i LIBCMTD:x10fout.obj
 0002:000a5190       ___control87_2             00501190 f   LIBCMTD:ieee87.obj
 0002:000a5740       __clearfp                  00501740 f   LIBCMTD:ieee87.obj
 0002:000a5790       __control87                00501790 f i LIBCMTD:ieee87.obj
 0002:000a5870       __controlfp                00501870 f   LIBCMTD:ieee87.obj
 0002:000a5890       __fpreset                  00501890 f   LIBCMTD:ieee87.obj
 0002:000a5ac0       __set_controlfp            00501ac0 f   LIBCMTD:ieee87.obj
 0002:000a5b70       __statusfp                 00501b70 f   LIBCMTD:ieee87.obj
 0002:000a5bc0       __statusfp2                00501bc0 f   LIBCMTD:ieee87.obj
 0002:000a5c10       _ldexp                     00501c10 f   LIBCMTD:ldexp.obj
 0002:000a5fb0       ___termconout              00501fb0 f   LIBCMTD:initcon.obj
 0002:000a5fe0       ___initconout              00501fe0 f   LIBCMTD:initcon.obj
 0002:000a6010       ?_Name_base@type_info@@CAPBDPBV1@PAU__type_info_node@@@Z 00502010 f   LIBCMTD:typname.obj
 0002:000a6220       ?_Name_base_internal@type_info@@CAPBDPBV1@PAU__type_info_node@@@Z 00502220 f   LIBCMTD:typname.obj
 0002:000a6450       ?_Type_info_dtor@type_info@@CAXPAV1@@Z 00502450 f   LIBCMTD:typname.obj
 0002:000a65a0       ?_Type_info_dtor_internal@type_info@@CAXPAV1@@Z 005025a0 f   LIBCMTD:typname.obj
 0002:000a6700       ___clean_type_info_names_internal 00502700 f   LIBCMTD:typname.obj
 0002:000a67e0       ___unDNameHelper           005027e0 f   LIBCMTD:typname.obj
 0002:000a6ed0       __wcstof_l                 00502ed0 f   LIBCMTD:wcstoq.obj
 0002:000a7020       __wcstoi64                 00503020 f   LIBCMTD:wcstoq.obj
 0002:000a7080       __wcstoi64_l               00503080 f   LIBCMTD:wcstoq.obj
 0002:000a70b0       __wcstoimax_l              005030b0 f   LIBCMTD:wcstoq.obj
 0002:000a70e0       __wcstold_l                005030e0 f   LIBCMTD:wcstoq.obj
 0002:000a7100       __wcstoll_l                00503100 f   LIBCMTD:wcstoq.obj
 0002:000a7130       __wcstoui64                00503130 f   LIBCMTD:wcstoq.obj
 0002:000a7190       __wcstoui64_l              00503190 f   LIBCMTD:wcstoq.obj
 0002:000a71c0       __wcstoull_l               005031c0 f   LIBCMTD:wcstoq.obj
 0002:000a71f0       __wcstoumax_l              005031f0 f   LIBCMTD:wcstoq.obj
 0002:000a7220       _wcstof                    00503220 f   LIBCMTD:wcstoq.obj
 0002:000a7240       _wcstoimax                 00503240 f   LIBCMTD:wcstoq.obj
 0002:000a7260       _wcstold                   00503260 f   LIBCMTD:wcstoq.obj
 0002:000a7280       _wcstoll                   00503280 f   LIBCMTD:wcstoq.obj
 0002:000a72a0       _wcstoull                  005032a0 f   LIBCMTD:wcstoq.obj
 0002:000a72c0       _wcstoumax                 005032c0 f   LIBCMTD:wcstoq.obj
 0002:000a72e0       __towlower_l               005032e0 f   LIBCMTD:towlower.obj
 0002:000a7480       _towlower                  00503480 f   LIBCMTD:towlower.obj
 0002:000a74a0       __flswbuf                  005034a0 f   LIBCMTD:_flswbuf.obj
 0002:000a7850       __wchartodigit             00503850 f   LIBCMTD:wchtodig.obj
 0002:000a7c40       ___mtold12                 00503c40 f   LIBCMTD:mantold.obj
 0002:000a7df0       ??0Block@_HeapManager@@QAE@XZ 00503df0 f i LIBCMTD:undname.obj
 0002:000a7e10       ??0DName@@QAE@AAPBDD@Z     00503e10 f   LIBCMTD:undname.obj
 0002:000a8180       ??0DName@@QAE@ABV0@@Z      00504180 f i LIBCMTD:undname.obj
 0002:000a81b0       ??0DName@@QAE@D@Z          005041b0 f   LIBCMTD:undname.obj
 0002:000a82c0       ??0DName@@QAE@PAV0@@Z      005042c0 f   LIBCMTD:undname.obj
 0002:000a8440       ??0DName@@QAE@PBD@Z        00504440 f   LIBCMTD:undname.obj
 0002:000a8570       ??0DName@@QAE@W4DNameStatus@@@Z 00504570 f   LIBCMTD:undname.obj
 0002:000a86d0       ??0DName@@QAE@XZ           005046d0 f i LIBCMTD:undname.obj
 0002:000a87c0       ??0DName@@QAE@_J@Z         005047c0 f   LIBCMTD:undname.obj
 0002:000a89a0       ??0DName@@QAE@_K@Z         005049a0 f   LIBCMTD:undname.obj
 0002:000a8b30       ??0DNameNode@@IAE@XZ       00504b30 f   LIBCMTD:undname.obj
 0002:000a8b50       ??0DNameStatusNode@@AAE@W4DNameStatus@@@Z 00504b50 f   LIBCMTD:undname.obj
 0002:000a8bc0       ??0Replicator@@QAE@XZ      00504bc0 f i LIBCMTD:undname.obj
 0002:000a8be0       ??0UnDecorator@@QAE@PADPBDHP6APADJ@ZK@Z 00504be0 f i LIBCMTD:undname.obj
 0002:000a8ca0       ??0charNode@@QAE@D@Z       00504ca0 f   LIBCMTD:undname.obj
 0002:000a8ce0       ??0pDNameNode@@QAE@PAVDName@@@Z 00504ce0 f   LIBCMTD:undname.obj
 0002:000a8d60       ??0pairNode@@QAE@PAVDNameNode@@0@Z 00504d60 f   LIBCMTD:undname.obj
 0002:000a8db0       ??0pcharNode@@QAE@PBDH@Z   00504db0 f   LIBCMTD:undname.obj
 0002:000a8e70       ??2@YAPAXIAAV_HeapManager@@H@Z 00504e70 f i LIBCMTD:undname.obj
 0002:000a8e90       ??4DName@@QAEAAV0@ABV0@@Z  00504e90 f   LIBCMTD:undname.obj
 0002:000a8ec0       ??4DName@@QAEAAV0@D@Z      00504ec0 f i LIBCMTD:undname.obj
 0002:000a8fd0       ??4DName@@QAEAAV0@PAV0@@Z  00504fd0 f   LIBCMTD:undname.obj
 0002:000a9150       ??4DName@@QAEAAV0@PBD@Z    00505150 f   LIBCMTD:undname.obj
 0002:000a9260       ??4DName@@QAEAAV0@W4DNameStatus@@@Z 00505260 f   LIBCMTD:undname.obj
 0002:000a93a0       ??AReplicator@@QBE?AVDName@@H@Z 005053a0 f   LIBCMTD:undname.obj
 0002:000a9420       ??BUnDecorator@@QAEPADXZ   00505420 f i LIBCMTD:undname.obj
 0002:000a9770       ??H@YA?AVDName@@DABV0@@Z   00505770 f i LIBCMTD:undname.obj
 0002:000a97b0       ??H@YA?AVDName@@PBDABV0@@Z 005057b0 f i LIBCMTD:undname.obj
 0002:000a97f0       ??H@YA?AVDName@@W4DNameStatus@@ABV0@@Z 005057f0 f i LIBCMTD:undname.obj
 0002:000a9830       ??HDName@@QBE?AV0@ABV0@@Z  00505830 f   LIBCMTD:undname.obj
 0002:000a9880       ??HDName@@QBE?AV0@D@Z      00505880 f   LIBCMTD:undname.obj
 0002:000a98d0       ??HDName@@QBE?AV0@PAV0@@Z  005058d0 f   LIBCMTD:undname.obj
 0002:000a9920       ??HDName@@QBE?AV0@PBD@Z    00505920 f   LIBCMTD:undname.obj
 0002:000a9970       ??HDName@@QBE?AV0@W4DNameStatus@@@Z 00505970 f   LIBCMTD:undname.obj
 0002:000a99c0       ??YDName@@QAEAAV0@ABV0@@Z  005059c0 f   LIBCMTD:undname.obj
 0002:000a9a40       ??YDName@@QAEAAV0@D@Z      00505a40 f   LIBCMTD:undname.obj
 0002:000a9ae0       ??YDName@@QAEAAV0@PAV0@@Z  00505ae0 f   LIBCMTD:undname.obj
 0002:000a9bc0       ??YDName@@QAEAAV0@PBD@Z    00505bc0 f   LIBCMTD:undname.obj
 0002:000a9c80       ??YDName@@QAEAAV0@W4DNameStatus@@@Z 00505c80 f   LIBCMTD:undname.obj
 0002:000a9d00       ??YReplicator@@QAEAAV0@ABVDName@@@Z 00505d00 f   LIBCMTD:undname.obj
 0002:000a9db0       ??_5DName@@QAEAAV0@ABV0@@Z 00505db0 f   LIBCMTD:undname.obj
 0002:000a9e20       ?Constructor@_HeapManager@@QAEXP6APAXI@ZP6AXPAX@Z@Z 00505e20 f i LIBCMTD:undname.obj
 0002:000a9e70       ?Destructor@_HeapManager@@QAEXXZ 00505e70 f i LIBCMTD:undname.obj
 0002:000a9ed0       ?UScore@UnDecorator@@SAPBDW4Tokens@@@Z 00505ed0 f   LIBCMTD:undname.obj
 0002:000a9f10       ?append@DName@@AAEXPAVDNameNode@@@Z 00505f10 f   LIBCMTD:undname.obj
 0002:000a9fc0       ?composeDeclaration@UnDecorator@@CA?AVDName@@ABV2@@Z 00505fc0 f i LIBCMTD:undname.obj
 0002:000ac360       ?dbGetString@DName@@QBEPADXZ 00508360 f   LIBCMTD:undname.obj
 0002:000ac390       ?doAccessSpecifiers@UnDecorator@@SAHXZ 00508390 f i LIBCMTD:undname.obj
 0002:000ac3c0       ?doAllocationLanguage@UnDecorator@@SAHXZ 005083c0 f i LIBCMTD:undname.obj
 0002:000ac3f0       ?doAllocationModel@UnDecorator@@SAHXZ 005083f0 f i LIBCMTD:undname.obj
 0002:000ac420       ?doEcsu@UnDecorator@@SAHXZ 00508420 f i LIBCMTD:undname.obj
 0002:000ac450       ?doEllipsis@UnDecorator@@SAHXZ 00508450 f i LIBCMTD:undname.obj
 0002:000ac480       ?doFunctionReturns@UnDecorator@@SAHXZ 00508480 f i LIBCMTD:undname.obj
 0002:000ac4b0       ?doMSKeywords@UnDecorator@@SAHXZ 005084b0 f i LIBCMTD:undname.obj
 0002:000ac4e0       ?doMemberTypes@UnDecorator@@SAHXZ 005084e0 f i LIBCMTD:undname.obj
 0002:000ac510       ?doNameOnly@UnDecorator@@SAHXZ 00508510 f i LIBCMTD:undname.obj
 0002:000ac530       ?doNoIdentCharCheck@UnDecorator@@SAHXZ 00508530 f i LIBCMTD:undname.obj
 0002:000ac550       ?doPchar@DName@@AAEXPBDH@Z 00508550 f   LIBCMTD:undname.obj
 0002:000ac6e0       ?doPtr64@UnDecorator@@SAHXZ 005086e0 f i LIBCMTD:undname.obj
 0002:000ac710       ?doRestrictionSpec@UnDecorator@@SAHXZ 00508710 f i LIBCMTD:undname.obj
 0002:000ac740       ?doThisTypes@UnDecorator@@SAHXZ 00508740 f i LIBCMTD:undname.obj
 0002:000ac780       ?doThrowTypes@UnDecorator@@SAHXZ 00508780 f i LIBCMTD:undname.obj
 0002:000ac7b0       ?doTypeOnly@UnDecorator@@SAHXZ 005087b0 f i LIBCMTD:undname.obj
 0002:000ac7d0       ?doUnderScore@UnDecorator@@SAHXZ 005087d0 f i LIBCMTD:undname.obj
 0002:000ac800       ?getArgumentList@UnDecorator@@CA?AVDName@@XZ 00508800 f   LIBCMTD:undname.obj
 0002:000ac9a0       ?getArgumentTypes@UnDecorator@@CA?AVDName@@XZ 005089a0 f   LIBCMTD:undname.obj
 0002:000acb50       ?getArrayType@UnDecorator@@CA?AVDName@@ABV2@@Z 00508b50 f i LIBCMTD:undname.obj
 0002:000ace10       ?getBasedType@UnDecorator@@CA?AVDName@@XZ 00508e10 f   LIBCMTD:undname.obj
 0002:000acf00       ?getBasicDataType@UnDecorator@@CA?AVDName@@ABV2@@Z 00508f00 f   LIBCMTD:undname.obj
 0002:000ad630       ?getCallIndex@UnDecorator@@CA?AVDName@@XZ 00509630 f i LIBCMTD:undname.obj
 0002:000ad650       ?getCallingConvention@UnDecorator@@CA?AVDName@@XZ 00509650 f   LIBCMTD:undname.obj
 0002:000ad840       ?getDataIndirectType@UnDecorator@@CA?AVDName@@ABV2@PBD0H@Z 00509840 f   LIBCMTD:undname.obj
 0002:000ae120       ?getDataIndirectType@UnDecorator@@CA?AVDName@@XZ 0050a120 f i LIBCMTD:undname.obj
 0002:000ae170       ?getDataType@UnDecorator@@CA?AVDName@@PAV2@@Z 0050a170 f   LIBCMTD:undname.obj
 0002:000ae2d0       ?getDecoratedName@UnDecorator@@CA?AVDName@@XZ 0050a2d0 f   LIBCMTD:undname.obj
 0002:000ae6c0       ?getDimension@UnDecorator@@CA?AVDName@@_N@Z 0050a6c0 f   LIBCMTD:undname.obj
 0002:000aea20       ?getDispatchTarget@UnDecorator@@CA?AVDName@@XZ 0050aa20 f   LIBCMTD:undname.obj
 0002:000aeae0       ?getDisplacement@UnDecorator@@CA?AVDName@@XZ 0050aae0 f i LIBCMTD:undname.obj
 0002:000aeb00       ?getECSUDataType@UnDecorator@@CA?AVDName@@XZ 0050ab00 f   LIBCMTD:undname.obj
 0002:000aed40       ?getECSUName@UnDecorator@@CA?AVDName@@XZ 0050ad40 f i LIBCMTD:undname.obj
 0002:000aed60       ?getEnumType@UnDecorator@@CA?AVDName@@XZ 0050ad60 f i LIBCMTD:undname.obj
 0002:000aef00       ?getExtendedDataIndirectType@UnDecorator@@CA?AVDName@@AAPBDAA_NH@Z 0050af00 f   LIBCMTD:undname.obj
 0002:000af1e0       ?getExternalDataType@UnDecorator@@CA?AVDName@@ABV2@@Z 0050b1e0 f i LIBCMTD:undname.obj
 0002:000af2a0       ?getFunctionIndirectType@UnDecorator@@CA?AVDName@@ABV2@@Z 0050b2a0 f   LIBCMTD:undname.obj
 0002:000af820       ?getGuardNumber@UnDecorator@@CA?AVDName@@XZ 0050b820 f i LIBCMTD:undname.obj
 0002:000af840       ?getLastChar@DName@@QBEDXZ 0050b840 f i LIBCMTD:undname.obj
 0002:000af880       ?getLastChar@DNameStatusNode@@UBEDXZ 0050b880 f i LIBCMTD:undname.obj
 0002:000af8c0       ?getLastChar@charNode@@UBEDXZ 0050b8c0 f i LIBCMTD:undname.obj
 0002:000af8e0       ?getLastChar@pDNameNode@@UBEDXZ 0050b8e0 f i LIBCMTD:undname.obj
 0002:000af920       ?getLastChar@pairNode@@UBEDXZ 0050b920 f i LIBCMTD:undname.obj
 0002:000af980       ?getLastChar@pcharNode@@UBEDXZ 0050b980 f i LIBCMTD:undname.obj
 0002:000af9c0       ?getLexicalFrame@UnDecorator@@CA?AVDName@@XZ 0050b9c0 f i LIBCMTD:undname.obj
 0002:000afa10       ?getMemory@_HeapManager@@QAEPAXIH@Z 0050ba10 f   LIBCMTD:undname.obj
 0002:000afb60       ?getNumberOfDimensions@UnDecorator@@CAHXZ 0050bb60 f   LIBCMTD:undname.obj
 0002:000afca0       ?getOperatorName@UnDecorator@@CA?AVDName@@_NPA_N@Z 0050bca0 f i LIBCMTD:undname.obj
 0002:000b0890       ?getPointerType@UnDecorator@@CA?AVDName@@ABV2@0@Z 0050c890 f i LIBCMTD:undname.obj
 0002:000b08d0       ?getPointerTypeArray@UnDecorator@@CA?AVDName@@ABV2@0@Z 0050c8d0 f i LIBCMTD:undname.obj
 0002:000b0910       ?getPrimaryDataType@UnDecorator@@CA?AVDName@@ABV2@@Z 0050c910 f   LIBCMTD:undname.obj
 0002:000b0d90       ?getPtrRefDataType@UnDecorator@@CA?AVDName@@ABV2@H@Z 0050cd90 f i LIBCMTD:undname.obj
 0002:000b0f20       ?getPtrRefType@UnDecorator@@CA?AVDName@@ABV2@0PBD@Z 0050cf20 f   LIBCMTD:undname.obj
 0002:000b10f0       ?getReferenceType@UnDecorator@@CA?AVDName@@ABV2@0PBD@Z 0050d0f0 f i LIBCMTD:undname.obj
 0002:000b1120       ?getRestrictionSpec@UnDecorator@@CA?AVDName@@XZ 0050d120 f   LIBCMTD:undname.obj
 0002:000b12c0       ?getReturnType@UnDecorator@@CA?AVDName@@PAV2@@Z 0050d2c0 f   LIBCMTD:undname.obj
 0002:000b1320       ?getScope@UnDecorator@@CA?AVDName@@XZ 0050d320 f   LIBCMTD:undname.obj
 0002:000b1950       ?getScopedName@UnDecorator@@CA?AVDName@@XZ 0050d950 f   LIBCMTD:undname.obj
 0002:000b1ab0       ?getSignedDimension@UnDecorator@@CA?AVDName@@XZ 0050dab0 f   LIBCMTD:undname.obj
 0002:000b1b50       ?getStorageConvention@UnDecorator@@CA?AVDName@@XZ 0050db50 f i LIBCMTD:undname.obj
 0002:000b1b70       ?getString@DName@@QBEPADPAD0@Z 0050db70 f i LIBCMTD:undname.obj
 0002:000b1bc0       ?getString@DName@@QBEPADPADH@Z 0050dbc0 f i LIBCMTD:undname.obj
 0002:000b1c70       ?getString@DNameStatusNode@@UBEPADPAD0@Z 0050dc70 f i LIBCMTD:undname.obj
 0002:000b1cb0       ?getString@charNode@@UBEPADPAD0@Z 0050dcb0 f i LIBCMTD:undname.obj
 0002:000b1cf0       ?getString@pDNameNode@@UBEPADPAD0@Z 0050dcf0 f i LIBCMTD:undname.obj
 0002:000b1d40       ?getString@pairNode@@UBEPADPAD0@Z 0050dd40 f i LIBCMTD:undname.obj
 0002:000b1db0       ?getString@pcharNode@@UBEPADPAD0@Z 0050ddb0 f i LIBCMTD:undname.obj
 0002:000b1df0       ?getStringEncoding@UnDecorator@@CA?AVDName@@PADH@Z 0050ddf0 f   LIBCMTD:undname.obj
 0002:000b1f40       ?getStringHelper@@YAPADPAD00H@Z 0050df40 f i LIBCMTD:undname.obj
 0002:000b1f90       ?getSymbolName@UnDecorator@@CA?AVDName@@XZ 0050df90 f i LIBCMTD:undname.obj
 0002:000b2040       ?getTemplateArgumentList@UnDecorator@@CA?AVDName@@XZ 0050e040 f   LIBCMTD:undname.obj
 0002:000b2420       ?getTemplateConstant@UnDecorator@@CA?AVDName@@XZ 0050e420 f   LIBCMTD:undname.obj
 0002:000b2a50       ?getTemplateName@UnDecorator@@CA?AVDName@@_N@Z 0050ea50 f   LIBCMTD:undname.obj
 0002:000b2c90       ?getThisType@UnDecorator@@CA?AVDName@@XZ 0050ec90 f i LIBCMTD:undname.obj
 0002:000b2ce0       ?getThrowTypes@UnDecorator@@CA?AVDName@@XZ 0050ece0 f   LIBCMTD:undname.obj
 0002:000b2db0       ?getTypeEncoding@UnDecorator@@CAHXZ 0050edb0 f i LIBCMTD:undname.obj
 0002:000b3a80       ?getVCallThunkType@UnDecorator@@CA?AVDName@@XZ 0050fa80 f i LIBCMTD:undname.obj
 0002:000b3b00       ?getVbTableType@UnDecorator@@CA?AVDName@@ABV2@@Z 0050fb00 f i LIBCMTD:undname.obj
 0002:000b3b20       ?getVdispMapType@UnDecorator@@CA?AVDName@@ABV2@@Z 0050fb20 f i LIBCMTD:undname.obj
 0002:000b3bb0       ?getVfTableType@UnDecorator@@CA?AVDName@@ABV2@@Z 0050fbb0 f i LIBCMTD:undname.obj
 0002:000b3de0       ?getZName@UnDecorator@@CA?AVDName@@_N0@Z 0050fde0 f   LIBCMTD:undname.obj
 0002:000b4140       ?haveTemplateParameters@UnDecorator@@SAHXZ 00510140 f i LIBCMTD:undname.obj
 0002:000b4160       ?isArray@DName@@QBEHXZ     00510160 f i LIBCMTD:undname.obj
 0002:000b4180       ?isComArray@DName@@QBEHXZ  00510180 f i LIBCMTD:undname.obj
 0002:000b41a0       ?isEmpty@DName@@QBEHXZ     005101a0 f i LIBCMTD:undname.obj
 0002:000b41e0       ?isFull@Replicator@@QBEHXZ 005101e0 f i LIBCMTD:undname.obj
 0002:000b4220       ?isNoTE@DName@@QBEHXZ      00510220 f i LIBCMTD:undname.obj
 0002:000b4240       ?isPinPtr@DName@@QBEHXZ    00510240 f i LIBCMTD:undname.obj
 0002:000b4260       ?isPtrRef@DName@@QBEHXZ    00510260 f i LIBCMTD:undname.obj
 0002:000b4280       ?isUDC@DName@@QBEHXZ       00510280 f i LIBCMTD:undname.obj
 0002:000b42d0       ?isUDTThunk@DName@@QBEHXZ  005102d0 f i LIBCMTD:undname.obj
 0002:000b4320       ?isVCallThunk@DName@@QBEHXZ 00510320 f i LIBCMTD:undname.obj
 0002:000b4340       ?isValid@DName@@QBEHXZ     00510340 f i LIBCMTD:undname.obj
 0002:000b4380       ?length@DName@@QBEHXZ      00510380 f i LIBCMTD:undname.obj
 0002:000b43c0       ?length@DNameStatusNode@@UBEHXZ 005103c0 f i LIBCMTD:undname.obj
 0002:000b43e0       ?length@charNode@@UBEHXZ   005103e0 f i LIBCMTD:undname.obj
 0002:000b4400       ?length@pDNameNode@@UBEHXZ 00510400 f i LIBCMTD:undname.obj
 0002:000b4440       ?length@pairNode@@UBEHXZ   00510440 f i LIBCMTD:undname.obj
 0002:000b44a0       ?length@pcharNode@@UBEHXZ  005104a0 f i LIBCMTD:undname.obj
 0002:000b44c0       ?make@DNameStatusNode@@SAPAV1@W4DNameStatus@@@Z 005104c0 f i LIBCMTD:undname.obj
 0002:000b45a0       ?setIsArray@DName@@QAEXXZ  005105a0 f i LIBCMTD:undname.obj
 0002:000b45d0       ?setIsComArray@DName@@QAEXXZ 005105d0 f i LIBCMTD:undname.obj
 0002:000b4600       ?setIsNoTE@DName@@QAEXXZ   00510600 f i LIBCMTD:undname.obj
 0002:000b4630       ?setIsPinPtr@DName@@QAEXXZ 00510630 f i LIBCMTD:undname.obj
 0002:000b4660       ?setIsUDC@DName@@QAEXXZ    00510660 f i LIBCMTD:undname.obj
 0002:000b46a0       ?setIsVCallThunk@DName@@QAEXXZ 005106a0 f i LIBCMTD:undname.obj
 0002:000b46d0       ?setPtrRef@DName@@QAEAAV1@XZ 005106d0 f i LIBCMTD:undname.obj
 0002:000b4700       ?status@DName@@QBE?AW4DNameStatus@@XZ 00510700 f i LIBCMTD:undname.obj
 0002:000b4820       ___unDName                 00510820 f   LIBCMTD:undname.obj
 0002:000b4930       ___unDNameEx               00510930 f   LIBCMTD:undname.obj
 0002:000b4a40       __wcstod_l                 00510a40 f   LIBCMTD:wcstod.obj
 0002:000b4c70       _wcstod                    00510c70 f   LIBCMTD:wcstod.obj
 0002:000b4c90       ___crtLCMapStringW         00510c90 f   LIBCMTD:w_map.obj
 0002:000b4ce0       __get_purecall_handler     00510ce0 f   LIBCMTD:purevirt.obj
 0002:000b4d00       __purecall                 00510d00 f   LIBCMTD:purevirt.obj
 0002:000b4d50       __set_purecall_handler     00510d50 f   LIBCMTD:purevirt.obj
 0002:000b4d90       __wfltin2                  00510d90 f   LIBCMTD:wcfin.obj
 0002:000b4ea0       ___WSTRINGTOLD_L           00510ea0 f   LIBCMTD:wstrgtold.obj
 0002:000b4f30       ___wstrgtold12_l           00510f30 f   LIBCMTD:wstrgtold.obj
 0002:000b5ce4       _GetStdHandle@4            00511ce4 f   kernel32:KERNEL32.dll
 0002:000b5cea       _CloseHandle@4             00511cea f   kernel32:KERNEL32.dll
 0002:000b5cf0       _GetLastError@0            00511cf0 f   kernel32:KERNEL32.dll
 0002:000b5cf6       _InitializeCriticalSection@4 00511cf6 f   kernel32:KERNEL32.dll
 0002:000b5cfc       _EnterCriticalSection@4    00511cfc f   kernel32:KERNEL32.dll
 0002:000b5d02       _LeaveCriticalSection@4    00511d02 f   kernel32:KERNEL32.dll
 0002:000b5d08       _TryEnterCriticalSection@4 00511d08 f   kernel32:KERNEL32.dll
 0002:000b5d0e       _DeleteCriticalSection@4   00511d0e f   kernel32:KERNEL32.dll
 0002:000b5d14       _SetEvent@4                00511d14 f   kernel32:KERNEL32.dll
 0002:000b5d1a       _ResetEvent@4              00511d1a f   kernel32:KERNEL32.dll
 0002:000b5d20       _ReleaseSemaphore@12       00511d20 f   kernel32:KERNEL32.dll
 0002:000b5d26       _WaitForSingleObject@8     00511d26 f   kernel32:KERNEL32.dll
 0002:000b5d2c       _CreateEventA@16           00511d2c f   kernel32:KERNEL32.dll
 0002:000b5d32       _Sleep@4                   00511d32 f   kernel32:KERNEL32.dll
 0002:000b5d38       _GetCurrentProcessId@0     00511d38 f   kernel32:KERNEL32.dll
 0002:000b5d3e       _CreateThread@24           00511d3e f   kernel32:KERNEL32.dll
 0002:000b5d44       _GetCurrentThread@0        00511d44 f   kernel32:KERNEL32.dll
 0002:000b5d4a       _GetCurrentThreadId@0      00511d4a f   kernel32:KERNEL32.dll
 0002:000b5d50       _SetThreadPriority@8       00511d50 f   kernel32:KERNEL32.dll
 0002:000b5d56       _GetThreadPriority@4       00511d56 f   kernel32:KERNEL32.dll
 0002:000b5d5c       _ResumeThread@4            00511d5c f   kernel32:KERNEL32.dll
 0002:000b5d62       _TlsAlloc@0                00511d62 f   kernel32:KERNEL32.dll
 0002:000b5d68       _TlsGetValue@4             00511d68 f   kernel32:KERNEL32.dll
 0002:000b5d6e       _TlsSetValue@8             00511d6e f   kernel32:KERNEL32.dll
 0002:000b5d74       _TlsFree@4                 00511d74 f   kernel32:KERNEL32.dll
 0002:000b5d7a       _PulseEvent@4              00511d7a f   kernel32:KERNEL32.dll
 0002:000b5d80       _CreateSemaphoreA@16       00511d80 f   kernel32:KERNEL32.dll
 0002:000b5d86       _GetConsoleScreenBufferInfo@8 00511d86 f   kernel32:KERNEL32.dll
 0002:000b5d8c       _SetConsoleTextAttribute@8 00511d8c f   kernel32:KERNEL32.dll
 0002:000b5d92       _GetLocalTime@4            00511d92 f   kernel32:KERNEL32.dll
 0002:000b5d98       _FileTimeToSystemTime@8    00511d98 f   kernel32:KERNEL32.dll
 0002:000b5d9e       _SystemTimeToFileTime@8    00511d9e f   kernel32:KERNEL32.dll
 0002:000b5da4       _CreateFileA@28            00511da4 f   kernel32:KERNEL32.dll
 0002:000b5daa       _DeleteFileA@4             00511daa f   kernel32:KERNEL32.dll
 0002:000b5db0       _FileTimeToLocalFileTime@8 00511db0 f   kernel32:KERNEL32.dll
 0002:000b5db6       _GetFileSize@8             00511db6 f   kernel32:KERNEL32.dll
 0002:000b5dbc       _GetFileTime@16            00511dbc f   kernel32:KERNEL32.dll
 0002:000b5dc2       _MoveFileExA@12            00511dc2 f   kernel32:KERNEL32.dll
 0002:000b5dc8       _FlushFileBuffers@4        00511dc8 f   kernel32:KERNEL32.dll
 0002:000b5dce       _ReadFile@20               00511dce f   kernel32:KERNEL32.dll
 0002:000b5dd4       _SetFilePointer@16         00511dd4 f   kernel32:KERNEL32.dll
 0002:000b5dda       _WriteFile@20              00511dda f   kernel32:KERNEL32.dll
 0002:000b5de0       _QueryPerformanceCounter@4 00511de0 f   kernel32:KERNEL32.dll
 0002:000b5de6       _QueryPerformanceFrequency@4 00511de6 f   kernel32:KERNEL32.dll
 0002:000b5dec       _SetLastError@4            00511dec f   kernel32:KERNEL32.dll
 0002:000b5df2       _FormatMessageA@28         00511df2 f   kernel32:KERNEL32.dll
 0002:000b5df8       _FreeLibrary@4             00511df8 f   kernel32:KERNEL32.dll
 0002:000b5dfe       _GetProcAddress@8          00511dfe f   kernel32:KERNEL32.dll
 0002:000b5e04       _LoadLibraryA@4            00511e04 f   kernel32:KERNEL32.dll
 0002:000b5e0a       _GetFileType@4             00511e0a f   kernel32:KERNEL32.dll
 0002:000b5e10       _GetModuleFileNameW@12     00511e10 f   kernel32:KERNEL32.dll
 0002:000b5e16       _GetModuleHandleExW@12     00511e16 f   kernel32:KERNEL32.dll
 0002:000b5e1c       _WriteConsoleW@20          00511e1c f   kernel32:KERNEL32.dll
 0002:000b5e22       _GetCommandLineA@0         00511e22 f   kernel32:KERNEL32.dll
 0002:000b5e28       _IsDebuggerPresent@0       00511e28 f   kernel32:KERNEL32.dll
 0002:000b5e2e       _IsProcessorFeaturePresent@4 00511e2e f   kernel32:KERNEL32.dll
 0002:000b5e34       _RtlUnwind@16              00511e34 f   kernel32:KERNEL32.dll
 0002:000b5e3a       _EncodePointer@4           00511e3a f   kernel32:KERNEL32.dll
 0002:000b5e40       _DecodePointer@4           00511e40 f   kernel32:KERNEL32.dll
 0002:000b5e46       _ExitProcess@4             00511e46 f   kernel32:KERNEL32.dll
 0002:000b5e4c       _AreFileApisANSI@0         00511e4c f   kernel32:KERNEL32.dll
 0002:000b5e52       _MultiByteToWideChar@24    00511e52 f   kernel32:KERNEL32.dll
 0002:000b5e58       _WideCharToMultiByte@32    00511e58 f   kernel32:KERNEL32.dll
 0002:000b5e5e       _GetSystemTimeAsFileTime@4 00511e5e f   kernel32:KERNEL32.dll
 0002:000b5e64       _FatalAppExitA@8           00511e64 f   kernel32:KERNEL32.dll
 0002:000b5e6a       _HeapValidate@12           00511e6a f   kernel32:KERNEL32.dll
 0002:000b5e70       _GetSystemInfo@4           00511e70 f   kernel32:KERNEL32.dll
 0002:000b5e76       _GetStartupInfoW@4         00511e76 f   kernel32:KERNEL32.dll
 0002:000b5e7c       _IsValidCodePage@4         00511e7c f   kernel32:KERNEL32.dll
 0002:000b5e82       _GetACP@0                  00511e82 f   kernel32:KERNEL32.dll
 0002:000b5e88       _GetOEMCP@0                00511e88 f   kernel32:KERNEL32.dll
 0002:000b5e8e       _GetCPInfo@8               00511e8e f   kernel32:KERNEL32.dll
 0002:000b5e94       _SetConsoleCtrlHandler@8   00511e94 f   kernel32:KERNEL32.dll
 0002:000b5e9a       _OutputDebugStringW@4      00511e9a f   kernel32:KERNEL32.dll
 0002:000b5ea0       _WaitForSingleObjectEx@12  00511ea0 f   kernel32:KERNEL32.dll
 0002:000b5ea6       _LoadLibraryExW@12         00511ea6 f   kernel32:KERNEL32.dll
 0002:000b5eac       _GetProcessHeap@0          00511eac f   kernel32:KERNEL32.dll
 0002:000b5eb2       _GetModuleFileNameA@12     00511eb2 f   kernel32:KERNEL32.dll
 0002:000b5eb8       _GetEnvironmentStringsW@0  00511eb8 f   kernel32:KERNEL32.dll
 0002:000b5ebe       _FreeEnvironmentStringsW@4 00511ebe f   kernel32:KERNEL32.dll
 0002:000b5ec4       _UnhandledExceptionFilter@4 00511ec4 f   kernel32:KERNEL32.dll
 0002:000b5eca       _SetUnhandledExceptionFilter@4 00511eca f   kernel32:KERNEL32.dll
 0002:000b5ed0       _InitializeCriticalSectionAndSpinCount@8 00511ed0 f   kernel32:KERNEL32.dll
 0002:000b5ed6       _CreateEventW@16           00511ed6 f   kernel32:KERNEL32.dll
 0002:000b5edc       _GetCurrentProcess@0       00511edc f   kernel32:KERNEL32.dll
 0002:000b5ee2       _TerminateProcess@8        00511ee2 f   kernel32:KERNEL32.dll
 0002:000b5ee8       _GetTickCount@0            00511ee8 f   kernel32:KERNEL32.dll
 0002:000b5eee       _GetModuleHandleW@4        00511eee f   kernel32:KERNEL32.dll
 0002:000b5ef4       _CreateSemaphoreW@16       00511ef4 f   kernel32:KERNEL32.dll
 0002:000b5efa       _RaiseException@16         00511efa f   kernel32:KERNEL32.dll
 0002:000b5f00       _GetConsoleCP@0            00511f00 f   kernel32:KERNEL32.dll
 0002:000b5f06       _GetConsoleMode@8          00511f06 f   kernel32:KERNEL32.dll
 0002:000b5f0c       _HeapFree@12               00511f0c f   kernel32:KERNEL32.dll
 0002:000b5f12       _HeapReAlloc@16            00511f12 f   kernel32:KERNEL32.dll
 0002:000b5f18       _HeapSize@12               00511f18 f   kernel32:KERNEL32.dll
 0002:000b5f1e       _HeapQueryInformation@20   00511f1e f   kernel32:KERNEL32.dll
 0002:000b5f24       _HeapAlloc@12              00511f24 f   kernel32:KERNEL32.dll
 0002:000b5f2a       _ReadConsoleW@20           00511f2a f   kernel32:KERNEL32.dll
 0002:000b5f30       _OutputDebugStringA@4      00511f30 f   kernel32:KERNEL32.dll
 0002:000b5f36       _SetFilePointerEx@20       00511f36 f   kernel32:KERNEL32.dll
 0002:000b5f3c       _GetStringTypeW@16         00511f3c f   kernel32:KERNEL32.dll
 0002:000b5f42       _GetLocaleInfoW@16         00511f42 f   kernel32:KERNEL32.dll
 0002:000b5f48       _IsValidLocale@8           00511f48 f   kernel32:KERNEL32.dll
 0002:000b5f4e       _GetUserDefaultLCID@0      00511f4e f   kernel32:KERNEL32.dll
 0002:000b5f54       _EnumSystemLocalesW@8      00511f54 f   kernel32:KERNEL32.dll
 0002:000b5f5a       _GetDateFormatW@24         00511f5a f   kernel32:KERNEL32.dll
 0002:000b5f60       _GetTimeFormatW@24         00511f60 f   kernel32:KERNEL32.dll
 0002:000b5f66       _CompareStringW@24         00511f66 f   kernel32:KERNEL32.dll
 0002:000b5f6c       _LCMapStringW@24           00511f6c f   kernel32:KERNEL32.dll
 0002:000b5f72       _SetStdHandle@8            00511f72 f   kernel32:KERNEL32.dll
 0002:000b5f78       _CreateFileW@28            00511f78 f   kernel32:KERNEL32.dll
 0002:000b68f0       _pjmedia_aud_dev_cap_name  005128f0 f   pjmedia-audiodev-i386-win32-vc8-debug:audiodev.obj
 0002:000b6990       _pjmedia_aud_dev_count     00512990 f   pjmedia-audiodev-i386-win32-vc8-debug:audiodev.obj
 0002:000b69b0       _pjmedia_aud_dev_default_param 005129b0 f   pjmedia-audiodev-i386-win32-vc8-debug:audiodev.obj
 0002:000b6af0       _pjmedia_aud_dev_get_info  00512af0 f   pjmedia-audiodev-i386-win32-vc8-debug:audiodev.obj
 0002:000b6bf0       _pjmedia_aud_dev_lookup    00512bf0 f   pjmedia-audiodev-i386-win32-vc8-debug:audiodev.obj
 0002:000b6e10       _pjmedia_aud_dev_refresh   00512e10 f   pjmedia-audiodev-i386-win32-vc8-debug:audiodev.obj
 0002:000b6ef0       _pjmedia_aud_param_get_cap 00512ef0 f   pjmedia-audiodev-i386-win32-vc8-debug:audiodev.obj
 0002:000b6f80       _pjmedia_aud_param_set_cap 00512f80 f   pjmedia-audiodev-i386-win32-vc8-debug:audiodev.obj
 0002:000b7000       _pjmedia_aud_register_factory 00513000 f   pjmedia-audiodev-i386-win32-vc8-debug:audiodev.obj
 0002:000b7090       _pjmedia_aud_stream_create 00513090 f   pjmedia-audiodev-i386-win32-vc8-debug:audiodev.obj
 0002:000b73e0       _pjmedia_aud_stream_destroy 005133e0 f   pjmedia-audiodev-i386-win32-vc8-debug:audiodev.obj
 0002:000b7410       _pjmedia_aud_stream_get_cap 00513410 f   pjmedia-audiodev-i386-win32-vc8-debug:audiodev.obj
 0002:000b7450       _pjmedia_aud_stream_get_param 00513450 f   pjmedia-audiodev-i386-win32-vc8-debug:audiodev.obj
 0002:000b7560       _pjmedia_aud_stream_set_cap 00513560 f   pjmedia-audiodev-i386-win32-vc8-debug:audiodev.obj
 0002:000b75a0       _pjmedia_aud_stream_start  005135a0 f   pjmedia-audiodev-i386-win32-vc8-debug:audiodev.obj
 0002:000b75d0       _pjmedia_aud_stream_stop   005135d0 f   pjmedia-audiodev-i386-win32-vc8-debug:audiodev.obj
 0002:000b7600       _pjmedia_aud_subsys_get_pool_factory 00513600 f   pjmedia-audiodev-i386-win32-vc8-debug:audiodev.obj
 0002:000b7620       _pjmedia_aud_subsys_init   00513620 f   pjmedia-audiodev-i386-win32-vc8-debug:audiodev.obj
 0002:000b7770       _pjmedia_aud_subsys_shutdown 00513770 f   pjmedia-audiodev-i386-win32-vc8-debug:audiodev.obj
 0002:000b77f0       _pjmedia_aud_unregister_factory 005137f0 f   pjmedia-audiodev-i386-win32-vc8-debug:audiodev.obj
 0002:000b78c0       _pjmedia_audiodev_strerror 005138c0 f   pjmedia-audiodev-i386-win32-vc8-debug:errno.obj
 0002:000b9fb0       _pjmedia_wmme_factory      00515fb0 f   pjmedia-audiodev-i386-win32-vc8-debug:wmme_dev.obj
 0002:000ba98e       _WaitForMultipleObjects@16 0051698e f   kernel32:KERNEL32.dll
 0002:000ba994       _waveOutGetErrorTextA@12   00516994 f   winmm:WINMM.dll
 0002:000ba99a       _waveInGetErrorTextA@12    0051699a f   winmm:WINMM.dll
 0002:000ba9a0       _waveOutGetNumDevs@0       005169a0 f   winmm:WINMM.dll
 0002:000ba9a6       _waveOutGetDevCapsA@12     005169a6 f   winmm:WINMM.dll
 0002:000ba9ac       _waveOutGetVolume@8        005169ac f   winmm:WINMM.dll
 0002:000ba9b2       _waveOutSetVolume@8        005169b2 f   winmm:WINMM.dll
 0002:000ba9b8       _waveOutOpen@24            005169b8 f   winmm:WINMM.dll
 0002:000ba9be       _waveOutClose@4            005169be f   winmm:WINMM.dll
 0002:000ba9c4       _waveOutPrepareHeader@12   005169c4 f   winmm:WINMM.dll
 0002:000ba9ca       _waveOutUnprepareHeader@12 005169ca f   winmm:WINMM.dll
 0002:000ba9d0       _waveOutWrite@12           005169d0 f   winmm:WINMM.dll
 0002:000ba9d6       _waveOutPause@4            005169d6 f   winmm:WINMM.dll
 0002:000ba9dc       _waveOutRestart@4          005169dc f   winmm:WINMM.dll
 0002:000ba9e2       _waveOutReset@4            005169e2 f   winmm:WINMM.dll
 0002:000ba9e8       _waveInGetNumDevs@0        005169e8 f   winmm:WINMM.dll
 0002:000ba9ee       _waveInGetDevCapsA@12      005169ee f   winmm:WINMM.dll
 0002:000ba9f4       _waveInOpen@24             005169f4 f   winmm:WINMM.dll
 0002:000ba9fa       _waveInClose@4             005169fa f   winmm:WINMM.dll
 0002:000baa00       _waveInPrepareHeader@12    00516a00 f   winmm:WINMM.dll
 0002:000baa06       _waveInUnprepareHeader@12  00516a06 f   winmm:WINMM.dll
 0002:000baa0c       _waveInAddBuffer@12        00516a0c f   winmm:WINMM.dll
 0002:000baa12       _waveInStart@4             00516a12 f   winmm:WINMM.dll
 0002:000baa18       _waveInStop@4              00516a18 f   winmm:WINMM.dll
 0002:000baa1e       _waveInReset@4             00516a1e f   winmm:WINMM.dll
 0003:00000000       ___xc_a                    00519000     LIBCMTD:crt0init.obj
 0003:00000104       ___xc_z                    00519104     LIBCMTD:crt0init.obj
 0003:00000208       ___xi_a                    00519208     LIBCMTD:crt0init.obj
 0003:0000052c       ___xi_z                    0051952c     LIBCMTD:crt0init.obj
 0003:00000630       ___xp_a                    00519630     LIBCMTD:crt0init.obj
 0003:00000944       ___xp_z                    00519944     LIBCMTD:crt0init.obj
 0003:00000a48       ___xt_a                    00519a48     LIBCMTD:crt0init.obj
 0003:00000b4c       ___xt_z                    00519b4c     LIBCMTD:crt0init.obj
 0003:00000c88       ??_C@_1LI@OLKELHFM@?$AAc?$AA?3?$AA?2?$AAu?$AAs?$AAe?$AAr?$AAs?$AA?2?$AA9?$AA2?$AA0?$AA0?$AA?2?$AAd?$AAe?$AAs?$AAk?$AAt?$AAo?$AAp?$AA?2?$AAw?$AAo?$AAr?$AAk?$AA?2?$AAp?$AA2?$AAp?$AA?2?$AAp@ 00519c88     pjmedia-i386-win32-vc8-debug:port.obj
 0003:00000d64       ??_C@_1BM@GBCEPKLE@?$AAp?$AAo?$AAr?$AAt?$AA?5?$AA?$CG?$AA?$CG?$AA?5?$AAf?$AAr?$AAa?$AAm?$AAe?$AA?$AA@ 00519d64     pjmedia-i386-win32-vc8-debug:port.obj
 0003:00000d88       ??_C@_19EBEADLAH@?$AAp?$AAo?$AAr?$AAt?$AA?$AA@ 00519d88     pjmedia-i386-win32-vc8-debug:port.obj
 0003:00000dd0       ??_C@_02BBAPPCCJ@IN?$AA@   00519dd0     pjmedia-i386-win32-vc8-debug:endpoint.obj
 0003:00000dd4       ??_C@_03OPDBOKBD@IP4?$AA@  00519dd4     pjmedia-i386-win32-vc8-debug:endpoint.obj
 0003:00000dd8       ??_C@_03NNAHIIJB@IP6?$AA@  00519dd8     pjmedia-i386-win32-vc8-debug:endpoint.obj
 0003:00000ddc       ??_C@_07OEHJJJKF@RTP?1AVP?$AA@ 00519ddc     pjmedia-i386-win32-vc8-debug:endpoint.obj
 0003:00000de8       ??_C@_07HDFHIMAJ@pjmedia?$AA@ 00519de8     pjmedia-i386-win32-vc8-debug:endpoint.obj
 0003:00000df4       ??_C@_08LMCBNPPN@sendrecv?$AA@ 00519df4     pjmedia-i386-win32-vc8-debug:endpoint.obj
 0003:00000e00       ??_C@_1MA@IMKFHBKI@?$AAc?$AA?3?$AA?2?$AAu?$AAs?$AAe?$AAr?$AAs?$AA?2?$AA9?$AA2?$AA0?$AA0?$AA?2?$AAd?$AAe?$AAs?$AAk?$AAt?$AAo?$AAp?$AA?2?$AAw?$AAo?$AAr?$AAk?$AA?2?$AAp?$AA2?$AAp?$AA?2?$AAp@ 00519e00     pjmedia-i386-win32-vc8-debug:endpoint.obj
 0003:00000ee8       ??_C@_1CK@CNMBOKKG@?$AAs?$AAt?$AAa?$AAt?$AAu?$AAs?$AA?5?$AA?$DN?$AA?$DN?$AA?5?$AAP?$AAJ?$AA_?$AAS?$AAU?$AAC?$AAC?$AAE?$AAS?$AAS?$AA?$AA@ 00519ee8     pjmedia-i386-win32-vc8-debug:endpoint.obj
 0003:00000f1c       ??_C@_1BM@OGBIIDDA@?$AAp?$AAf?$AA?5?$AA?$CG?$AA?$CG?$AA?5?$AAp?$AA_?$AAe?$AAn?$AAd?$AAp?$AAt?$AA?$AA@ 00519f1c     pjmedia-i386-win32-vc8-debug:endpoint.obj
 0003:00000f40       ??_C@_1CC@JIGJPFHP@?$AAw?$AAo?$AAr?$AAk?$AAe?$AAr?$AA_?$AAc?$AAn?$AAt?$AA?5?$AA?$DM?$AA?$DN?$AA?5?$AA1?$AA6?$AA?$AA@ 00519f40     pjmedia-i386-win32-vc8-debug:endpoint.obj
 0003:00000f68       ??_C@_07LBNDIDNE@med?9ept?$AA@ 00519f68     pjmedia-i386-win32-vc8-debug:endpoint.obj
 0003:00000f78       ??_C@_0EL@BIFHLACC@Warning?3?5no?5worker?5thread?5is?5cre@ 00519f78     pjmedia-i386-win32-vc8-debug:endpoint.obj
 0003:00000fd4       ??_C@_0L@DLFDMOGF@endpoint?4c?$AA@ 00519fd4     pjmedia-i386-win32-vc8-debug:endpoint.obj
 0003:00000fe4       ??_C@_05CECBHAPI@media?$AA@ 00519fe4     pjmedia-i386-win32-vc8-debug:endpoint.obj
 0003:00000fec       ??_C@_1M@EACLICAA@?$AAe?$AAn?$AAd?$AAp?$AAt?$AA?$AA@ 00519fec     pjmedia-i386-win32-vc8-debug:endpoint.obj
 0003:00000ffc       ??_C@_1DE@FPNJNJGM@?$AAi?$AAn?$AAd?$AAe?$AAx?$AA?5?$AA?$DM?$AA?5?$AAe?$AAn?$AAd?$AAp?$AAt?$AA?9?$AA?$DO?$AAt?$AAh?$AAr?$AAe?$AAa?$AAd?$AA_?$AAc?$AAn?$AAt?$AA?$AA@ 00519ffc     pjmedia-i386-win32-vc8-debug:endpoint.obj
 0003:0000103c       ??_C@_1CK@LGNMMEDO@?$AAe?$AAn?$AAd?$AAp?$AAt?$AA?5?$AA?$CB?$AA?$DN?$AA?5?$AA?$CI?$AA?$CI?$AAv?$AAo?$AAi?$AAd?$AA?5?$AA?$CK?$AA?$CJ?$AA0?$AA?$CJ?$AA?$AA@ 0051a03c     pjmedia-i386-win32-vc8-debug:endpoint.obj
 0003:00001070       ??_C@_1JE@HCLFLOKE@?$AAa?$AAd?$AAd?$AAr?$AA?9?$AA?$DO?$AAa?$AAd?$AAd?$AAr?$AA?4?$AAs?$AAa?$AA_?$AAf?$AAa?$AAm?$AAi?$AAl?$AAy?$AA?5?$AA?$DN?$AA?$DN?$AA?5?$AAP?$AAJ?$AA_?$AAA?$AAF?$AA_?$AAI?$AAN@ 0051a070     pjmedia-i386-win32-vc8-debug:endpoint.obj
 0003:00001124       ??_C@_05KNIAAKIP@audio?$AA@ 0051a124     pjmedia-i386-win32-vc8-debug:endpoint.obj
 0003:00001130       ??_C@_1EC@FHIDABHP@?$AAe?$AAn?$AAd?$AAp?$AAt?$AA?9?$AA?$DO?$AAc?$AAo?$AAd?$AAe?$AAc?$AA_?$AAm?$AAg?$AAr?$AA?4?$AAc?$AAo?$AAd?$AAe?$AAc?$AA_?$AAc?$AAn?$AAt?$AA?5?$AA?$DM?$AA?$DN?$AA?5?$AA3?$AA2@ 0051a130     pjmedia-i386-win32-vc8-debug:endpoint.obj
 0003:00001180       ??_C@_1DK@OFJDILED@?$AAc?$AAo?$AAd?$AAe?$AAc?$AA_?$AAi?$AAn?$AAf?$AAo?$AA?9?$AA?$DO?$AAc?$AAh?$AAa?$AAn?$AAn?$AAe?$AAl?$AA_?$AAc?$AAn?$AAt?$AA?5?$AA?$DM?$AA?5?$AA1?$AA0?$AA?$AA@ 0051a180     pjmedia-i386-win32-vc8-debug:endpoint.obj
 0003:000011c5       ??_C@_00CNPNBAHC@?$AA@     0051a1c5     pjmedia-i386-win32-vc8-debug:endpoint.obj
 0003:000011c8       ??_C@_02DPKJAMEF@?$CFd?$AA@ 0051a1c8     pjmedia-i386-win32-vc8-debug:endpoint.obj
 0003:000011cc       ??_C@_01CLKCMJKC@?5?$AA@   0051a1cc     pjmedia-i386-win32-vc8-debug:endpoint.obj
 0003:000011d0       ??_C@_01ICJEACDI@?$DL?$AA@ 0051a1d0     pjmedia-i386-win32-vc8-debug:endpoint.obj
 0003:000011d4       ??_C@_09IKOEDHAN@?$CF?4?$CKs?$DN?$CF?4?$CKs?$AA@ 0051a1d4     pjmedia-i386-win32-vc8-debug:endpoint.obj
 0003:000011e0       ??_C@_04EBNJJJJI@?$CF?4?$CKs?$AA@ 0051a1e0     pjmedia-i386-win32-vc8-debug:endpoint.obj
 0003:000011e8       ??_C@_04JKCEBMKL@fmtp?$AA@ 0051a1e8     pjmedia-i386-win32-vc8-debug:endpoint.obj
 0003:000011f0       ??_C@_02KCBIGJIH@96?$AA@   0051a1f0     pjmedia-i386-win32-vc8-debug:endpoint.obj
 0003:000011f4       ??_C@_06NPGDLJKE@rtpmap?$AA@ 0051a1f4     pjmedia-i386-win32-vc8-debug:endpoint.obj
 0003:000011fc       ??_C@_0BI@MJDIOLFC@96?5telephone?9event?18000?$AA@ 0051a1fc     pjmedia-i386-win32-vc8-debug:endpoint.obj
 0003:00001218       ??_C@_07JDIMCMCJ@96?50?916?$AA@ 0051a218     pjmedia-i386-win32-vc8-debug:endpoint.obj
 0003:00001224       ??_C@_04PCJMJPDO@TIAS?$AA@ 0051a224     pjmedia-i386-win32-vc8-debug:endpoint.obj
 0003:0000122c       ??_C@_1CO@HNJEPJHN@?$AAe?$AAn?$AAd?$AAp?$AAt?$AA?5?$AA?$CG?$AA?$CG?$AA?5?$AAp?$AAo?$AAo?$AAl?$AA?5?$AA?$CG?$AA?$CG?$AA?5?$AAp?$AA_?$AAs?$AAd?$AAp?$AA?$AA@ 0051a22c     pjmedia-i386-win32-vc8-debug:endpoint.obj
 0003:00001264       ??_C@_01JOAMLHOP@?9?$AA@   0051a264     pjmedia-i386-win32-vc8-debug:endpoint.obj
 0003:00001268       ??_C@_0BH@FKKILFGM@Invalid?5address?5family?$AA@ 0051a268     pjmedia-i386-win32-vc8-debug:endpoint.obj
 0003:00001284       ??_C@_1DE@IHJPNLLP@?$AA?$CB?$AA?$CC?$AAI?$AAn?$AAv?$AAa?$AAl?$AAi?$AAd?$AA?5?$AAa?$AAd?$AAd?$AAr?$AAe?$AAs?$AAs?$AA?5?$AAf?$AAa?$AAm?$AAi?$AAl?$AAy?$AA?$CC?$AA?$AA@ 0051a284     pjmedia-i386-win32-vc8-debug:endpoint.obj
 0003:000012c8       ??_C@_1EK@OMFKIODI@?$AAe?$AAn?$AAd?$AAp?$AAt?$AA?5?$AA?$CG?$AA?$CG?$AA?5?$AAp?$AAo?$AAo?$AAl?$AA?5?$AA?$CG?$AA?$CG?$AA?5?$AAp?$AA_?$AAs?$AAd?$AAp?$AA?5?$AA?$CG?$AA?$CG?$AA?5?$AAs?$AAt?$AAr?$AAe?$AAa?$AAm@ 0051a2c8     pjmedia-i386-win32-vc8-debug:endpoint.obj
 0003:00001320       ??_C@_1CA@OOFGDMNP@?$AAs?$AAt?$AAr?$AAe?$AAa?$AAm?$AA_?$AAc?$AAn?$AAt?$AA?5?$AA?$DM?$AA?5?$AA1?$AA6?$AA?$AA@ 0051a320     pjmedia-i386-win32-vc8-debug:endpoint.obj
 0003:00001348       ??_C@_06NJDNEAKN@?$CFd?4?$CFdK?$AA@ 0051a348     pjmedia-i386-win32-vc8-debug:endpoint.obj
 0003:00001350       ??_C@_08LMNIIOKA@?$CFd?4?$CF02dM?$AA@ 0051a350     pjmedia-i386-win32-vc8-debug:endpoint.obj
 0003:0000135c       ??_C@_0BO@DJCACKHJ@Dumping?5PJMEDIA?5capabilities?3?$AA@ 0051a35c     pjmedia-i386-win32-vc8-debug:endpoint.obj
 0003:00001380       ??_C@_0BP@LIKCCMEP@?5?9error?3?5failed?5to?5enum?5codecs?$AA@ 0051a380     pjmedia-i386-win32-vc8-debug:endpoint.obj
 0003:000013a8       ??_C@_0CH@IFCBLLJF@?5?5Total?5number?5of?5installed?5code@ 0051a3a8     pjmedia-i386-win32-vc8-debug:endpoint.obj
 0003:000013d8       ??_C@_05KKCMAPLJ@Audio?$AA@ 0051a3d8     pjmedia-i386-win32-vc8-debug:endpoint.obj
 0003:000013e0       ??_C@_05BIPFLOHN@Video?$AA@ 0051a3e0     pjmedia-i386-win32-vc8-debug:endpoint.obj
 0003:000013e8       ??_C@_0N@DGOCBNGP@Unknown?5type?$AA@ 0051a3e8     pjmedia-i386-win32-vc8-debug:endpoint.obj
 0003:000013f8       ??_C@_09FOKECCNG@?5disabled?$AA@ 0051a3f8     pjmedia-i386-win32-vc8-debug:endpoint.obj
 0003:00001404       ??_C@_05FDNGLLBB@?5penh?$AA@ 0051a404     pjmedia-i386-win32-vc8-debug:endpoint.obj
 0003:0000140c       ??_C@_04JMDOINFK@?5plc?$AA@ 0051a40c     pjmedia-i386-win32-vc8-debug:endpoint.obj
 0003:00001414       ??_C@_04LJHKGEEB@?5cng?$AA@ 0051a414     pjmedia-i386-win32-vc8-debug:endpoint.obj
 0003:0000141c       ??_C@_04POMMNHBC@?5vad?$AA@ 0051a41c     pjmedia-i386-win32-vc8-debug:endpoint.obj
 0003:00001428       ??_C@_0EA@ILGHOPII@?5?5?5?$CFs?5codec?5?$CD?$CF2d?3?5pt?$DN?$CFd?5?$CI?$CF?4?$CKs?5?$EA?$CF@ 0051a428     pjmedia-i386-win32-vc8-debug:endpoint.obj
 0003:00001474       ??_C@_1BM@MOILAMIP@?$AAe?$AAn?$AAd?$AAp?$AAt?$AA?5?$AA?$CG?$AA?$CG?$AA?5?$AAf?$AAu?$AAn?$AAc?$AA?$AA@ 0051a474     pjmedia-i386-win32-vc8-debug:endpoint.obj
 0003:00001498       ??_C@_1ME@PHEEIECP@?$AAc?$AA?3?$AA?2?$AAu?$AAs?$AAe?$AAr?$AAs?$AA?2?$AA9?$AA2?$AA0?$AA0?$AA?2?$AAd?$AAe?$AAs?$AAk?$AAt?$AAo?$AAp?$AA?2?$AAw?$AAo?$AAr?$AAk?$AA?2?$AAp?$AA2?$AAp?$AA?2?$AAp@ 0051a498     pjmedia-i386-win32-vc8-debug:sound_port.obj
 0003:00001584       ??_C@_1DK@BPIBFMDG@?$AAf?$AAr?$AAa?$AAm?$AAe?$AA?9?$AA?$DO?$AAs?$AAi?$AAz?$AAe?$AA?5?$AA?$DN?$AA?$DN?$AA?5?$AAr?$AAe?$AAq?$AAu?$AAi?$AAr?$AAe?$AAd?$AA_?$AAs?$AAi?$AAz?$AAe?$AA?$AA@ 0051a584     pjmedia-i386-win32-vc8-debug:sound_port.obj
 0003:000015cc       ??_C@_0N@COEOBFOD@EC?5activated?$AA@ 0051a5cc     pjmedia-i386-win32-vc8-debug:sound_port.obj
 0003:000015dc       ??_C@_0N@GOCHBLLA@sound_port?4c?$AA@ 0051a5dc     pjmedia-i386-win32-vc8-debug:sound_port.obj
 0003:000015ec       ??_C@_0CD@IGHBIGGN@EC?5suspended?5because?5of?5inactivi@ 0051a5ec     pjmedia-i386-win32-vc8-debug:sound_port.obj
 0003:00001618       ??_C@_1PO@CCAOEAOP@?$AAs?$AAn?$AAd?$AA_?$AAp?$AAo?$AAr?$AAt?$AA?9?$AA?$DO?$AAd?$AAi?$AAr?$AA?5?$AA?$DN?$AA?$DN?$AA?5?$AAP?$AAJ?$AAM?$AAE?$AAD?$AAI?$AAA?$AA_?$AAD?$AAI?$AAR?$AA_?$AAC?$AAA?$AAP@ 0051a618     pjmedia-i386-win32-vc8-debug:sound_port.obj
 0003:00001748       ??_C@_0CB@KICGINBD@AEC?5tail?5is?5set?5to?5default?5?$CFu?5ms@ 0051a748     pjmedia-i386-win32-vc8-debug:sound_port.obj
 0003:00001770       ??_C@_1CM@BIKCNKDB@?$AAp?$AAo?$AAo?$AAl?$AA?5?$AA?$CG?$AA?$CG?$AA?5?$AAp?$AAr?$AAm?$AA?5?$AA?$CG?$AA?$CG?$AA?5?$AAp?$AA_?$AAp?$AAo?$AAr?$AAt?$AA?$AA@ 0051a770     pjmedia-i386-win32-vc8-debug:sound_port.obj
 0003:000017a4       ??_C@_1BC@CEGCGLHF@?$AAs?$AAn?$AAd?$AA_?$AAp?$AAo?$AAr?$AAt?$AA?$AA@ 0051a7a4     pjmedia-i386-win32-vc8-debug:sound_port.obj
 0003:000017c0       ??_C@_1HE@IFPGECAN@?$AAs?$AAn?$AAd?$AA_?$AAp?$AAo?$AAr?$AAt?$AA?5?$AA?$CG?$AA?$CG?$AA?5?$AAs?$AAn?$AAd?$AA_?$AAp?$AAo?$AAr?$AAt?$AA?9?$AA?$DO?$AAd?$AAi?$AAr?$AA?5?$AA?$DN?$AA?$DN?$AA?5?$AAP?$AAJ?$AAM@ 0051a7c0     pjmedia-i386-win32-vc8-debug:sound_port.obj
 0003:0000184c       ??_C@_0DJ@PNINHBGM@pjmedia_snd_port_set_ec?$CI?$CJ?5ignore@ 0051a84c     pjmedia-i386-win32-vc8-debug:sound_port.obj
 0003:00001890       ??_C@_1EK@LIAAKOAG@?$AAp?$AAr?$AAm?$AA?4?$AAe?$AAx?$AAt?$AA_?$AAf?$AAm?$AAt?$AA?4?$AAi?$AAd?$AA?5?$AA?$DN?$AA?$DN?$AA?5?$AAP?$AAJ?$AAM?$AAE?$AAD?$AAI?$AAA?$AA_?$AAF?$AAO?$AAR?$AAM?$AAA?$AAT@ 0051a890     pjmedia-i386-win32-vc8-debug:sound_port.obj
 0003:000018e8       ??_C@_0DB@KDEIEFDK@Echo?5canceller?5is?5now?5disabled?5i@ 0051a8e8     pjmedia-i386-win32-vc8-debug:sound_port.obj
 0003:00001924       ??_C@_1CK@BEAOABFN@?$AAs?$AAn?$AAd?$AA_?$AAp?$AAo?$AAr?$AAt?$AA?5?$AA?$CG?$AA?$CG?$AA?5?$AAp?$AA_?$AAl?$AAe?$AAn?$AAg?$AAt?$AAh?$AA?$AA@ 0051a924     pjmedia-i386-win32-vc8-debug:sound_port.obj
 0003:00001958       ??_C@_1CC@EOMLAJEE@?$AAs?$AAn?$AAd?$AA_?$AAp?$AAo?$AAr?$AAt?$AA?5?$AA?$CG?$AA?$CG?$AA?5?$AAp?$AAo?$AAr?$AAt?$AA?$AA@ 0051a958     pjmedia-i386-win32-vc8-debug:sound_port.obj
 0003:00001980       ??_C@_04DAMGJPCA@file?$AA@ 0051a980     pjmedia-i386-win32-vc8-debug:wav_player.obj
 0003:00001988       ??_C@_1ME@PPJLGNCI@?$AAc?$AA?3?$AA?2?$AAu?$AAs?$AAe?$AAr?$AAs?$AA?2?$AA9?$AA2?$AA0?$AA0?$AA?2?$AAd?$AAe?$AAs?$AAk?$AAt?$AAo?$AAp?$AA?2?$AAw?$AAo?$AAr?$AAk?$AA?2?$AAp?$AA2?$AAp?$AA?2?$AAp@ 0051a988     pjmedia-i386-win32-vc8-debug:wav_player.obj
 0003:00001a74       ??_C@_1DG@FDMGAKIN@?$AAp?$AAo?$AAo?$AAl?$AA?5?$AA?$CG?$AA?$CG?$AA?5?$AAf?$AAi?$AAl?$AAe?$AAn?$AAa?$AAm?$AAe?$AA?5?$AA?$CG?$AA?$CG?$AA?5?$AAp?$AA_?$AAp?$AAo?$AAr?$AAt?$AA?$AA@ 0051aa74     pjmedia-i386-win32-vc8-debug:wav_player.obj
 0003:00001ab4       ??_C@_0DH@CJCCJAOK@actual?5value?$HMexpected?5riff?$DN?$CFx?$HM?$CFx@ 0051aab4     pjmedia-i386-win32-vc8-debug:wav_player.obj
 0003:00001af8       ??_C@_0N@EAJPAIGO@wav_player?4c?$AA@ 0051aaf8     pjmedia-i386-win32-vc8-debug:wav_player.obj
 0003:00001b08       ??_C@_0EO@KJDBHFL@File?5player?5?8?$CF?4?$CKs?8?5created?3?5samp@ 0051ab08     pjmedia-i386-win32-vc8-debug:wav_player.obj
 0003:00001b68       ??_C@_1BK@KPAMJEJL@?$AAp?$AAo?$AAr?$AAt?$AA?5?$AA?$CG?$AA?$CG?$AA?5?$AAi?$AAn?$AAf?$AAo?$AA?$AA@ 0051ab68     pjmedia-i386-win32-vc8-debug:wav_player.obj
 0003:00001b88       ??_C@_1HK@BCCPIGPD@?$AAp?$AAo?$AAr?$AAt?$AA?9?$AA?$DO?$AAi?$AAn?$AAf?$AAo?$AA?4?$AAs?$AAi?$AAg?$AAn?$AAa?$AAt?$AAu?$AAr?$AAe?$AA?5?$AA?$DN?$AA?$DN?$AA?5?$AA?$CI?$AA?5?$AA?8?$AAP?$AA?8?$AA?$DM?$AA?$DM?$AA2@ 0051ab88     pjmedia-i386-win32-vc8-debug:wav_player.obj
 0003:00001c1c       ??_C@_0BD@PMBBCNLP@Unsupported?5format?$AA@ 0051ac1c     pjmedia-i386-win32-vc8-debug:wav_player.obj
 0003:00001c34       ??_C@_1CM@NIPCCNIC@?$AA?$CB?$AA?$CC?$AAU?$AAn?$AAs?$AAu?$AAp?$AAp?$AAo?$AAr?$AAt?$AAe?$AAd?$AA?5?$AAf?$AAo?$AAr?$AAm?$AAa?$AAt?$AA?$CC?$AA?$AA@ 0051ac34     pjmedia-i386-win32-vc8-debug:wav_player.obj
 0003:00001c68       ??_C@_1DA@PHGKDLFF@?$AAb?$AAy?$AAt?$AAe?$AAs?$AA?5?$AA?$DM?$AA?5?$AAf?$AAp?$AAo?$AAr?$AAt?$AA?9?$AA?$DO?$AAd?$AAa?$AAt?$AAa?$AA_?$AAl?$AAe?$AAn?$AA?$AA@ 0051ac68     pjmedia-i386-win32-vc8-debug:wav_player.obj
 0003:00001ca8       ??_C@_1IG@EHNGAPHE@?$AAf?$AAp?$AAo?$AAr?$AAt?$AA?9?$AA?$DO?$AAb?$AAa?$AAs?$AAe?$AA?4?$AAi?$AAn?$AAf?$AAo?$AA?4?$AAs?$AAi?$AAg?$AAn?$AAa?$AAt?$AAu?$AAr?$AAe?$AA?5?$AA?$DN?$AA?$DN?$AA?5?$AA?$CI?$AA?5@ 0051aca8     pjmedia-i386-win32-vc8-debug:wav_player.obj
 0003:00001d48       ??_C@_1DM@GNICMNHP@?$AAf?$AAr?$AAa?$AAm?$AAe?$AA?9?$AA?$DO?$AAs?$AAi?$AAz?$AAe?$AA?5?$AA?$DM?$AA?$DN?$AA?5?$AAf?$AAp?$AAo?$AAr?$AAt?$AA?9?$AA?$DO?$AAb?$AAu?$AAf?$AAs?$AAi?$AAz?$AAe?$AA?$AA@ 0051ad48     pjmedia-i386-win32-vc8-debug:wav_player.obj
 0003:00001d90       ??_C@_0BD@LPPPNKOC@File?5port?5?$CF?4?$CKs?5EOF?$AA@ 0051ad90     pjmedia-i386-win32-vc8-debug:wav_player.obj
 0003:00001da8       ??_C@_0BL@OHCCHMIC@File?5port?5?$CF?4?$CKs?5rewinding?4?4?$AA@ 0051ada8     pjmedia-i386-win32-vc8-debug:wav_player.obj
 0003:00001dc8       ??_C@_1LG@MPLAFCEO@?$AAf?$AAp?$AAo?$AAr?$AAt?$AA?9?$AA?$DO?$AAf?$AAm?$AAt?$AA_?$AAt?$AAa?$AAg?$AA?5?$AA?$DN?$AA?$DN?$AA?5?$AAP?$AAJ?$AAM?$AAE?$AAD?$AAI?$AAA?$AA_?$AAW?$AAA?$AAV?$AAE?$AA_?$AAF@ 0051adc8     pjmedia-i386-win32-vc8-debug:wav_player.obj
 0003:00001ea8       ??_C@_1IE@MIFKIGFC@?$AAt?$AAh?$AAi?$AAs?$AA_?$AAp?$AAo?$AAr?$AAt?$AA?9?$AA?$DO?$AAi?$AAn?$AAf?$AAo?$AA?4?$AAs?$AAi?$AAg?$AAn?$AAa?$AAt?$AAu?$AAr?$AAe?$AA?5?$AA?$DN?$AA?$DN?$AA?5?$AA?$CI?$AA?5?$AA?8@ 0051aea8     pjmedia-i386-win32-vc8-debug:wav_player.obj
 0003:00001f48       ??_C@_0BM@PHKCDOOL@Invalid?5audio?5format?5detail?$AA@ 0051af48     pjmedia-i386-win32-vc8-debug:format.obj
 0003:00001f70       ??_C@_1LM@ONHFNG@?$AAc?$AA?3?$AA?2?$AAu?$AAs?$AAe?$AAr?$AAs?$AA?2?$AA9?$AA2?$AA0?$AA0?$AA?2?$AAd?$AAe?$AAs?$AAk?$AAt?$AAo?$AAp?$AA?2?$AAw?$AAo?$AAr?$AAk?$AA?2?$AAp?$AA2?$AAp?$AA?2?$AAp@ 0051af70     pjmedia-i386-win32-vc8-debug:format.obj
 0003:00002058       ??_C@_1GA@PHLNNING@?$AA?$CB?$AAa?$AAs?$AAs?$AAe?$AAr?$AAt?$AA_?$AAv?$AAa?$AAl?$AAi?$AAd?$AA?5?$AA?$HM?$AA?$HM?$AA?5?$AA?$CB?$AA?$CC?$AAI?$AAn?$AAv?$AAa?$AAl?$AAi?$AAd?$AA?5?$AAa?$AAu?$AAd?$AAi?$AAo@ 0051b058     pjmedia-i386-win32-vc8-debug:format.obj
 0003:000020d0       ??_C@_1LK@IPGAGBBG@?$AAc?$AA?3?$AA?2?$AAu?$AAs?$AAe?$AAr?$AAs?$AA?2?$AA9?$AA2?$AA0?$AA0?$AA?2?$AAd?$AAe?$AAs?$AAk?$AAt?$AAo?$AAp?$AA?2?$AAw?$AAo?$AAr?$AAk?$AA?2?$AAp?$AA2?$AAp?$AA?2?$AAp@ 0051b0d0     pjmedia-i386-win32-vc8-debug:codec.obj
 0003:000021b0       ??_C@_1BI@BKNDIBIA@?$AAp?$AAo?$AAo?$AAl?$AA?5?$AA?$CG?$AA?$CG?$AA?5?$AAs?$AAr?$AAc?$AA?$AA@ 0051b1b0     pjmedia-i386-win32-vc8-debug:codec.obj
 0003:000021cc       ??_C@_1BE@KDGOHEJD@?$AAm?$AAg?$AAr?$AA?5?$AA?$CG?$AA?$CG?$AA?5?$AAp?$AAf?$AA?$AA@ 0051b1cc     pjmedia-i386-win32-vc8-debug:codec.obj
 0003:000021e4       ??_C@_09GLMNEMC@codec?9mgr?$AA@ 0051b1e4     pjmedia-i386-win32-vc8-debug:codec.obj
 0003:000021f0       ??_C@_17FPEMCAJ@?$AAm?$AAg?$AAr?$AA?$AA@ 0051b1f0     pjmedia-i386-win32-vc8-debug:codec.obj
 0003:000021fc       ??_C@_1DO@EEIIFHKJ@?$AAm?$AAg?$AAr?$AA?9?$AA?$DO?$AAc?$AAo?$AAd?$AAe?$AAc?$AA_?$AAd?$AAe?$AAs?$AAc?$AA?$FL?$AAi?$AA?$FN?$AA?4?$AAp?$AAa?$AAr?$AAa?$AAm?$AA?9?$AA?$DO?$AAp?$AAo?$AAo?$AAl?$AA?$AA@ 0051b1fc     pjmedia-i386-win32-vc8-debug:codec.obj
 0003:00002248       ??_C@_1BO@BNPCENCC@?$AAm?$AAg?$AAr?$AA?5?$AA?$CG?$AA?$CG?$AA?5?$AAf?$AAa?$AAc?$AAt?$AAo?$AAr?$AAy?$AA?$AA@ 0051b248     pjmedia-i386-win32-vc8-debug:codec.obj
 0003:00002270       ??_C@_1EI@LPEKDADD@?$AAf?$AAa?$AAc?$AAt?$AAo?$AAr?$AAy?$AA?9?$AA?$DO?$AAo?$AAp?$AA?9?$AA?$DO?$AAd?$AAe?$AAs?$AAt?$AAr?$AAo?$AAy?$AA?5?$AA?$CB?$AA?$DN?$AA?5?$AA?$CI?$AA?$CI?$AAv?$AAo?$AAi?$AAd?$AA?5?$AA?$CK@ 0051b270     pjmedia-i386-win32-vc8-debug:codec.obj
 0003:000022c8       ??_C@_1CO@FACHMPOK@?$AAm?$AAg?$AAr?$AA?5?$AA?$CG?$AA?$CG?$AA?5?$AAc?$AAo?$AAu?$AAn?$AAt?$AA?5?$AA?$CG?$AA?$CG?$AA?5?$AAc?$AAo?$AAd?$AAe?$AAc?$AAs?$AA?$AA@ 0051b2c8     pjmedia-i386-win32-vc8-debug:codec.obj
 0003:00002300       ??_C@_1EE@JECMOLIN@?$AAm?$AAg?$AAr?$AA?5?$AA?$CG?$AA?$CG?$AA?5?$AAp?$AA_?$AAi?$AAn?$AAf?$AAo?$AA?5?$AA?$CG?$AA?$CG?$AA?5?$AAp?$AAt?$AA?$DO?$AA?$DN?$AA0?$AA?5?$AA?$CG?$AA?$CG?$AA?5?$AAp?$AAt?$AA?5?$AA?$DM?$AA?5?$AA9@ 0051b300     pjmedia-i386-win32-vc8-debug:codec.obj
 0003:00002354       ??_C@_1CM@NHECEOC@?$AAi?$AAn?$AAf?$AAo?$AA?5?$AA?$CG?$AA?$CG?$AA?5?$AAi?$AAd?$AA?5?$AA?$CG?$AA?$CG?$AA?5?$AAm?$AAa?$AAx?$AA_?$AAl?$AAe?$AAn?$AA?$AA@ 0051b354     pjmedia-i386-win32-vc8-debug:codec.obj
 0003:00002388       ??_C@_0L@MMBOMEDE@?$CF?4?$CKs?1?$CFu?1?$CFu?$AA@ 0051b388     pjmedia-i386-win32-vc8-debug:codec.obj
 0003:00002398       ??_C@_1EG@PNDDPIBP@?$AAm?$AAg?$AAr?$AA?5?$AA?$CG?$AA?$CG?$AA?5?$AAc?$AAo?$AAd?$AAe?$AAc?$AA_?$AAi?$AAd?$AA?5?$AA?$CG?$AA?$CG?$AA?5?$AAc?$AAo?$AAu?$AAn?$AAt?$AA?5?$AA?$CG?$AA?$CG?$AA?5?$AA?$CK?$AAc?$AAo?$AAu@ 0051b398     pjmedia-i386-win32-vc8-debug:codec.obj
 0003:000023ec       ??_C@_1CA@FGAKAPCG@?$AAm?$AAg?$AAr?$AA?5?$AA?$CG?$AA?$CG?$AA?5?$AAc?$AAo?$AAd?$AAe?$AAc?$AA_?$AAi?$AAd?$AA?$AA@ 0051b3ec     pjmedia-i386-win32-vc8-debug:codec.obj
 0003:00002414       ??_C@_1CO@PLEMIHIG@?$AAm?$AAg?$AAr?$AA?5?$AA?$CG?$AA?$CG?$AA?5?$AAi?$AAn?$AAf?$AAo?$AA?5?$AA?$CG?$AA?$CG?$AA?5?$AAp?$AA_?$AAc?$AAo?$AAd?$AAe?$AAc?$AA?$AA@ 0051b414     pjmedia-i386-win32-vc8-debug:codec.obj
 0003:0000244c       ??_C@_1CK@EGILOIOM@?$AAm?$AAg?$AAr?$AA?5?$AA?$CG?$AA?$CG?$AA?5?$AAi?$AAn?$AAf?$AAo?$AA?5?$AA?$CG?$AA?$CG?$AA?5?$AAp?$AAa?$AAr?$AAa?$AAm?$AA?$AA@ 0051b44c     pjmedia-i386-win32-vc8-debug:codec.obj
 0003:00002480       ??_C@_1DC@MPIDFLIE@?$AAc?$AAo?$AAd?$AAe?$AAc?$AA_?$AAd?$AAe?$AAs?$AAc?$AA?9?$AA?$DO?$AAp?$AAa?$AAr?$AAa?$AAm?$AA?9?$AA?$DO?$AAp?$AAa?$AAr?$AAa?$AAm?$AA?$AA@ 0051b480     pjmedia-i386-win32-vc8-debug:codec.obj
 0003:000024bc       ??_C@_1BI@PNBKIADI@?$AAm?$AAg?$AAr?$AA?5?$AA?$CG?$AA?$CG?$AA?5?$AAi?$AAn?$AAf?$AAo?$AA?$AA@ 0051b4bc     pjmedia-i386-win32-vc8-debug:codec.obj
 0003:000024d8       ??_C@_1DA@EFFFDKKD@?$AAc?$AAo?$AAd?$AAe?$AAc?$AA_?$AAd?$AAe?$AAs?$AAc?$AA?9?$AA?$DO?$AAp?$AAa?$AAr?$AAa?$AAm?$AA?9?$AA?$DO?$AAp?$AAo?$AAo?$AAl?$AA?$AA@ 0051b4d8     pjmedia-i386-win32-vc8-debug:codec.obj
 0003:00002514       ??_C@_1BK@DFPPDNGI@?$AAm?$AAg?$AAr?$AA?5?$AA?$CG?$AA?$CG?$AA?5?$AAc?$AAo?$AAd?$AAe?$AAc?$AA?$AA@ 0051b514     pjmedia-i386-win32-vc8-debug:codec.obj
 0003:00002548       ??_C@_08MPIAKENM@RTP?1SAVP?$AA@ 0051b548     pjmedia-i386-win32-vc8-debug:sdp.obj
 0003:00002554       ??_C@_0BC@KMLOGCBL@?$CB?$CD$?$CF?$CG?8?$CK?$CL?9?4?$FO_?$GA?$HL?$HM?$HN?$HO?$AA@ 0051b554     pjmedia-i386-win32-vc8-debug:sdp.obj
 0003:00002570       ??_C@_1LG@MMMPCHAB@?$AAc?$AA?3?$AA?2?$AAu?$AAs?$AAe?$AAr?$AAs?$AA?2?$AA9?$AA2?$AA0?$AA0?$AA?2?$AAd?$AAe?$AAs?$AAk?$AAt?$AAo?$AAp?$AA?2?$AAw?$AAo?$AAr?$AAk?$AA?2?$AAp?$AA2?$AAp?$AA?2?$AAp@ 0051b570     pjmedia-i386-win32-vc8-debug:sdp.obj
 0003:0000264c       ??_C@_1BK@LHKKGLPP@?$AAp?$AAo?$AAo?$AAl?$AA?5?$AA?$CG?$AA?$CG?$AA?5?$AAn?$AAa?$AAm?$AAe?$AA?$AA@ 0051b64c     pjmedia-i386-win32-vc8-debug:sdp.obj
 0003:0000266c       ??_C@_1BI@CECNPHHM@?$AAp?$AAo?$AAo?$AAl?$AA?5?$AA?$CG?$AA?$CG?$AA?5?$AAr?$AAh?$AAs?$AA?$AA@ 0051b66c     pjmedia-i386-win32-vc8-debug:sdp.obj
 0003:00002688       ??_C@_1DI@HJCFDDCH@?$AAc?$AAo?$AAu?$AAn?$AAt?$AA?5?$AA?$CG?$AA?$CG?$AA?5?$AAa?$AAt?$AAt?$AAr?$AA_?$AAa?$AAr?$AAr?$AAa?$AAy?$AA?5?$AA?$CG?$AA?$CG?$AA?5?$AAa?$AAt?$AAt?$AAr?$AA?$AA@ 0051b688     pjmedia-i386-win32-vc8-debug:sdp.obj
 0003:000026cc       ??_C@_1CI@HFMGJFMC@?$AA?$CK?$AAc?$AAo?$AAu?$AAn?$AAt?$AA?5?$AA?$DM?$AA?5?$AA?$CI?$AA3?$AA2?$AA?$CK?$AA2?$AA?5?$AA?$CL?$AA?5?$AA4?$AA?$CJ?$AA?$AA@ 0051b6cc     pjmedia-i386-win32-vc8-debug:sdp.obj
 0003:000026fc       ??_C@_1DI@FFGCGLJA@?$AAc?$AAo?$AAu?$AAn?$AAt?$AA?5?$AA?$CG?$AA?$CG?$AA?5?$AAa?$AAt?$AAt?$AAr?$AA_?$AAa?$AAr?$AAr?$AAa?$AAy?$AA?5?$AA?$CG?$AA?$CG?$AA?5?$AAn?$AAa?$AAm?$AAe?$AA?$AA@ 0051b6fc     pjmedia-i386-win32-vc8-debug:sdp.obj
 0003:00002740       ??_C@_1EK@FJKEMOIA@?$AAp?$AAj?$AA_?$AAs?$AAt?$AAr?$AAc?$AAm?$AAp?$AA2?$AA?$CI?$AA?$CG?$AAa?$AAt?$AAt?$AAr?$AA?9?$AA?$DO?$AAn?$AAa?$AAm?$AAe?$AA?0?$AA?5?$AA?$CC?$AAr?$AAt?$AAp?$AAm?$AAa?$AAp?$AA?$CC@ 0051b740     pjmedia-i386-win32-vc8-debug:sdp.obj
 0003:00002798       ??_C@_1CM@JFDNFDJN@?$AAa?$AAt?$AAt?$AAr?$AA?9?$AA?$DO?$AAv?$AAa?$AAl?$AAu?$AAe?$AA?4?$AAs?$AAl?$AAe?$AAn?$AA?5?$AA?$CB?$AA?$DN?$AA?5?$AA0?$AA?$AA@ 0051b798     pjmedia-i386-win32-vc8-debug:sdp.obj
 0003:000027cc       ??_C@_0BB@FMMFANH@Shouldn?8t?5happen?$AA@ 0051b7cc     pjmedia-i386-win32-vc8-debug:sdp.obj
 0003:000027e0       ??_C@_1CI@KMDGDPGJ@?$AA?$CB?$AA?$CC?$AAS?$AAh?$AAo?$AAu?$AAl?$AAd?$AAn?$AA?8?$AAt?$AA?5?$AAh?$AAa?$AAp?$AAp?$AAe?$AAn?$AA?$CC?$AA?$AA@ 0051b7e0     pjmedia-i386-win32-vc8-debug:sdp.obj
 0003:00002810       ??_C@_1EG@MKFCNOBN@?$AAp?$AAj?$AA_?$AAs?$AAt?$AAr?$AAc?$AAm?$AAp?$AA2?$AA?$CI?$AA?$CG?$AAa?$AAt?$AAt?$AAr?$AA?9?$AA?$DO?$AAn?$AAa?$AAm?$AAe?$AA?0?$AA?5?$AA?$CC?$AAf?$AAm?$AAt?$AAp?$AA?$CC?$AA?$CJ?$AA?$DN@ 0051b810     pjmedia-i386-win32-vc8-debug:sdp.obj
 0003:00002864       ??_C@_04DLDMIAAJ@rtcp?$AA@ 0051b864     pjmedia-i386-win32-vc8-debug:sdp.obj
 0003:00002870       ??_C@_1EG@KJAHBMHP@?$AAp?$AAj?$AA_?$AAs?$AAt?$AAr?$AAc?$AAm?$AAp?$AA2?$AA?$CI?$AA?$CG?$AAa?$AAt?$AAt?$AAr?$AA?9?$AA?$DO?$AAn?$AAa?$AAm?$AAe?$AA?0?$AA?5?$AA?$CC?$AAr?$AAt?$AAc?$AAp?$AA?$CC?$AA?$CJ?$AA?$DN@ 0051b870     pjmedia-i386-win32-vc8-debug:sdp.obj
 0003:000028c4       ??_C@_0N@PKDMIJBK@?$CFu?5IN?5IP4?5?$CFs?$AA@ 0051b8c4     pjmedia-i386-win32-vc8-debug:sdp.obj
 0003:000028d4       ??_C@_0N@IAPMNKHK@?$CFu?5IN?5IP6?5?$CFs?$AA@ 0051b8d4     pjmedia-i386-win32-vc8-debug:sdp.obj
 0003:000028e4       ??_C@_0BL@ILIKGEFL@Unsupported?5address?5family?$AA@ 0051b8e4     pjmedia-i386-win32-vc8-debug:sdp.obj
 0003:00002904       ??_C@_1DM@IJIBEIIG@?$AA?$CB?$AA?$CC?$AAU?$AAn?$AAs?$AAu?$AAp?$AAp?$AAo?$AAr?$AAt?$AAe?$AAd?$AA?5?$AAa?$AAd?$AAd?$AAr?$AAe?$AAs?$AAs?$AA?5?$AAf?$AAa?$AAm?$AAi?$AAl?$AAy?$AA?$CC?$AA?$AA@ 0051b904     pjmedia-i386-win32-vc8-debug:sdp.obj
 0003:0000294c       ??_C@_1DC@MOOEGOAE@?$AAp?$AAo?$AAo?$AAl?$AA?5?$AA?$CG?$AA?$CG?$AA?5?$AAa?$AAt?$AAt?$AAr?$AA?5?$AA?$CG?$AA?$CG?$AA?5?$AAp?$AA_?$AAr?$AAt?$AAp?$AAm?$AAa?$AAp?$AA?$AA@ 0051b94c     pjmedia-i386-win32-vc8-debug:sdp.obj
 0003:00002988       ??_C@_1BE@LGFCOKD@?$AA?$CK?$AAp?$AA_?$AAr?$AAt?$AAp?$AAm?$AAa?$AAp?$AA?$AA@ 0051b988     pjmedia-i386-win32-vc8-debug:sdp.obj
 0003:000029a0       ??_C@_1DC@EIKIHHHP@?$AAp?$AAo?$AAo?$AAl?$AA?5?$AA?$CG?$AA?$CG?$AA?5?$AAr?$AAt?$AAp?$AAm?$AAa?$AAp?$AA?5?$AA?$CG?$AA?$CG?$AA?5?$AAp?$AA_?$AAa?$AAt?$AAt?$AAr?$AA?$AA@ 0051b9a0     pjmedia-i386-win32-vc8-debug:sdp.obj
 0003:000029e0       ??_C@_1FI@PEPMJPO@?$AAr?$AAt?$AAp?$AAm?$AAa?$AAp?$AA?9?$AA?$DO?$AAe?$AAn?$AAc?$AA_?$AAn?$AAa?$AAm?$AAe?$AA?4?$AAs?$AAl?$AAe?$AAn?$AA?5?$AA?$CG?$AA?$CG?$AA?5?$AAr?$AAt?$AAp?$AAm?$AAa?$AAp?$AA?9@ 0051b9e0     pjmedia-i386-win32-vc8-debug:sdp.obj
 0003:00002a4c       ??_C@_1CI@EPAHAEGD@?$AAa?$AAt?$AAt?$AAr?$AA?5?$AA?$CB?$AA?$DN?$AA?5?$AA?$CI?$AA?$CI?$AAv?$AAo?$AAi?$AAd?$AA?5?$AA?$CK?$AA?$CJ?$AA0?$AA?$CJ?$AA?$AA@ 0051ba4c     pjmedia-i386-win32-vc8-debug:sdp.obj
 0003:00002a7c       ??_C@_01KMDKNFGN@?1?$AA@   0051ba7c     pjmedia-i386-win32-vc8-debug:sdp.obj
 0003:00002a80       ??_C@_0BD@HEFIBNKB@?$CF?4?$CKs?5?$CF?4?$CKs?1?$CFu?$CFs?$CF?4?$CKs?$AA@ 0051ba80     pjmedia-i386-win32-vc8-debug:sdp.obj
 0003:00002a98       ??_C@_0BD@NGNJPLJA@c?$DN?$CF?4?$CKs?5?$CF?4?$CKs?5?$CF?4?$CKs?$AN?6?$AA@ 0051ba98     pjmedia-i386-win32-vc8-debug:sdp.obj
 0003:00002ab0       ??_C@_1CC@CMAOLAKC@?$AAm?$AA?5?$AA?$CB?$AA?$DN?$AA?5?$AA?$CI?$AA?$CI?$AAv?$AAo?$AAi?$AAd?$AA?5?$AA?$CK?$AA?$CJ?$AA0?$AA?$CJ?$AA?$AA@ 0051bab0     pjmedia-i386-win32-vc8-debug:sdp.obj
 0003:00002ad8       ??_C@_1CO@IELLMBJI@?$AAm?$AA?9?$AA?$DO?$AAc?$AAo?$AAn?$AAn?$AA?5?$AA?$CB?$AA?$DN?$AA?5?$AA?$CI?$AA?$CI?$AAv?$AAo?$AAi?$AAd?$AA?5?$AA?$CK?$AA?$CJ?$AA0?$AA?$CJ?$AA?$AA@ 0051bad8     pjmedia-i386-win32-vc8-debug:sdp.obj
 0003:00002b10       ??_C@_1DG@MEBEIEJJ@?$AAm?$AA?9?$AA?$DO?$AAb?$AAa?$AAn?$AAd?$AAw?$AA?$FL?$AAi?$AA?$FN?$AA?5?$AA?$CB?$AA?$DN?$AA?5?$AA?$CI?$AA?$CI?$AAv?$AAo?$AAi?$AAd?$AA?5?$AA?$CK?$AA?$CJ?$AA0?$AA?$CJ?$AA?$AA@ 0051bb10     pjmedia-i386-win32-vc8-debug:sdp.obj
 0003:00002b50       ??_C@_1DE@GHMIPEL@?$AAm?$AA?9?$AA?$DO?$AAa?$AAt?$AAt?$AAr?$AA?$FL?$AAi?$AA?$FN?$AA?5?$AA?$CB?$AA?$DN?$AA?5?$AA?$CI?$AA?$CI?$AAv?$AAo?$AAi?$AAd?$AA?5?$AA?$CK?$AA?$CJ?$AA0?$AA?$CJ?$AA?$AA@ 0051bb50     pjmedia-i386-win32-vc8-debug:sdp.obj
 0003:00002b90       ??_C@_1BE@DGPNFPKO@?$AAm?$AA?5?$AA?$CG?$AA?$CG?$AA?5?$AAn?$AAa?$AAm?$AAe?$AA?$AA@ 0051bb90     pjmedia-i386-win32-vc8-debug:sdp.obj
 0003:00002ba8       ??_C@_05MIOLEPMP@v?$DN0?$AN?6?$AA@ 0051bba8     pjmedia-i386-win32-vc8-debug:sdp.obj
 0003:00002bb0       ??_C@_04HHCDBDLF@?5?7?$AN?6?$AA@ 0051bbb0     pjmedia-i386-win32-vc8-debug:sdp.obj
 0003:00002bb8       ??_C@_02PCIJFNDE@?$AN?6?$AA@ 0051bbb8     pjmedia-i386-win32-vc8-debug:sdp.obj
 0003:00002bbc       ??_C@_05PGDJPCOI@?1?5?7?$AN?6?$AA@ 0051bbbc     pjmedia-i386-win32-vc8-debug:sdp.obj
 0003:00002bc4       ??_C@_0DG@FMMLOIKL@Error?5adding?5SDP?5media?5format?5?$CF?4@ 0051bbc4     pjmedia-i386-win32-vc8-debug:sdp.obj
 0003:00002c04       ??_C@_05LIAFADKM@sdp?4c?$AA@ 0051bc04     pjmedia-i386-win32-vc8-debug:sdp.obj
 0003:00002c0c       ??_C@_08INHMCBAE@inactive?$AA@ 0051bc0c     pjmedia-i386-win32-vc8-debug:sdp.obj
 0003:00002c18       ??_C@_08HPJEFADN@sendonly?$AA@ 0051bc18     pjmedia-i386-win32-vc8-debug:sdp.obj
 0003:00002c24       ??_C@_08EHCGIGCO@recvonly?$AA@ 0051bc24     pjmedia-i386-win32-vc8-debug:sdp.obj
 0003:00002c30       ??_C@_1CO@HBFFMPPN@?$AAs?$AAe?$AAs?$AAs?$AAi?$AAo?$AAn?$AA?5?$AA?$CB?$AA?$DN?$AA?5?$AA?$CI?$AA?$CI?$AAv?$AAo?$AAi?$AAd?$AA?5?$AA?$CK?$AA?$CJ?$AA0?$AA?$CJ?$AA?$AA@ 0051bc30     pjmedia-i386-win32-vc8-debug:sdp.obj
 0003:00002c68       ??_C@_0CF@NCOGEPJF@Error?5adding?5media?0?5media?5is?5ign@ 0051bc68     pjmedia-i386-win32-vc8-debug:sdp.obj
 0003:00002c94       ??_C@_0CI@CAFHMKHI@Error?5parsing?5SDP?5in?5line?5?$CFd?5col@ 0051bc94     pjmedia-i386-win32-vc8-debug:sdp.obj
 0003:00002cc4       ??_C@_1DK@FGCOIPPN@?$AAc?$AAt?$AAx?$AA?4?$AAl?$AAa?$AAs?$AAt?$AA_?$AAe?$AAr?$AAr?$AAo?$AAr?$AA?5?$AA?$CB?$AA?$DN?$AA?5?$AAP?$AAJ?$AA_?$AAS?$AAU?$AAC?$AAC?$AAE?$AAS?$AAS?$AA?$AA@ 0051bcc4     pjmedia-i386-win32-vc8-debug:sdp.obj
 0003:00002d0c       ??_C@_1CI@HOBAFJIC@?$AAs?$AAe?$AAs?$AAs?$AA?5?$AA?$CB?$AA?$DN?$AA?5?$AA?$CI?$AA?$CI?$AAv?$AAo?$AAi?$AAd?$AA?5?$AA?$CK?$AA?$CJ?$AA0?$AA?$CJ?$AA?$AA@ 0051bd0c     pjmedia-i386-win32-vc8-debug:sdp.obj
 0003:00002d3c       ??_C@_1DE@KFDBFPOJ@?$AAs?$AAe?$AAs?$AAs?$AA?9?$AA?$DO?$AAc?$AAo?$AAn?$AAn?$AA?5?$AA?$CB?$AA?$DN?$AA?5?$AA?$CI?$AA?$CI?$AAv?$AAo?$AAi?$AAd?$AA?5?$AA?$CK?$AA?$CJ?$AA0?$AA?$CJ?$AA?$AA@ 0051bd3c     pjmedia-i386-win32-vc8-debug:sdp.obj
 0003:00002d7c       ??_C@_13BHPHAPDN@?$AAm?$AA?$AA@ 0051bd7c     pjmedia-i386-win32-vc8-debug:sdp.obj
 0003:00002d80       ??_C@_0DP@DNDEFJI@SRTP?5SDP?5contains?5ambigue?5answer@ 0051bd80     pjmedia-i386-win32-vc8-debug:errno.obj
 0003:00002dcc       ??_C@_0DL@PPDCJAFI@Duplicated?5SRTP?5crypto?5tag?5?$CIPJME@ 0051bdcc     pjmedia-i386-win32-vc8-debug:errno.obj
 0003:00002e14       ??_C@_0DK@EIEPDNB@Invalid?5SRTP?5crypto?5attribute?5?$CIP@ 0051be14     pjmedia-i386-win32-vc8-debug:errno.obj
 0003:00002e5c       ??_C@_0DH@JABOECDK@Invalid?5SRTP?5crypto?5tag?5?$CIPJMEDIA@ 0051be5c     pjmedia-i386-win32-vc8-debug:errno.obj
 0003:00002ea0       ??_C@_0EE@HKDIFKLN@Invalid?5SDP?5media?5transport?5for?5@ 0051bea0     pjmedia-i386-win32-vc8-debug:errno.obj
 0003:00002ef4       ??_C@_0DM@OPHJDJCK@SRTP?5crypto?5attribute?5required?5?$CI@ 0051bef4     pjmedia-i386-win32-vc8-debug:errno.obj
 0003:00002f40       ??_C@_0EO@MOMMHEEA@Secure?5transport?5required?5in?5SDP@ 0051bf40     pjmedia-i386-win32-vc8-debug:errno.obj
 0003:0000334c       ??_C@_0CK@HBHLALIF@Unspecified?5PJMEDIA?5error?5?$CIPJMED@ 0051c34c     pjmedia-i386-win32-vc8-debug:errno.obj
 0003:00003380       ??_C@_0CM@KFAONKNJ@Invalid?5SDP?5descriptor?5?$CIPJMEDIA_@ 0051c380     pjmedia-i386-win32-vc8-debug:errno.obj
 0003:000033b4       ??_C@_0CO@ONPCFICA@Invalid?5SDP?5version?5line?5?$CIPJMEDI@ 0051c3b4     pjmedia-i386-win32-vc8-debug:errno.obj
 0003:000033ec       ??_C@_0DA@DIKNJOEJ@Invalid?5SDP?5origin?5line?5?$CIPJMEDIA@ 0051c3ec     pjmedia-i386-win32-vc8-debug:errno.obj
 0003:00003428       ??_C@_0CM@DLEAGODI@Invalid?5SDP?5time?5line?5?$CIPJMEDIA_S@ 0051c428     pjmedia-i386-win32-vc8-debug:errno.obj
 0003:0000345c       ??_C@_0DF@HNDCDPJF@SDP?5name?1subject?5line?5is?5empty?5?$CI@ 0051c45c     pjmedia-i386-win32-vc8-debug:errno.obj
 0003:0000349c       ??_C@_0DC@KNNPDHKA@Invalid?5SDP?5connection?5line?5?$CIPJM@ 0051c49c     pjmedia-i386-win32-vc8-debug:errno.obj
 0003:000034d8       ??_C@_0DM@NEDHCJGL@Missing?5SDP?5connection?5info?5line@ 0051c4d8     pjmedia-i386-win32-vc8-debug:errno.obj
 0003:00003520       ??_C@_0CN@JHLMEODJ@Invalid?5SDP?5attributes?5?$CIPJMEDIA_@ 0051c520     pjmedia-i386-win32-vc8-debug:errno.obj
 0003:00003558       ??_C@_0DF@BJAALDOM@Invalid?5SDP?5rtpmap?5attribute?5?$CIPJ@ 0051c558     pjmedia-i386-win32-vc8-debug:errno.obj
 0003:00003598       ??_C@_0DL@HCOGNPAF@SDP?5rtpmap?5attribute?5too?5long?5?$CIP@ 0051c598     pjmedia-i386-win32-vc8-debug:errno.obj
 0003:000035e0       ??_C@_0EJ@IDNJACOO@Missing?5SDP?5rtpmap?5for?5dynamic?5p@ 0051c5e0     pjmedia-i386-win32-vc8-debug:errno.obj
 0003:00003638       ??_C@_0CO@DIKFNJOF@Invalid?5SDP?5media?5line?5?$CIPJMEDIA_@ 0051c638     pjmedia-i386-win32-vc8-debug:errno.obj
 0003:00003670       ??_C@_0DN@GADAENKO@No?5SDP?5payload?5format?5in?5the?5med@ 0051c670     pjmedia-i386-win32-vc8-debug:errno.obj
 0003:000036bc       ??_C@_0DL@KAILPDC@Invalid?5SDP?5payload?5type?5in?5medi@ 0051c6bc     pjmedia-i386-win32-vc8-debug:errno.obj
 0003:00003704       ??_C@_0DB@BJCACDID@Invalid?5SDP?5fmtp?5attribute?5?$CIPJME@ 0051c704     pjmedia-i386-win32-vc8-debug:errno.obj
 0003:00003740       ??_C@_0DB@BKKJGGKM@Invalid?5SDP?5rtcp?5attribyte?5?$CIPJME@ 0051c740     pjmedia-i386-win32-vc8-debug:errno.obj
 0003:0000377c       ??_C@_0DM@JFGCNJLM@Invalid?5SDP?5media?5transport?5prot@ 0051c77c     pjmedia-i386-win32-vc8-debug:errno.obj
 0003:000037c4       ??_C@_0DH@PCNCDMKM@Invalid?5SDP?5bandwidth?5info?5line?5@ 0051c7c4     pjmedia-i386-win32-vc8-debug:errno.obj
 0003:00003808       ??_C@_0EF@CJNFLCEL@Invalid?5SDP?5negotiator?5state?5for@ 0051c808     pjmedia-i386-win32-vc8-debug:errno.obj
 0003:00003860       ??_C@_0ED@IFOJJHNO@No?5initial?5local?5SDP?5in?5SDP?5nego@ 0051c860     pjmedia-i386-win32-vc8-debug:errno.obj
 0003:000038b0       ??_C@_0DL@MFMHOMBE@No?5active?5SDP?5in?5SDP?5negotiator?5@ 0051c8b0     pjmedia-i386-win32-vc8-debug:errno.obj
 0003:000038f8       ??_C@_0DN@JGPGLEOH@No?5current?5local?1remote?5offer?1an@ 0051c8f8     pjmedia-i386-win32-vc8-debug:errno.obj
 0003:00003948       ??_C@_0EE@BLNHOMNC@SDP?5media?5count?5mismatch?5in?5offe@ 0051c948     pjmedia-i386-win32-vc8-debug:errno.obj
 0003:000039a0       ??_C@_0EG@MJOIPNIH@SDP?5media?5type?5mismatch?5in?5offer@ 0051c9a0     pjmedia-i386-win32-vc8-debug:errno.obj
 0003:000039f8       ??_C@_0EN@OPFCIOMP@SDP?5media?5transport?5type?5mismatc@ 0051c9f8     pjmedia-i386-win32-vc8-debug:errno.obj
 0003:00003a58       ??_C@_0ED@NGHPALDD@No?5common?5SDP?5media?5payload?5in?5a@ 0051ca58     pjmedia-i386-win32-vc8-debug:errno.obj
 0003:00003aa8       ??_C@_0ED@HELGJJGO@No?5active?5media?5stream?5after?5neg@ 0051caa8     pjmedia-i386-win32-vc8-debug:errno.obj
 0003:00003af8       ??_C@_0DP@KIMEPBPF@No?5suitable?5codec?5for?5remote?5off@ 0051caf8     pjmedia-i386-win32-vc8-debug:errno.obj
 0003:00003b48       ??_C@_0EM@LLMPLGCO@No?5suitable?5telephone?9event?5for?5@ 0051cb48     pjmedia-i386-win32-vc8-debug:errno.obj
 0003:00003ba8       ??_C@_0EK@LPNBCGHG@No?5suitable?5answer?5for?5unknown?5r@ 0051cba8     pjmedia-i386-win32-vc8-debug:errno.obj
 0003:00003c00       ??_C@_0DM@JMBBJEKO@SDP?5media?5descriptor?5not?5equal?5?$CI@ 0051cc00     pjmedia-i386-win32-vc8-debug:errno.obj
 0003:00003c48       ??_C@_0ED@KAALGBMF@Port?5in?5SDP?5media?5descriptor?5not@ 0051cc48     pjmedia-i386-win32-vc8-debug:errno.obj
 0003:00003c98       ??_C@_0EJ@FJOJLJDF@Transport?5in?5SDP?5media?5descripto@ 0051cc98     pjmedia-i386-win32-vc8-debug:errno.obj
 0003:00003cf0       ??_C@_0EH@FMIFCFBA@Format?5in?5SDP?5media?5descriptor?5n@ 0051ccf0     pjmedia-i386-win32-vc8-debug:errno.obj
 0003:00003d48       ??_C@_0DK@MAHAOAHF@SDP?5connection?5line?5not?5equal?5?$CIP@ 0051cd48     pjmedia-i386-win32-vc8-debug:errno.obj
 0003:00003d90       ??_C@_0DF@HHCJAGLJ@SDP?5attributes?5not?5equal?5?$CIPJMEDI@ 0051cd90     pjmedia-i386-win32-vc8-debug:errno.obj
 0003:00003dd0       ??_C@_0DJ@GGABIHGL@SDP?5media?5direction?5not?5equal?5?$CIP@ 0051cdd0     pjmedia-i386-win32-vc8-debug:errno.obj
 0003:00003e14       ??_C@_0DJ@FFGHKCEG@SDP?5fmtp?5attribute?5not?5equal?5?$CIPJ@ 0051ce14     pjmedia-i386-win32-vc8-debug:errno.obj
 0003:00003e58       ??_C@_0DN@HLKACHFN@SDP?5rtpmap?5attribute?5not?5equal?5?$CI@ 0051ce58     pjmedia-i386-win32-vc8-debug:errno.obj
 0003:00003ea4       ??_C@_0DN@EALGPLFN@SDP?5session?5descriptor?5not?5equal@ 0051cea4     pjmedia-i386-win32-vc8-debug:errno.obj
 0003:00003ef0       ??_C@_0DI@BLKBMMGO@SDP?5origin?5line?5not?5equal?5?$CIPJMED@ 0051cef0     pjmedia-i386-win32-vc8-debug:errno.obj
 0003:00003f34       ??_C@_0DM@HCOBINN@SDP?5name?1subject?5line?5not?5equal?5@ 0051cf34     pjmedia-i386-win32-vc8-debug:errno.obj
 0003:00003f7c       ??_C@_0DE@PFJJJNGL@SDP?5time?5line?5not?5equal?5?$CIPJMEDIA@ 0051cf7c     pjmedia-i386-win32-vc8-debug:errno.obj
 0003:00003fbc       ??_C@_0CP@ODMIIAEN@Unsupported?5media?5codec?5?$CIPJMEDIA@ 0051cfbc     pjmedia-i386-win32-vc8-debug:errno.obj
 0003:00003ff4       ??_C@_0DG@KJBEJCIE@Codec?5internal?5creation?5error?5?$CIP@ 0051cff4     pjmedia-i386-win32-vc8-debug:errno.obj
 0003:00004034       ??_C@_0DG@FOGENKNL@Codec?5frame?5is?5too?5short?5?$CIPJMEDI@ 0051d034     pjmedia-i386-win32-vc8-debug:errno.obj
 0003:00004074       ??_C@_0DE@OLKJHMCL@PCM?5frame?5is?5too?5short?5?$CIPJMEDIA_@ 0051d074     pjmedia-i386-win32-vc8-debug:errno.obj
 0003:000040b4       ??_C@_0DF@JDAOLAOM@Invalid?5codec?5frame?5length?5?$CIPJME@ 0051d0b4     pjmedia-i386-win32-vc8-debug:errno.obj
 0003:000040f4       ??_C@_0DG@LLBBCNCG@Invalid?5PCM?5frame?5length?5?$CIPJMEDI@ 0051d0f4     pjmedia-i386-win32-vc8-debug:errno.obj
 0003:00004134       ??_C@_0DG@EKMGLMFL@Invalid?5codec?5mode?5?$CIno?5fmtp?$DP?$CJ?5?$CIP@ 0051d134     pjmedia-i386-win32-vc8-debug:errno.obj
 0003:00004174       ??_C@_0DJ@NJFBGAOC@Bad?5or?5corrupted?5bitstream?5?$CIPJME@ 0051d174     pjmedia-i386-win32-vc8-debug:errno.obj
 0003:000041b8       ??_C@_0DH@KOBKDDJI@Invalid?5remote?5media?5?$CIIP?$CJ?5addres@ 0051d1b8     pjmedia-i386-win32-vc8-debug:errno.obj
 0003:000041fc       ??_C@_0DM@GBJMMNCF@Asymetric?5media?5codec?5is?5not?5sup@ 0051d1fc     pjmedia-i386-win32-vc8-debug:errno.obj
 0003:00004244       ??_C@_0DA@DKJJFGPE@Invalid?5media?5payload?5type?5?$CIPJME@ 0051d244     pjmedia-i386-win32-vc8-debug:errno.obj
 0003:00004280       ??_C@_0DN@IGGOEBDI@Missing?5rtpmap?5in?5media?5descript@ 0051d280     pjmedia-i386-win32-vc8-debug:errno.obj
 0003:000042cc       ??_C@_0CO@MJBLNMMI@Invalid?5media?5type?5?$CIPJMEDIA_EINV@ 0051d2cc     pjmedia-i386-win32-vc8-debug:errno.obj
 0003:00004304       ??_C@_0DF@NNKPPHHC@Remote?5does?5not?5support?5DTMF?5?$CIPJ@ 0051d304     pjmedia-i386-win32-vc8-debug:errno.obj
 0003:00004344       ??_C@_0CJ@ECIKMCPH@Invalid?5DTMF?5digit?5?$CIPJMEDIA_RTP_@ 0051d344     pjmedia-i386-win32-vc8-debug:errno.obj
 0003:00004378       ??_C@_0DN@EHCPFJJN@Remote?5does?5not?5support?5RFC?52833@ 0051d378     pjmedia-i386-win32-vc8-debug:errno.obj
 0003:000043c4       ??_C@_0BN@LMCOIKH@Bad?5format?5?$CIPJMEDIA_EBADFMT?$CJ?$AA@ 0051d3c4     pjmedia-i386-win32-vc8-debug:errno.obj
 0003:000043e8       ??_C@_0CI@KDAMKHEL@Invalid?5RTP?5packet?5?$CIPJMEDIA_RTP_@ 0051d3e8     pjmedia-i386-win32-vc8-debug:errno.obj
 0003:00004418       ??_C@_0DL@KLDJIJLI@Invalid?5RTP?5packing?5?$CIinternal?5er@ 0051d418     pjmedia-i386-win32-vc8-debug:errno.obj
 0003:00004460       ??_C@_0CJ@NGKNCMFA@Invalid?5RTP?5version?5?$CIPJMEDIA_RTP@ 0051d460     pjmedia-i386-win32-vc8-debug:errno.obj
 0003:00004494       ??_C@_0DC@PFPAEINL@RTP?5packet?5SSRC?5id?5mismatch?5?$CIPJM@ 0051d494     pjmedia-i386-win32-vc8-debug:errno.obj
 0003:000044d0       ??_C@_0DF@KDOADJLK@RTP?5packet?5payload?5type?5mismatch@ 0051d4d0     pjmedia-i386-win32-vc8-debug:errno.obj
 0003:00004510       ??_C@_0CP@OBFABIAL@Invalid?5RTP?5packet?5length?5?$CIPJMED@ 0051d510     pjmedia-i386-win32-vc8-debug:errno.obj
 0003:00004548       ??_C@_0DB@HLHLKEBJ@RTP?5session?5restarted?5?$CIPJMEDIA_R@ 0051d548     pjmedia-i386-win32-vc8-debug:errno.obj
 0003:00004584       ??_C@_0DG@OPPFJBGL@RTP?5session?5in?5probation?5?$CIPJMEDI@ 0051d584     pjmedia-i386-win32-vc8-debug:errno.obj
 0003:000045c4       ??_C@_0DI@LFLLIJCB@Bad?5sequence?5number?5in?5RTP?5packe@ 0051d5c4     pjmedia-i386-win32-vc8-debug:errno.obj
 0003:00004608       ??_C@_0EE@PHAAOPAG@RTP?5media?5port?5destination?5is?5no@ 0051d608     pjmedia-i386-win32-vc8-debug:errno.obj
 0003:0000465c       ??_C@_0CO@BFKJOFNE@RTP?5is?5not?5configured?5?$CIPJMEDIA_R@ 0051d65c     pjmedia-i386-win32-vc8-debug:errno.obj
 0003:00004694       ??_C@_0DI@MEKDIPIO@Media?5ports?5are?5not?5compatible?5?$CI@ 0051d694     pjmedia-i386-win32-vc8-debug:errno.obj
 0003:000046d8       ??_C@_0EA@EJPEOGMK@Media?5ports?5have?5incompatible?5cl@ 0051d6d8     pjmedia-i386-win32-vc8-debug:errno.obj
 0003:00004728       ??_C@_0EL@KOIIKBFP@Media?5ports?5have?5incompatible?5sa@ 0051d728     pjmedia-i386-win32-vc8-debug:errno.obj
 0003:00004784       ??_C@_0DL@FLCJCEPI@Media?5ports?5have?5incompatible?5me@ 0051d784     pjmedia-i386-win32-vc8-debug:errno.obj
 0003:000047d0       ??_C@_0EA@CDICINEI@Media?5ports?5have?5incompatible?5bi@ 0051d7d0     pjmedia-i386-win32-vc8-debug:errno.obj
 0003:00004820       ??_C@_0EB@DHIDGGBD@Media?5ports?5have?5incompatible?5by@ 0051d820     pjmedia-i386-win32-vc8-debug:errno.obj
 0003:00004870       ??_C@_0EG@FBPNENMF@Media?5ports?5have?5incompatible?5nu@ 0051d870     pjmedia-i386-win32-vc8-debug:errno.obj
 0003:000048c4       ??_C@_0CO@CKCFJDML@Not?5a?5valid?5WAVE?5file?5?$CIPJMEDIA_E@ 0051d8c4     pjmedia-i386-win32-vc8-debug:errno.obj
 0003:000048fc       ??_C@_0DD@FKNCKLNB@Unsupported?5WAVE?5file?5format?5?$CIPJ@ 0051d8fc     pjmedia-i386-win32-vc8-debug:errno.obj
 0003:0000493c       ??_C@_0CM@HKHLDPDN@WAVE?5file?5too?5short?5?$CIPJMEDIA_EWA@ 0051d93c     pjmedia-i386-win32-vc8-debug:errno.obj
 0003:00004970       ??_C@_0DP@HHAKLPGE@Sound?5frame?5too?5large?5for?5file?5b@ 0051d970     pjmedia-i386-win32-vc8-debug:errno.obj
 0003:000049bc       ??_C@_0CK@EMOCNCPF@Unsupported?5AVI?5file?5?$CIPJMEDIA_EA@ 0051d9bc     pjmedia-i386-win32-vc8-debug:errno.obj
 0003:000049f0       ??_C@_0DF@PKIKHNPA@No?5suitable?5sound?5capture?5device@ 0051d9f0     pjmedia-i386-win32-vc8-debug:errno.obj
 0003:00004a30       ??_C@_0DH@NACBPKOD@No?5suitable?5sound?5playback?5devic@ 0051da30     pjmedia-i386-win32-vc8-debug:errno.obj
 0003:00004a74       ??_C@_0CO@FCJGKBG@Invalid?5sound?5device?5ID?5?$CIPJMEDIA@ 0051da74     pjmedia-i386-win32-vc8-debug:errno.obj
 0003:00004ab0       ??_C@_0EB@GAMOPGD@Invalid?5sample?5format?5for?5sound?5@ 0051dab0     pjmedia-i386-win32-vc8-debug:errno.obj
 0003:00004b00       ??_C@_0FA@HAKEALMK@SRTP?5crypto?9suite?5name?5not?5match@ 0051db00     pjmedia-i386-win32-vc8-debug:errno.obj
 0003:00004b60       ??_C@_0EF@DCMAHBDI@Invalid?5SRTP?5key?5length?5for?5spec@ 0051db60     pjmedia-i386-win32-vc8-debug:errno.obj
 0003:00004bb4       ??_C@_0DL@BINEGGLM@Unsupported?5SRTP?5crypto?9suite?5?$CIP@ 0051dbb4     pjmedia-i386-win32-vc8-debug:errno.obj
 0003:00004bfc       ??_C@_0BJ@JGEGOKIK@Unknown?5pjmedia?5error?5?$CFd?$AA@ 0051dbfc     pjmedia-i386-win32-vc8-debug:errno.obj
 0003:00004c20       ??_C@_1MI@MHLLNPPN@?$AAc?$AA?3?$AA?2?$AAu?$AAs?$AAe?$AAr?$AAs?$AA?2?$AA9?$AA2?$AA0?$AA0?$AA?2?$AAd?$AAe?$AAs?$AAk?$AAt?$AAo?$AAp?$AA?2?$AAw?$AAo?$AAr?$AAk?$AA?2?$AAp?$AA2?$AAp?$AA?2?$AAp@ 0051dc20     pjmedia-i386-win32-vc8-debug:clock_thread.obj
 0003:00004d10       ??_C@_1BC@OKOOGDDL@?$AAc?$AAl?$AAo?$AAc?$AAk?$AAs?$AAr?$AAc?$AA?$AA@ 0051dd10     pjmedia-i386-win32-vc8-debug:clock_thread.obj
 0003:00004d28       ??_C@_1CM@CDDALEGD@?$AAc?$AAl?$AAo?$AAc?$AAk?$AAs?$AAr?$AAc?$AA?5?$AA?$CG?$AA?$CG?$AA?5?$AAt?$AAi?$AAm?$AAe?$AAs?$AAt?$AAa?$AAm?$AAp?$AA?$AA@ 0051dd28     pjmedia-i386-win32-vc8-debug:clock_thread.obj
 0003:00004d60       ??_C@_1HK@BBHFBAFG@?$AAp?$AAo?$AAo?$AAl?$AA?5?$AA?$CG?$AA?$CG?$AA?5?$AAp?$AAa?$AAr?$AAa?$AAm?$AA?9?$AA?$DO?$AAu?$AAs?$AAe?$AAc?$AA_?$AAi?$AAn?$AAt?$AAe?$AAr?$AAv?$AAa?$AAl?$AA?5?$AA?$CG?$AA?$CG?$AA?5@ 0051dd60     pjmedia-i386-win32-vc8-debug:clock_thread.obj
 0003:00004df4       ??_C@_07FCABJMLC@clock?$CFp?$AA@ 0051ddf4     pjmedia-i386-win32-vc8-debug:clock_thread.obj
 0003:00004e00       ??_C@_05DDECJJKE@clock?$AA@ 0051de00     pjmedia-i386-win32-vc8-debug:clock_thread.obj
 0003:00004e08       ??_C@_1CK@BJCBDCJE@?$AAc?$AAl?$AAo?$AAc?$AAk?$AA?5?$AA?$CB?$AA?$DN?$AA?5?$AA?$CI?$AA?$CI?$AAv?$AAo?$AAi?$AAd?$AA?5?$AA?$CK?$AA?$CJ?$AA0?$AA?$CJ?$AA?$AA@ 0051de08     pjmedia-i386-win32-vc8-debug:clock_thread.obj
 0003:00004e40       ??_C@_1FO@IBOFFBE@?$AA?$CI?$AAc?$AAl?$AAo?$AAc?$AAk?$AA?9?$AA?$DO?$AAo?$AAp?$AAt?$AAi?$AAo?$AAn?$AAs?$AA?5?$AA?$CG?$AA?5?$AAP?$AAJ?$AAM?$AAE?$AAD?$AAI?$AAA?$AA_?$AAC?$AAL?$AAO?$AAC?$AAK?$AA_@ 0051de40     pjmedia-i386-win32-vc8-debug:clock_thread.obj
 0003:00004eb0       ??_C@_1BO@DDGJPOEI@?$AAc?$AAl?$AAo?$AAc?$AAk?$AA?9?$AA?$DO?$AAr?$AAu?$AAn?$AAn?$AAi?$AAn?$AAg?$AA?$AA@ 0051deb0     pjmedia-i386-win32-vc8-debug:clock_thread.obj
 0003:00004ed4       ??_C@_0BA@LPBIANE@Echo?5suppressor?$AA@ 0051ded4     pjmedia-i386-win32-vc8-debug:echo_common.obj
 0003:00004ee8       ??_C@_03FABGEMFG@AEC?$AA@  0051dee8     pjmedia-i386-win32-vc8-debug:echo_common.obj
 0003:00004eec       ??_C@_04FACFFFMP@ec?$CFp?$AA@ 0051deec     pjmedia-i386-win32-vc8-debug:echo_common.obj
 0003:00004ef8       ??_C@_1MG@PHAHNLIK@?$AAc?$AA?3?$AA?2?$AAu?$AAs?$AAe?$AAr?$AAs?$AA?2?$AA9?$AA2?$AA0?$AA0?$AA?2?$AAd?$AAe?$AAs?$AAk?$AAt?$AAo?$AAp?$AA?2?$AAw?$AAo?$AAr?$AAk?$AA?2?$AAp?$AA2?$AAp?$AA?2?$AAp@ 0051def8     pjmedia-i386-win32-vc8-debug:echo_common.obj
 0003:00004fe8       ??_C@_1FI@FDLBNAL@?$AA?$CB?$AAe?$AAc?$AA?9?$AA?$DO?$AAo?$AAp?$AA?9?$AA?$DO?$AAe?$AAc?$AA_?$AAc?$AAa?$AAp?$AAt?$AAu?$AAr?$AAe?$AA?5?$AA?$DN?$AA?$DN?$AA?5?$AA?$CB?$AAe?$AAc?$AA?9?$AA?$DO?$AAo?$AAp?$AA?9?$AA?$DO@ 0051dfe8     pjmedia-i386-win32-vc8-debug:echo_common.obj
 0003:00005054       ??_C@_0M@KMDBLPFK@Creating?5?$CFs?$AA@ 0051e054     pjmedia-i386-win32-vc8-debug:echo_common.obj
 0003:00005068       ??_C@_0FO@FCNNBEFH@?$CFs?5created?0?5clock_rate?$DN?$CFd?0?5chann@ 0051e068     pjmedia-i386-win32-vc8-debug:echo_common.obj
 0003:000050d8       ??_C@_0BM@HOHFIKPJ@Latency?5bufferring?5complete?$AA@ 0051e0d8     pjmedia-i386-win32-vc8-debug:echo_common.obj
 0003:000050fc       ??_C@_0O@DBBHABPM@Prefetching?4?4?$AA@ 0051e0fc     pjmedia-i386-win32-vc8-debug:echo_common.obj
 0003:0000510c       ??_C@_0DF@ENONGENO@No?5frame?5from?5delay?5buffer?4?5This@ 0051e10c     pjmedia-i386-win32-vc8-debug:echo_common.obj
 0003:00005150       _pjmedia_linear2ulaw_tab   0051e150     pjmedia-i386-win32-vc8-debug:alaw_ulaw_table.obj
 0003:00009150       _pjmedia_linear2alaw_tab   00522150     pjmedia-i386-win32-vc8-debug:alaw_ulaw_table.obj
 0003:0000d150       _pjmedia_ulaw2linear_tab   00526150     pjmedia-i386-win32-vc8-debug:alaw_ulaw_table.obj
 0003:0000d350       _pjmedia_alaw2linear_tab   00526350     pjmedia-i386-win32-vc8-debug:alaw_ulaw_table.obj
 0003:0000efe0       ??_C@_06LAEHEPPF@crypto?$AA@ 00527fe0     pjmedia-i386-win32-vc8-debug:transport_srtp.obj
 0003:0000efe8       ??_C@_04HIBGFPH@NULL?$AA@  00527fe8     pjmedia-i386-win32-vc8-debug:transport_srtp.obj
 0003:0000eff0       ??_C@_0BI@OADHPNHF@AES_CM_128_HMAC_SHA1_80?$AA@ 00527ff0     pjmedia-i386-win32-vc8-debug:transport_srtp.obj
 0003:0000f00c       ??_C@_0BI@NOFEHABG@AES_CM_128_HMAC_SHA1_32?$AA@ 0052800c     pjmedia-i386-win32-vc8-debug:transport_srtp.obj
 0003:0000f028       ??_C@_02MFDMBIJM@ok?$AA@   00528028     pjmedia-i386-win32-vc8-debug:transport_srtp.obj
 0003:0000f02c       ??_C@_0BE@KFOIPNMM@unspecified?5failure?$AA@ 0052802c     pjmedia-i386-win32-vc8-debug:transport_srtp.obj
 0003:0000f044       ??_C@_0BG@LENPEKHL@unsupported?5parameter?$AA@ 00528044     pjmedia-i386-win32-vc8-debug:transport_srtp.obj
 0003:0000f060       ??_C@_0BJ@DGLNBGGB@couldn?8t?5allocate?5memory?$AA@ 00528060     pjmedia-i386-win32-vc8-debug:transport_srtp.obj
 0003:0000f080       ??_C@_0BN@LJIJFBAJ@couldn?8t?5deallocate?5properly?$AA@ 00528080     pjmedia-i386-win32-vc8-debug:transport_srtp.obj
 0003:0000f0a4       ??_C@_0BE@KBPICNEA@couldn?8t?5initialize?$AA@ 005280a4     pjmedia-i386-win32-vc8-debug:transport_srtp.obj
 0003:0000f0bc       ??_C@_0CI@FEPPFOBO@can?8t?5process?5as?5much?5data?5as?5re@ 005280bc     pjmedia-i386-win32-vc8-debug:transport_srtp.obj
 0003:0000f0ec       ??_C@_0BH@DJJHFLDI@authentication?5failure?$AA@ 005280ec     pjmedia-i386-win32-vc8-debug:transport_srtp.obj
 0003:0000f108       ??_C@_0P@MHOCHBCE@cipher?5failure?$AA@ 00528108     pjmedia-i386-win32-vc8-debug:transport_srtp.obj
 0003:0000f11c       ??_C@_0CA@LIFPFHJ@replay?5check?5failed?5?$CIbad?5index?$CJ?$AA@ 0052811c     pjmedia-i386-win32-vc8-debug:transport_srtp.obj
 0003:0000f144       ??_C@_0CE@GCMJOMFK@replay?5check?5failed?5?$CIindex?5too?5o@ 00528144     pjmedia-i386-win32-vc8-debug:transport_srtp.obj
 0003:0000f170       ??_C@_0BO@KLFALCF@algorithm?5failed?5test?5routine?$AA@ 00528170     pjmedia-i386-win32-vc8-debug:transport_srtp.obj
 0003:0000f194       ??_C@_0BG@JKFIFBMN@unsupported?5operation?$AA@ 00528194     pjmedia-i386-win32-vc8-debug:transport_srtp.obj
 0003:0000f1b0       ??_C@_0BN@PDJKDLOF@no?5appropriate?5context?5found?$AA@ 005281b0     pjmedia-i386-win32-vc8-debug:transport_srtp.obj
 0003:0000f1d4       ??_C@_0CF@DOHHPHGD@unable?5to?5perform?5desired?5valida@ 005281d4     pjmedia-i386-win32-vc8-debug:transport_srtp.obj
 0003:0000f200       ??_C@_0BH@NKHPNDDN@can?8t?5use?5key?5any?5more?$AA@ 00528200     pjmedia-i386-win32-vc8-debug:transport_srtp.obj
 0003:0000f21c       ??_C@_0BH@CDHGOGDE@error?5in?5use?5of?5socket?$AA@ 0052821c     pjmedia-i386-win32-vc8-debug:transport_srtp.obj
 0003:0000f238       ??_C@_0BL@DJFHEKEC@error?5in?5use?5POSIX?5signals?$AA@ 00528238     pjmedia-i386-win32-vc8-debug:transport_srtp.obj
 0003:0000f258       ??_C@_0BD@HFMCMINA@nonce?5check?5failed?$AA@ 00528258     pjmedia-i386-win32-vc8-debug:transport_srtp.obj
 0003:0000f270       ??_C@_0BD@FCFDDPHP@couldn?8t?5read?5data?$AA@ 00528270     pjmedia-i386-win32-vc8-debug:transport_srtp.obj
 0003:0000f288       ??_C@_0BE@PIHIJLHG@couldn?8t?5write?5data?$AA@ 00528288     pjmedia-i386-win32-vc8-debug:transport_srtp.obj
 0003:0000f2a0       ??_C@_0BD@PIIFGNCP@error?5pasring?5data?$AA@ 005282a0     pjmedia-i386-win32-vc8-debug:transport_srtp.obj
 0003:0000f2b8       ??_C@_0BE@FFKLLGEP@error?5encoding?5data?$AA@ 005282b8     pjmedia-i386-win32-vc8-debug:transport_srtp.obj
 0003:0000f2d0       ??_C@_0BN@OEPMNKMP@error?5while?5using?5semaphores?$AA@ 005282d0     pjmedia-i386-win32-vc8-debug:transport_srtp.obj
 0003:0000f2f4       ??_C@_0BI@JNCDFEKK@error?5while?5using?5pfkey?$AA@ 005282f4     pjmedia-i386-win32-vc8-debug:transport_srtp.obj
 0003:0000f310       ??_C@_0BJ@BOBCJFAN@Unknown?5libsrtp?5error?5?$CFd?$AA@ 00528310     pjmedia-i386-win32-vc8-debug:transport_srtp.obj
 0003:0000f330       ??_C@_0CB@KJOFGAC@Failed?5to?5initialize?5libsrtp?3?5?$CFs@ 00528330     pjmedia-i386-win32-vc8-debug:transport_srtp.obj
 0003:0000f358       ??_C@_0BB@HGEADDBB@transport_srtp?4c?$AA@ 00528358     pjmedia-i386-win32-vc8-debug:transport_srtp.obj
 0003:0000f36c       ??_C@_0CD@JOBKHEBK@Failed?5to?5register?5libsrtp?5deini@ 0052836c     pjmedia-i386-win32-vc8-debug:transport_srtp.obj
 0003:0000f398       ??_C@_0CD@EDFIBBCB@Failed?5to?5deinitialize?5libsrtp?3?5@ 00528398     pjmedia-i386-win32-vc8-debug:transport_srtp.obj
 0003:0000f3c8       ??_C@_1MM@HNJEGMBM@?$AAc?$AA?3?$AA?2?$AAu?$AAs?$AAe?$AAr?$AAs?$AA?2?$AA9?$AA2?$AA0?$AA0?$AA?2?$AAd?$AAe?$AAs?$AAk?$AAt?$AAo?$AAp?$AA?2?$AAw?$AAo?$AAr?$AAk?$AA?2?$AAp?$AA2?$AAp?$AA?2?$AAp@ 005283c8     pjmedia-i386-win32-vc8-debug:transport_srtp.obj
 0003:0000f4bc       ??_C@_17HMGJKIIL@?$AAo?$AAp?$AAt?$AA?$AA@ 005284bc     pjmedia-i386-win32-vc8-debug:transport_srtp.obj
 0003:0000f4c8       ??_C@_1CI@IBFHDBIO@?$AAe?$AAn?$AAd?$AAp?$AAt?$AA?5?$AA?$CG?$AA?$CG?$AA?5?$AAt?$AAp?$AA?5?$AA?$CG?$AA?$CG?$AA?5?$AAp?$AA_?$AAt?$AAp?$AA?$AA@ 005284c8     pjmedia-i386-win32-vc8-debug:transport_srtp.obj
 0003:0000f4f8       ??_C@_06IPCNFNJD@srtp?$CFp?$AA@ 005284f8     pjmedia-i386-win32-vc8-debug:transport_srtp.obj
 0003:0000f500       ??_C@_1BO@OBDHBCGG@?$AAt?$AAp?$AA?5?$AA?$CG?$AA?$CG?$AA?5?$AAt?$AAx?$AA?5?$AA?$CG?$AA?$CG?$AA?5?$AAr?$AAx?$AA?$AA@ 00528500     pjmedia-i386-win32-vc8-debug:transport_srtp.obj
 0003:0000f524       ??_C@_0BB@JENPEJDI@?9?9key?5too?5long?9?9?$AA@ 00528524     pjmedia-i386-win32-vc8-debug:transport_srtp.obj
 0003:0000f538       ??_C@_0O@LPFLKIMI@TX?3?5?$CFs?5key?$DN?$CFs?$AA@ 00528538     pjmedia-i386-win32-vc8-debug:transport_srtp.obj
 0003:0000f548       ??_C@_05EPPOHEBK@?5auth?$AA@ 00528548     pjmedia-i386-win32-vc8-debug:transport_srtp.obj
 0003:0000f550       ??_C@_04PIHNPOJJ@?5enc?$AA@ 00528550     pjmedia-i386-win32-vc8-debug:transport_srtp.obj
 0003:0000f558       ??_C@_0BA@BONGIHBG@TX?3?5disable?$CFs?$CFs?$AA@ 00528558     pjmedia-i386-win32-vc8-debug:transport_srtp.obj
 0003:0000f56c       ??_C@_0O@EHJJODHO@RX?3?5?$CFs?5key?$DN?$CFs?$AA@ 0052856c     pjmedia-i386-win32-vc8-debug:transport_srtp.obj
 0003:0000f57c       ??_C@_0BA@ENEHOOPC@RX?3?5disable?$CFs?$CFs?$AA@ 0052857c     pjmedia-i386-win32-vc8-debug:transport_srtp.obj
 0003:0000f590       ??_C@_19BEPCNALE@?$AAs?$AAr?$AAt?$AAp?$AA?$AA@ 00528590     pjmedia-i386-win32-vc8-debug:transport_srtp.obj
 0003:0000f59c       ??_C@_0CG@KDAPJFOB@Failed?5to?5dealloc?5RX?5SRTP?5contex@ 0052859c     pjmedia-i386-win32-vc8-debug:transport_srtp.obj
 0003:0000f5cc       ??_C@_0CG@CHCMAIDE@Failed?5to?5dealloc?5TX?5SRTP?5contex@ 005285cc     pjmedia-i386-win32-vc8-debug:transport_srtp.obj
 0003:0000f5fc       ??_C@_15LFLBLBBH@?$AAt?$AAp?$AA?$AA@ 005285fc     pjmedia-i386-win32-vc8-debug:transport_srtp.obj
 0003:0000f604       ??_C@_1BG@EOJHKJHM@?$AAt?$AAp?$AA?5?$AA?$CG?$AA?$CG?$AA?5?$AAi?$AAn?$AAf?$AAo?$AA?$AA@ 00528604     pjmedia-i386-win32-vc8-debug:transport_srtp.obj
 0003:0000f620       ??_C@_1DI@NHMPMOHF@?$AAi?$AAn?$AAf?$AAo?$AA?9?$AA?$DO?$AAs?$AAp?$AAe?$AAc?$AAi?$AAf?$AAi?$AAc?$AA_?$AAi?$AAn?$AAf?$AAo?$AA_?$AAc?$AAn?$AAt?$AA?5?$AA?$DM?$AA?5?$AA4?$AA?$AA@ 00528620     pjmedia-i386-win32-vc8-debug:transport_srtp.obj
 0003:0000f664       ??_C@_1DG@DEIMONIE@?$AAt?$AAp?$AA?5?$AA?$CG?$AA?$CG?$AA?5?$AAr?$AAe?$AAm?$AA_?$AAa?$AAd?$AAd?$AAr?$AA?5?$AA?$CG?$AA?$CG?$AA?5?$AAa?$AAd?$AAd?$AAr?$AA_?$AAl?$AAe?$AAn?$AA?$AA@ 00528664     pjmedia-i386-win32-vc8-debug:transport_srtp.obj
 0003:0000f6a4       ??_C@_1DM@LJGMPJIE@?$AA?$CI?$AA?$CI?$AA?$CI?$AAp?$AAj?$AA_?$AAs?$AAs?$AAi?$AAz?$AAe?$AA_?$AAt?$AA?$CJ?$AAp?$AAk?$AAt?$AA?$CJ?$AA?5?$AA?$CG?$AA?5?$AA0?$AAx?$AA0?$AA3?$AA?$CJ?$AA?$DN?$AA?$DN?$AA0?$AA?$AA@ 005286a4     pjmedia-i386-win32-vc8-debug:transport_srtp.obj
 0003:0000f6ec       ??_C@_0BP@CAGNCNCA@Failed?5to?5restart?5SRTP?0?5err?$DN?$CFs?$AA@ 005286ec     pjmedia-i386-win32-vc8-debug:transport_srtp.obj
 0003:0000f714       ??_C@_0CO@EDHKLEPP@Failed?5to?5unprotect?5SRTP?0?5pkt?5si@ 00528714     pjmedia-i386-win32-vc8-debug:transport_srtp.obj
 0003:0000f74c       ??_C@_0CP@OAIPELPD@Failed?5to?5unprotect?5SRTCP?0?5pkt?5s@ 0052874c     pjmedia-i386-win32-vc8-debug:transport_srtp.obj
 0003:0000f788       ??_C@_1FI@GEJKNFC@?$AA1?$AA2?$AA8?$AA?5?$AA?$DO?$AA?$DN?$AA?5?$AAc?$AAr?$AAy?$AAp?$AAt?$AAo?$AA_?$AAs?$AAu?$AAi?$AAt?$AAe?$AAs?$AA?$FL?$AAc?$AAs?$AA_?$AAi?$AAd?$AAx?$AA?$FN?$AA?4?$AAc?$AAi?$AAp@ 00528788     pjmedia-i386-win32-vc8-debug:transport_srtp.obj
 0003:0000f7f4       ??_C@_0CB@DDJJDFFB@Failed?5generating?5random?5key?3?5?$CFs@ 005287f4     pjmedia-i386-win32-vc8-debug:transport_srtp.obj
 0003:0000f81c       ??_C@_0CE@BAIPFCEP@Failed?5encoding?5plain?5key?5to?5bas@ 0052881c     pjmedia-i386-win32-vc8-debug:transport_srtp.obj
 0003:0000f848       ??_C@_1GM@GMFMOBNN@?$AA?$CK?$AAb?$AAu?$AAf?$AAf?$AAe?$AAr?$AA_?$AAl?$AAe?$AAn?$AA?5?$AA?$DO?$AA?$DN?$AA?5?$AA?$CI?$AAc?$AAr?$AAy?$AAp?$AAt?$AAo?$AA?9?$AA?$DO?$AAn?$AAa?$AAm?$AAe?$AA?4?$AAs?$AAl?$AAe@ 00528848     pjmedia-i386-win32-vc8-debug:transport_srtp.obj
 0003:0000f8cc       ??_C@_0BA@OGAKIHAO@?$CFd?5?$CFs?5inline?3?$CFs?$AA@ 005288cc     pjmedia-i386-win32-vc8-debug:transport_srtp.obj
 0003:0000f8e0       ??_C@_0BP@IBJNGPHO@Attribute?5crypto?5expecting?5tag?$AA@ 005288e0     pjmedia-i386-win32-vc8-debug:transport_srtp.obj
 0003:0000f908       ??_C@_0CI@IIDGBGP@Attribute?5crypto?5expecting?5crypt@ 00528908     pjmedia-i386-win32-vc8-debug:transport_srtp.obj
 0003:0000f938       ??_C@_01JLIPDDHJ@?3?$AA@   00528938     pjmedia-i386-win32-vc8-debug:transport_srtp.obj
 0003:0000f93c       ??_C@_0CG@JCJFEHFF@Attribute?5crypto?5expecting?5key?5m@ 0052893c     pjmedia-i386-win32-vc8-debug:transport_srtp.obj
 0003:0000f96c       ??_C@_06OGMBMJA@inline?$AA@ 0052896c     pjmedia-i386-win32-vc8-debug:transport_srtp.obj
 0003:0000f974       ??_C@_0DA@ONAGIJJE@Attribute?5crypto?5key?5method?5?8?$CFs?8@ 00528974     pjmedia-i386-win32-vc8-debug:transport_srtp.obj
 0003:0000f9b0       ??_C@_02MINBJDHL@?$HM?5?$AA@ 005289b0     pjmedia-i386-win32-vc8-debug:transport_srtp.obj
 0003:0000f9b4       ??_C@_0BP@FKKPLPLE@Attribute?5crypto?5expecting?5key?$AA@ 005289b4     pjmedia-i386-win32-vc8-debug:transport_srtp.obj
 0003:0000f9dc       ??_C@_0N@FJKIJMGM@Key?5too?5long?$AA@ 005289dc     pjmedia-i386-win32-vc8-debug:transport_srtp.obj
 0003:0000f9ec       ??_C@_0CH@PPONEAL@Failed?5decoding?5crypto?5key?5from?5@ 005289ec     pjmedia-i386-win32-vc8-debug:transport_srtp.obj
 0003:0000fa1c       ??_C@_1DI@FKNKINIE@?$AAt?$AAp?$AA?5?$AA?$CG?$AA?$CG?$AA?5?$AAs?$AAd?$AAp?$AA_?$AAp?$AAo?$AAo?$AAl?$AA?5?$AA?$CG?$AA?$CG?$AA?5?$AAs?$AAd?$AAp?$AA_?$AAl?$AAo?$AAc?$AAa?$AAl?$AA?$AA@ 00528a1c     pjmedia-i386-win32-vc8-debug:transport_srtp.obj
 0003:0000fa60       ??_C@_1CI@PICKKBLK@?$AAs?$AAd?$AAp?$AA_?$AAr?$AAe?$AAm?$AAo?$AAt?$AAe?$AA?5?$AA?$CG?$AA?$CG?$AA?5?$AAm?$AA_?$AAr?$AAe?$AAm?$AA?$AA@ 00528a60     pjmedia-i386-win32-vc8-debug:transport_srtp.obj
 0003:0000fa90       ??_C@_0BI@MOAPCAF@Should?5never?5reach?5here?$AA@ 00528a90     pjmedia-i386-win32-vc8-debug:transport_srtp.obj
 0003:0000faac       ??_C@_1DG@DDFOJFNA@?$AA?$CB?$AA?$CC?$AAS?$AAh?$AAo?$AAu?$AAl?$AAd?$AA?5?$AAn?$AAe?$AAv?$AAe?$AAr?$AA?5?$AAr?$AAe?$AAa?$AAc?$AAh?$AA?5?$AAh?$AAe?$AAr?$AAe?$AA?$CC?$AA?$AA@ 00528aac     pjmedia-i386-win32-vc8-debug:transport_srtp.obj
 0003:0000faf0       ??_C@_1EM@GOCGNPBL@?$AAt?$AAp?$AA?5?$AA?$CG?$AA?$CG?$AA?5?$AAp?$AAo?$AAo?$AAl?$AA?5?$AA?$CG?$AA?$CG?$AA?5?$AAs?$AAd?$AAp?$AA_?$AAl?$AAo?$AAc?$AAa?$AAl?$AA?5?$AA?$CG?$AA?$CG?$AA?5?$AAs?$AAd?$AAp?$AA_?$AAr@ 00528af0     pjmedia-i386-win32-vc8-debug:transport_srtp.obj
 0003:0000fb4c       ??_C@_0CN@IMPBKLBH@SRTP?5failed?5stop?5underlying?5medi@ 00528b4c     pjmedia-i386-win32-vc8-debug:transport_srtp.obj
 0003:0000fb84       ??_C@_1DE@DOJDHBHH@?$AAt?$AAp?$AA?5?$AA?$CG?$AA?$CG?$AA?5?$AAp?$AAk?$AAt?$AA?5?$AA?$CG?$AA?$CG?$AA?5?$AA?$CI?$AA?$CK?$AAp?$AAk?$AAt?$AA_?$AAl?$AAe?$AAn?$AA?$DO?$AA0?$AA?$CJ?$AA?$AA@ 00528b84     pjmedia-i386-win32-vc8-debug:transport_srtp.obj
 0003:0000fbc4       ??_C@_1CK@KNFDBKGE@?$AAs?$AAr?$AAt?$AAp?$AA?9?$AA?$DO?$AAs?$AAe?$AAs?$AAs?$AAi?$AAo?$AAn?$AA_?$AAi?$AAn?$AAi?$AAt?$AAe?$AAd?$AA?$AA@ 00528bc4     pjmedia-i386-win32-vc8-debug:transport_srtp.obj
 0003:0000fbf8       ??_C@_1MK@MHFPDLNJ@?$AAc?$AA?3?$AA?2?$AAu?$AAs?$AAe?$AAr?$AAs?$AA?2?$AA9?$AA2?$AA0?$AA0?$AA?2?$AAd?$AAe?$AAs?$AAk?$AAt?$AAo?$AAp?$AA?2?$AAw?$AAo?$AAr?$AAk?$AA?2?$AAp?$AA2?$AAp?$AA?2?$AAp@ 00528bf8     pjmedia-i386-win32-vc8-debug:echo_suppress.obj
 0003:0000fcf0       ??_C@_1FI@MAGEJIAJ@?$AAs?$AAa?$AAm?$AAp?$AAl?$AAe?$AAs?$AA_?$AAp?$AAe?$AAr?$AA_?$AAf?$AAr?$AAa?$AAm?$AAe?$AA?5?$AA?$DO?$AA?$DN?$AA?5?$AA1?$AA0?$AA?5?$AA?$CK?$AA?5?$AAc?$AAl?$AAo?$AAc?$AAk?$AA_@ 00528cf0     pjmedia-i386-win32-vc8-debug:echo_suppress.obj
 0003:0000fd5c       ??_C@_0CK@GILFEPIK@Echo?5suppressor?5soft?5reset?4?5Re?9l@ 00528d5c     pjmedia-i386-win32-vc8-debug:echo_suppress.obj
 0003:0000fd90       ??_C@_0BA@GIJBCBML@echo_suppress?4c?$AA@ 00528d90     pjmedia-i386-win32-vc8-debug:echo_suppress.obj
 0003:0000fda4       ??_C@_1CM@DHJONFKH@?$AAe?$AAc?$AA?9?$AA?$DO?$AAt?$AAm?$AAp?$AA_?$AAf?$AAa?$AAc?$AAt?$AAo?$AAr?$AA?$FL?$AAi?$AA?$FN?$AA?5?$AA?$DM?$AA?5?$AA1?$AA?$AA@ 00528da4     pjmedia-i386-win32-vc8-debug:echo_suppress.obj
 0003:0000fdd8       ??_C@_0FL@JMGHEEIK@Echo?5suppressor?5updated?5at?5t?$DN?$CF03@ 00528dd8     pjmedia-i386-win32-vc8-debug:echo_suppress.obj
 0003:0000fe48       ??_C@_0FK@NODMKGEL@Echo?5suppressor?5learning?5done?5at@ 00528e48     pjmedia-i386-win32-vc8-debug:echo_suppress.obj
 0003:0000feb4       ??_C@_17GIJBGODF@?$AAN?$AA?$DO?$AA0?$AA?$AA@ 00528eb4     pjmedia-i386-win32-vc8-debug:echo_suppress.obj
 0003:0000fec0       ??_C@_0CC@OBLDMFND@Echo?5suppressor?5residue?5?$DN?5?$CFd?4?$CF03@ 00528ec0     pjmedia-i386-win32-vc8-debug:echo_suppress.obj
 0003:0000fee8       __real@00000000            00528ee8     pjmedia-i386-win32-vc8-debug:echo_suppress.obj
 0003:0000feec       __real@3f800000            00528eec     pjmedia-i386-win32-vc8-debug:echo_suppress.obj
 0003:0000fef0       __real@40000000            00528ef0     pjmedia-i386-win32-vc8-debug:echo_suppress.obj
 0003:0000fef8       __real@4004000000000000    00528ef8     pjmedia-i386-win32-vc8-debug:echo_suppress.obj
 0003:0000ff04       __real@40400000            00528f04     pjmedia-i386-win32-vc8-debug:echo_suppress.obj
 0003:0000ff08       __real@41980000            00528f08     pjmedia-i386-win32-vc8-debug:echo_suppress.obj
 0003:0000ff0c       __real@41a00000            00528f0c     pjmedia-i386-win32-vc8-debug:echo_suppress.obj
 0003:0000ff10       __real@447a0000            00528f10     pjmedia-i386-win32-vc8-debug:echo_suppress.obj
 0003:0000ff14       __real@7efffff8            00528f14     pjmedia-i386-win32-vc8-debug:echo_suppress.obj
 0003:0000ff20       __xmm@41f00000000000000000000000000000 00528f20     pjmedia-i386-win32-vc8-debug:echo_suppress.obj
 0003:0000ff40       __xmm@80000000800000008000000080000000 00528f40     pjmedia-i386-win32-vc8-debug:echo_suppress.obj
 0003:0000ff58       ??_C@_1ME@KBFMFIIM@?$AAc?$AA?3?$AA?2?$AAu?$AAs?$AAe?$AAr?$AAs?$AA?2?$AA9?$AA2?$AA0?$AA0?$AA?2?$AAd?$AAe?$AAs?$AAk?$AAt?$AAo?$AAp?$AA?2?$AAw?$AAo?$AAr?$AAk?$AA?2?$AAp?$AA2?$AAp?$AA?2?$AAp@ 00528f58     pjmedia-i386-win32-vc8-debug:echo_speex.obj
 0003:00010044       ??_C@_1CI@PJIDEBKE@?$AAe?$AAc?$AAh?$AAo?$AA?5?$AA?$CB?$AA?$DN?$AA?5?$AA?$CI?$AA?$CI?$AAv?$AAo?$AAi?$AAd?$AA?5?$AA?$CK?$AA?$CJ?$AA0?$AA?$CJ?$AA?$AA@ 00529044     pjmedia-i386-win32-vc8-debug:echo_speex.obj
 0003:00010078       ??_C@_0EK@HDJKCMHE@Multichannel?5EC?5is?5not?5supported@ 00529078     pjmedia-i386-win32-vc8-debug:echo_speex.obj
 0003:000100d0       ??_C@_0N@MOFPDDJO@echo_speex?4c?$AA@ 005290d0     pjmedia-i386-win32-vc8-debug:echo_speex.obj
 0003:000100e0       ??_C@_1DO@OECGDPCF@?$AAe?$AAc?$AAh?$AAo?$AA?9?$AA?$DO?$AAt?$AAm?$AAp?$AA_?$AAf?$AAr?$AAa?$AAm?$AAe?$AA?5?$AA?$CB?$AA?$DN?$AA?5?$AA?$CI?$AA?$CI?$AAv?$AAo?$AAi?$AAd?$AA?5?$AA?$CK?$AA?$CJ?$AA0?$AA?$CJ?$AA?$AA@ 005290e0     pjmedia-i386-win32-vc8-debug:echo_speex.obj
 0003:0001012c       ??_C@_1CI@KLAOEAOO@?$AAe?$AAc?$AAh?$AAo?$AA?5?$AA?$CG?$AA?$CG?$AA?5?$AAe?$AAc?$AAh?$AAo?$AA?9?$AA?$DO?$AAs?$AAt?$AAa?$AAt?$AAe?$AA?$AA@ 0052912c     pjmedia-i386-win32-vc8-debug:echo_speex.obj
 0003:00010160       ??_C@_1IG@KBIFAHBP@?$AAe?$AAc?$AAh?$AAo?$AA?5?$AA?$CG?$AA?$CG?$AA?5?$AAr?$AAe?$AAc?$AA_?$AAf?$AAr?$AAm?$AA?5?$AA?$CG?$AA?$CG?$AA?5?$AAp?$AAl?$AAa?$AAy?$AA_?$AAf?$AAr?$AAm?$AA?5?$AA?$CG?$AA?$CG?$AA?5?$AAo@ 00529160     pjmedia-i386-win32-vc8-debug:echo_speex.obj
 0003:00010200       ??_C@_1CC@MPNLLOCM@?$AAe?$AAc?$AAh?$AAo?$AA?5?$AA?$CG?$AA?$CG?$AA?5?$AAp?$AAl?$AAa?$AAy?$AA_?$AAf?$AAr?$AAm?$AA?$AA@ 00529200     pjmedia-i386-win32-vc8-debug:echo_speex.obj
 0003:00010228       ??_C@_1CA@BNCIIIAN@?$AAe?$AAc?$AAh?$AAo?$AA?5?$AA?$CG?$AA?$CG?$AA?5?$AAr?$AAe?$AAc?$AA_?$AAf?$AAr?$AAm?$AA?$AA@ 00529228     pjmedia-i386-win32-vc8-debug:echo_speex.obj
 0003:00010250       ??_C@_1MA@PINDBAIO@?$AAc?$AA?3?$AA?2?$AAu?$AAs?$AAe?$AAr?$AAs?$AA?2?$AA9?$AA2?$AA0?$AA0?$AA?2?$AAd?$AAe?$AAs?$AAk?$AAt?$AAo?$AAp?$AA?2?$AAw?$AAo?$AAr?$AAk?$AA?2?$AAp?$AA2?$AAp?$AA?2?$AAp@ 00529250     pjmedia-i386-win32-vc8-debug:delaybuf.obj
 0003:00010338       ??_C@_1IA@DDDBCBDL@?$AAp?$AAo?$AAo?$AAl?$AA?5?$AA?$CG?$AA?$CG?$AA?5?$AAs?$AAa?$AAm?$AAp?$AAl?$AAe?$AAs?$AA_?$AAp?$AAe?$AAr?$AA_?$AAf?$AAr?$AAa?$AAm?$AAe?$AA?5?$AA?$CG?$AA?$CG?$AA?5?$AAc?$AAl?$AAo@ 00529338     pjmedia-i386-win32-vc8-debug:delaybuf.obj
 0003:000103d4       ??_C@_08LLMLEOE@delaybuf?$AA@ 005293d4     pjmedia-i386-win32-vc8-debug:delaybuf.obj
 0003:000103e0       ??_C@_0BP@CKANIKAH@Using?5delay?5buffer?5with?5WSOLA?4?$AA@ 005293e0     pjmedia-i386-win32-vc8-debug:delaybuf.obj
 0003:00010408       ??_C@_0CA@BKBNPCON@Using?5simple?5FIFO?5delay?5buffer?4?$AA@ 00529408     pjmedia-i386-win32-vc8-debug:delaybuf.obj
 0003:00010430       ??_C@_13EPJEBPGL@?$AAb?$AA?$AA@ 00529430     pjmedia-i386-win32-vc8-debug:delaybuf.obj
 0003:00010438       ??_C@_1HA@CEPCLGKM@?$AAb?$AA?5?$AA?$CG?$AA?$CG?$AA?5?$AAe?$AAr?$AAa?$AAs?$AAe?$AA_?$AAc?$AAn?$AAt?$AA?5?$AA?$CG?$AA?$CG?$AA?5?$AAp?$AAj?$AAm?$AAe?$AAd?$AAi?$AAa?$AA_?$AAc?$AAi?$AAr?$AAc?$AA_?$AAb@ 00529438     pjmedia-i386-win32-vc8-debug:delaybuf.obj
 0003:000104c0       ??_C@_0BP@JJBHJNOO@?$CFd?5samples?5reduced?0?5buf_cnt?$DN?$CFd?$AA@ 005294c0     pjmedia-i386-win32-vc8-debug:delaybuf.obj
 0003:000104e8       ??_C@_0DA@FPCBOFHC@Buffer?5size?5adjusted?5from?5?$CFd?5to?5@ 005294e8     pjmedia-i386-win32-vc8-debug:delaybuf.obj
 0003:00010524       ??_C@_1BG@GKFLCPLJ@?$AAb?$AA?5?$AA?$CG?$AA?$CG?$AA?5?$AAf?$AAr?$AAa?$AAm?$AAe?$AA?$AA@ 00529524     pjmedia-i386-win32-vc8-debug:delaybuf.obj
 0003:00010540       ??_C@_0CD@DJOCKALK@Shrinking?5failed?5or?5insufficient@ 00529540     pjmedia-i386-win32-vc8-debug:delaybuf.obj
 0003:0001056c       ??_C@_0CJ@KJHKGIAO@?$CFsDropping?5?$CFd?5eldest?5samples?0?5bu@ 0052956c     pjmedia-i386-win32-vc8-debug:delaybuf.obj
 0003:000105a0       ??_C@_0CN@FEOJBHHF@Underflow?0?5buf_cnt?$DN?$CFd?0?5will?5gene@ 005295a0     pjmedia-i386-win32-vc8-debug:delaybuf.obj
 0003:000105d8       ??_C@_0CC@NNEAKFHB@Error?5generating?5frame?0?5status?$DN?$CF@ 005295d8     pjmedia-i386-win32-vc8-debug:delaybuf.obj
 0003:00010600       ??_C@_0BG@OCJPAJA@Delay?5buffer?5is?5reset?$AA@ 00529600     pjmedia-i386-win32-vc8-debug:delaybuf.obj
 0003:00010620       ??_C@_1ME@GANJHKLM@?$AAc?$AA?3?$AA?2?$AAu?$AAs?$AAe?$AAr?$AAs?$AA?2?$AA9?$AA2?$AA0?$AA0?$AA?2?$AAd?$AAe?$AAs?$AAk?$AAt?$AAo?$AAp?$AA?2?$AAw?$AAo?$AAr?$AAk?$AA?2?$AAp?$AA2?$AAp?$AA?2?$AAp@ 00529620     pjmedia-i386-win32-vc8-debug:silencedet.obj
 0003:0001070c       ??_C@_1BK@JPOKJPGF@?$AAp?$AAo?$AAo?$AAl?$AA?5?$AA?$CG?$AA?$CG?$AA?5?$AAp?$AA_?$AAs?$AAd?$AA?$AA@ 0052970c     pjmedia-i386-win32-vc8-debug:silencedet.obj
 0003:0001072c       ??_C@_04CCFCAPFE@sd?$CFp?$AA@ 0052972c     pjmedia-i386-win32-vc8-debug:silencedet.obj
 0003:00010734       ??_C@_1BG@LLODMODC@?$AAs?$AAd?$AA?5?$AA?$CG?$AA?$CG?$AA?5?$AAn?$AAa?$AAm?$AAe?$AA?$AA@ 00529734     pjmedia-i386-win32-vc8-debug:silencedet.obj
 0003:00010750       ??_C@_15HHMPEBGH@?$AAs?$AAd?$AA?$AA@ 00529750     pjmedia-i386-win32-vc8-debug:silencedet.obj
 0003:00010758       ??_C@_0CJ@FEGDIEOD@Re?9adjust?5threshold?5?$CIin?5talk?5bur@ 00529758     pjmedia-i386-win32-vc8-debug:silencedet.obj
 0003:0001078c       ??_C@_0N@GGOMHLHN@silencedet?4c?$AA@ 0052978c     pjmedia-i386-win32-vc8-debug:silencedet.obj
 0003:0001079c       ??_C@_0CM@HFHDPICL@Starting?5talk?5burst?5?$CIlevel?$DN?$CFd?5th@ 0052979c     pjmedia-i386-win32-vc8-debug:silencedet.obj
 0003:000107d0       ??_C@_13COJANIEC@?$AA0?$AA?$AA@ 005297d0     pjmedia-i386-win32-vc8-debug:silencedet.obj
 0003:000107d4       ??_C@_0CG@DGOMOKAK@Re?9adjust?5threshold?5?$CIin?5silence?$CJ@ 005297d4     pjmedia-i386-win32-vc8-debug:silencedet.obj
 0003:00010804       ??_C@_0CJ@HMFIAFFP@Starting?5silence?5?$CIlevel?$DN?$CFd?5thres@ 00529804     pjmedia-i386-win32-vc8-debug:silencedet.obj
 0003:00010838       ??_C@_1LK@DOJDDGPH@?$AAc?$AA?3?$AA?2?$AAu?$AAs?$AAe?$AAr?$AAs?$AA?2?$AA9?$AA2?$AA0?$AA0?$AA?2?$AAd?$AAe?$AAs?$AAk?$AAt?$AAo?$AAp?$AA?2?$AAw?$AAo?$AAr?$AAk?$AA?2?$AAp?$AA2?$AAp?$AA?2?$AAp@ 00529838     pjmedia-i386-win32-vc8-debug:wsola.obj
 0003:00010918       ??_C@_1GG@IAKBIPBK@?$AAp?$AAo?$AAo?$AAl?$AA?5?$AA?$CG?$AA?$CG?$AA?5?$AAc?$AAl?$AAo?$AAc?$AAk?$AA_?$AAr?$AAa?$AAt?$AAe?$AA?5?$AA?$CG?$AA?$CG?$AA?5?$AAs?$AAa?$AAm?$AAp?$AAl?$AAe?$AAs?$AA_?$AAp?$AAe@ 00529918     pjmedia-i386-win32-vc8-debug:wsola.obj
 0003:00010994       ??_C@_1CI@CPJHFBDP@?$AAc?$AAl?$AAo?$AAc?$AAk?$AA_?$AAr?$AAa?$AAt?$AAe?$AA?5?$AA?$DM?$AA?$DN?$AA?5?$AA6?$AA5?$AA5?$AA3?$AA5?$AA?$AA@ 00529994     pjmedia-i386-win32-vc8-debug:wsola.obj
 0003:000109c4       ??_C@_1DO@HNOJLLOB@?$AAs?$AAa?$AAm?$AAp?$AAl?$AAe?$AAs?$AA_?$AAp?$AAe?$AAr?$AA_?$AAf?$AAr?$AAa?$AAm?$AAe?$AA?5?$AA?$DM?$AA?5?$AAc?$AAl?$AAo?$AAc?$AAk?$AA_?$AAr?$AAa?$AAt?$AAe?$AA?$AA@ 005299c4     pjmedia-i386-win32-vc8-debug:wsola.obj
 0003:00010a10       ??_C@_1CE@HKIMEAPL@?$AAc?$AAh?$AAa?$AAn?$AAn?$AAe?$AAl?$AA_?$AAc?$AAo?$AAu?$AAn?$AAt?$AA?5?$AA?$DO?$AA?5?$AA0?$AA?$AA@ 00529a10     pjmedia-i386-win32-vc8-debug:wsola.obj
 0003:00010a3c       ??_C@_0BO@PBEKEGBF@Failed?5to?5create?5circular?5buf?$AA@ 00529a3c     pjmedia-i386-win32-vc8-debug:wsola.obj
 0003:00010a60       ??_C@_07LLDBJGIC@wsola?4c?$AA@ 00529a60     pjmedia-i386-win32-vc8-debug:wsola.obj
 0003:00010a70       ??_C@_1FC@ONNECCLI@?$AAw?$AAs?$AAo?$AAl?$AAa?$AA?9?$AA?$DO?$AAt?$AAe?$AAm?$AAp?$AAl?$AA_?$AAs?$AAi?$AAz?$AAe?$AA?5?$AA?$DM?$AA?$DN?$AA?5?$AAw?$AAs?$AAo?$AAl?$AAa?$AA?9?$AA?$DO?$AAh?$AAa?$AAn?$AAn@ 00529a70     pjmedia-i386-win32-vc8-debug:wsola.obj
 0003:00010ad4       ??_C@_1M@DMOBICCA@?$AAw?$AAs?$AAo?$AAl?$AAa?$AA?$AA@ 00529ad4     pjmedia-i386-win32-vc8-debug:wsola.obj
 0003:00010ae4       ??_C@_1CI@POPKIGC@?$AAw?$AAs?$AAo?$AAl?$AAa?$AA?5?$AA?$CG?$AA?$CG?$AA?5?$AAo?$AAp?$AAt?$AAi?$AAo?$AAn?$AAs?$AA?$DN?$AA?$DN?$AA0?$AA?$AA@ 00529ae4     pjmedia-i386-win32-vc8-debug:wsola.obj
 0003:00010b14       ??_C@_0CD@BICDEMGJ@WSOLA?5buffer?5size?5may?5be?5to?5smal@ 00529b14     pjmedia-i386-win32-vc8-debug:wsola.obj
 0003:00010b40       ??_C@_1EM@MPJCGMLC@?$AA?$CB?$AA?$CC?$AAW?$AAS?$AAO?$AAL?$AAA?$AA?5?$AAb?$AAu?$AAf?$AAf?$AAe?$AAr?$AA?5?$AAs?$AAi?$AAz?$AAe?$AA?5?$AAm?$AAa?$AAy?$AA?5?$AAb?$AAe?$AA?5?$AAt?$AAo?$AA?5?$AAs?$AAm@ 00529b40     pjmedia-i386-win32-vc8-debug:wsola.obj
 0003:00010ba0       ??_C@_1EK@EPLDJPJP@?$AAw?$AAs?$AAo?$AAl?$AAa?$AA?5?$AA?$CG?$AA?$CG?$AA?5?$AAb?$AAu?$AAf?$AA1?$AA?5?$AA?$CG?$AA?$CG?$AA?5?$AAb?$AAu?$AAf?$AA1?$AA_?$AAc?$AAn?$AAt?$AA?5?$AA?$CG?$AA?$CG?$AA?5?$AAd?$AAe?$AAl@ 00529ba0     pjmedia-i386-win32-vc8-debug:wsola.obj
 0003:00010bf8       ??_C@_1BC@NPKJGPLM@?$AA?$CK?$AAd?$AAe?$AAl?$AA_?$AAc?$AAn?$AAt?$AA?$AA@ 00529bf8     pjmedia-i386-win32-vc8-debug:wsola.obj
 0003:00010c10       ??_C@_19KJFIAAFN@?$AAb?$AAu?$AAf?$AA2?$AA?$AA@ 00529c10     pjmedia-i386-win32-vc8-debug:wsola.obj
 0003:00010c1c       ??_C@_0BJ@IJOBNPHA@WSOLA?5need?5erase?5buffer?$CB?$AA@ 00529c1c     pjmedia-i386-win32-vc8-debug:wsola.obj
 0003:00010c3c       ??_C@_1DI@CFNECNLA@?$AA?$CB?$AA?$CC?$AAW?$AAS?$AAO?$AAL?$AAA?$AA?5?$AAn?$AAe?$AAe?$AAd?$AA?5?$AAe?$AAr?$AAa?$AAs?$AAe?$AA?5?$AAb?$AAu?$AAf?$AAf?$AAe?$AAr?$AA?$CB?$AA?$CC?$AA?$AA@ 00529c3c     pjmedia-i386-win32-vc8-debug:wsola.obj
 0003:00010c80       __real@0000000000000000    00529c80     pjmedia-i386-win32-vc8-debug:wsola.obj
 0003:00010c90       __real@3fe0000000000000    00529c90     pjmedia-i386-win32-vc8-debug:wsola.obj
 0003:00010ca0       __real@3ff0000000000000    00529ca0     pjmedia-i386-win32-vc8-debug:wsola.obj
 0003:00010cb0       __real@3ff8000000000000    00529cb0     pjmedia-i386-win32-vc8-debug:wsola.obj
 0003:00010cc0       __real@401921fb54442d18    00529cc0     pjmedia-i386-win32-vc8-debug:wsola.obj
 0003:00010ccc       ??_C@_02BAABKJLB@?9?9?$AA@ 00529ccc     pjlib-util-i386-win32-vc8-debug:getopt.obj
 0003:00010cd0       ??_C@_1MK@OLPEDOND@?$AAc?$AA?3?$AA?2?$AAu?$AAs?$AAe?$AAr?$AAs?$AA?2?$AA9?$AA2?$AA0?$AA0?$AA?2?$AAd?$AAe?$AAs?$AAk?$AAt?$AAo?$AAp?$AA?2?$AAw?$AAo?$AAr?$AAk?$AA?2?$AAp?$AA2?$AAp?$AA?2?$AAp@ 00529cd0     pjlib-util-i386-win32-vc8-debug:scanner.obj
 0003:00010dc4       ??_C@_1BG@BNCNGJJK@?$AAc?$AAs?$AAt?$AAa?$AAr?$AAt?$AA?5?$AA?$DO?$AA?5?$AA0?$AA?$AA@ 00529dc4     pjlib-util-i386-win32-vc8-debug:scanner.obj
 0003:00010de0       ??_C@_0GF@EFICCEPJ@c?3?2users?29200?2desktop?2work?2p2p?2p@ 00529de0     pjlib-util-i386-win32-vc8-debug:scanner.obj
 0003:00010e5c       ??_C@_1DA@FEHFDNDH@?$AAp?$AAj?$AA_?$AAc?$AAi?$AAs?$AA_?$AAm?$AAa?$AAt?$AAc?$AAh?$AA?$CI?$AAs?$AAp?$AAe?$AAc?$AA?0?$AA0?$AA?$CJ?$AA?$DN?$AA?$DN?$AA0?$AA?$AA@ 00529e5c     pjlib-util-i386-win32-vc8-debug:scanner.obj
 0003:00010e98       ??_C@_1DE@FFIKCEEP@?$AAp?$AAj?$AA_?$AAc?$AAi?$AAs?$AA_?$AAm?$AAa?$AAt?$AAc?$AAh?$AA?$CI?$AAs?$AAp?$AAe?$AAc?$AA?0?$AA?8?$AA?$CF?$AA?8?$AA?$CJ?$AA?$DN?$AA?$DN?$AA0?$AA?$AA@ 00529e98     pjlib-util-i386-win32-vc8-debug:scanner.obj
 0003:00010ed8       ??_C@_1BE@DNGPADLB@?$AAq?$AAs?$AAi?$AAz?$AAe?$AA?5?$AA?$DO?$AA?5?$AA0?$AA?$AA@ 00529ed8     pjlib-util-i386-win32-vc8-debug:scanner.obj
 0003:00010f40       ??_C@_1MI@NIGDHAKH@?$AAc?$AA?3?$AA?2?$AAu?$AAs?$AAe?$AAr?$AAs?$AA?2?$AA9?$AA2?$AA0?$AA0?$AA?2?$AAd?$AAe?$AAs?$AAk?$AAt?$AAo?$AAp?$AA?2?$AAw?$AAo?$AAr?$AAk?$AA?2?$AAp?$AA2?$AAp?$AA?2?$AAp@ 00529f40     pjlib-util-i386-win32-vc8-debug:base64.obj
 0003:00011030       ??_C@_1DG@FBBIODPK@?$AAi?$AAn?$AAp?$AAu?$AAt?$AA?5?$AA?$CG?$AA?$CG?$AA?5?$AAo?$AAu?$AAt?$AAp?$AAu?$AAt?$AA?5?$AA?$CG?$AA?$CG?$AA?5?$AAo?$AAu?$AAt?$AA_?$AAl?$AAe?$AAn?$AA?$AA@ 0052a030     pjlib-util-i386-win32-vc8-debug:base64.obj
 0003:00011070       ??_C@_1EC@PACNHEMO@?$AA?$CK?$AAo?$AAu?$AAt?$AA_?$AAl?$AAe?$AAn?$AA?5?$AA?$DO?$AA?$DN?$AA?5?$AA?$CI?$AAi?$AAn?$AA_?$AAl?$AAe?$AAn?$AA?5?$AA?$CK?$AA?5?$AA4?$AA?5?$AA?1?$AA?5?$AA3?$AA?5?$AA?$CL?$AA?5?$AA3?$AA?$CJ@ 0052a070     pjlib-util-i386-win32-vc8-debug:base64.obj
 0003:000110c0       ??_C@_1DA@PGJCBFEE@?$AAi?$AAn?$AAp?$AAu?$AAt?$AA?5?$AA?$CG?$AA?$CG?$AA?5?$AAo?$AAu?$AAt?$AA?5?$AA?$CG?$AA?$CG?$AA?5?$AAo?$AAu?$AAt?$AA_?$AAl?$AAe?$AAn?$AA?$AA@ 0052a0c0     pjlib-util-i386-win32-vc8-debug:base64.obj
 0003:000110fc       ??_C@_1DE@FJIMPKJC@?$AA?$CK?$AAo?$AAu?$AAt?$AA_?$AAl?$AAe?$AAn?$AA?5?$AA?$DO?$AA?$DN?$AA?5?$AA?$CI?$AAl?$AAe?$AAn?$AA?5?$AA?$CK?$AA?5?$AA3?$AA?5?$AA?1?$AA?5?$AA4?$AA?$CJ?$AA?$AA@ 0052a0fc     pjlib-util-i386-win32-vc8-debug:base64.obj
 0003:0001113c       ??_C@_1BK@IGKMLFDG@?$AAj?$AA?5?$AA?$DM?$AA?5?$AA?$CK?$AAo?$AAu?$AAt?$AA_?$AAl?$AAe?$AAn?$AA?$AA@ 0052a13c     pjlib-util-i386-win32-vc8-debug:base64.obj
 0003:0001115c       ??_C@_04IFCNACLH@pj?$CFp?$AA@ 0052a15c     pjlib-i386-win32-vc8-debug:os_core_win32.obj
 0003:00011164       ??_C@_0BA@NGJFHJA@PJLIB?1No?5memory?$AA@ 0052a164     pjlib-i386-win32-vc8-debug:os_core_win32.obj
 0003:00011178       ??_C@_1LM@GAMFFAHP@?$AAc?$AA?3?$AA?2?$AAu?$AAs?$AAe?$AAr?$AAs?$AA?2?$AA9?$AA2?$AA0?$AA0?$AA?2?$AAd?$AAe?$AAs?$AAk?$AAt?$AAo?$AAp?$AA?2?$AAw?$AAo?$AAr?$AAk?$AA?2?$AAp?$AA2?$AAp?$AA?2?$AAp@ 0052a178     pjlib-i386-win32-vc8-debug:os_core_win32.obj
 0003:0001125c       ??_C@_1CC@OPMEMEDD@?$AAi?$AAn?$AAi?$AAt?$AAi?$AAa?$AAl?$AAi?$AAz?$AAe?$AAd?$AA?5?$AA?$DN?$AA?$DN?$AA?5?$AA1?$AA?$AA@ 0052a25c     pjlib-i386-win32-vc8-debug:os_core_win32.obj
 0003:00011284       ??_C@_0BP@NGEKBPIB@pjlib?5?$CFs?5for?5win32?5initialized?$AA@ 0052a284     pjlib-i386-win32-vc8-debug:os_core_win32.obj
 0003:000112ac       ??_C@_0BA@FNCACAIG@os_core_win32?4c?$AA@ 0052a2ac     pjlib-i386-win32-vc8-debug:os_core_win32.obj
 0003:000112c0       ??_C@_1CA@HCJBFJFA@?$AAi?$AAn?$AAi?$AAt?$AAi?$AAa?$AAl?$AAi?$AAz?$AAe?$AAd?$AA?5?$AA?$DO?$AA?5?$AA0?$AA?$AA@ 0052a2c0     pjlib-i386-win32-vc8-debug:os_core_win32.obj
 0003:000112e8       ??_C@_0CI@EAKIIBBA@Main?5thread?5stack?5max?5usage?$DN?$CFu?5b@ 0052a2e8     pjlib-i386-win32-vc8-debug:os_core_win32.obj
 0003:00011318       ??_C@_0FO@PKCCFLEP@c?3?2users?29200?2desktop?2work?2p2p?2p@ 0052a318     pjlib-i386-win32-vc8-debug:os_core_win32.obj
 0003:00011388       ??_C@_1O@OOICOHEB@?$AAt?$AAh?$AAr?$AAe?$AAa?$AAd?$AA?$AA@ 0052a388     pjlib-i386-win32-vc8-debug:os_core_win32.obj
 0003:00011398       ??_C@_1DA@EPDLFMNN@?$AAp?$AAr?$AAi?$AAo?$AA?$DO?$AA?$DN?$AA?$CI?$AA?9?$AA1?$AA5?$AA?$CJ?$AA?5?$AA?$CG?$AA?$CG?$AA?5?$AAp?$AAr?$AAi?$AAo?$AA?$DM?$AA?$DN?$AA1?$AA5?$AA?$AA@ 0052a398     pjlib-i386-win32-vc8-debug:os_core_win32.obj
 0003:000113d4       ??_C@_0CA@KDDLBGGI@Not?5enough?5pj_thread_desc?5size?$CB?$AA@ 0052a3d4     pjlib-i386-win32-vc8-debug:os_core_win32.obj
 0003:00011400       ??_C@_1EG@HCJPCAON@?$AA?$CB?$AA?$CC?$AAN?$AAo?$AAt?$AA?5?$AAe?$AAn?$AAo?$AAu?$AAg?$AAh?$AA?5?$AAp?$AAj?$AA_?$AAt?$AAh?$AAr?$AAe?$AAa?$AAd?$AA_?$AAd?$AAe?$AAs?$AAc?$AA?5?$AAs?$AAi?$AAz?$AAe@ 0052a400     pjlib-i386-win32-vc8-debug:os_core_win32.obj
 0003:00011454       ??_C@_05KHEDLION@thr?$CFp?$AA@ 0052a454     pjlib-i386-win32-vc8-debug:os_core_win32.obj
 0003:0001145c       ??_C@_0CC@JLGHEGJO@TLS?5is?5not?5set?5?$CIpj_init?$CI?$CJ?5error?$DP@ 0052a45c     pjlib-i386-win32-vc8-debug:os_core_win32.obj
 0003:00011488       ??_C@_1EK@KGMDGLFJ@?$AA?$CB?$AA?$CC?$AAT?$AAL?$AAS?$AA?5?$AAi?$AAs?$AA?5?$AAn?$AAo?$AAt?$AA?5?$AAs?$AAe?$AAt?$AA?5?$AA?$CI?$AAp?$AAj?$AA_?$AAi?$AAn?$AAi?$AAt?$AA?$CI?$AA?$CJ?$AA?5?$AAe?$AAr?$AAr?$AAo@ 0052a488     pjlib-i386-win32-vc8-debug:os_core_win32.obj
 0003:000114e0       ??_C@_0CD@GPHECFNA@Thread?5stack?5max?5usage?$DN?$CFu?5by?5?$CFs?3@ 0052a4e0     pjlib-i386-win32-vc8-debug:os_core_win32.obj
 0003:0001150c       ??_C@_1DG@GPPEEMGI@?$AAp?$AAo?$AAo?$AAl?$AA?5?$AA?$CG?$AA?$CG?$AA?5?$AAp?$AAr?$AAo?$AAc?$AA?5?$AA?$CG?$AA?$CG?$AA?5?$AAt?$AAh?$AAr?$AAe?$AAa?$AAd?$AA_?$AAp?$AAt?$AAr?$AA?$AA@ 0052a50c     pjlib-i386-win32-vc8-debug:os_core_win32.obj
 0003:0001154c       ??_C@_13LFIEIAHP@?$AAp?$AA?$AA@ 0052a54c     pjlib-i386-win32-vc8-debug:os_core_win32.obj
 0003:00011550       ??_C@_0IN@DGHJHPPL@Calling?5pjlib?5from?5unknown?1exter@ 0052a550     pjlib-i386-win32-vc8-debug:os_core_win32.obj
 0003:00011600       ??_C@_1BCM@LMJGLOKF@?$AA?$CB?$AA?$CC?$AAC?$AAa?$AAl?$AAl?$AAi?$AAn?$AAg?$AA?5?$AAp?$AAj?$AAl?$AAi?$AAb?$AA?5?$AAf?$AAr?$AAo?$AAm?$AA?5?$AAu?$AAn?$AAk?$AAn?$AAo?$AAw?$AAn?$AA?1?$AAe?$AAx?$AAt@ 0052a600     pjlib-i386-win32-vc8-debug:os_core_win32.obj
 0003:00011768       ??_C@_0BC@GDBGMOLB@STACK?5OVERFLOW?$CB?$CB?5?$AA@ 0052a768     pjlib-i386-win32-vc8-debug:os_core_win32.obj
 0003:00011780       ??_C@_1HC@CNEMGLGB@?$AA?$CC?$AAS?$AAT?$AAA?$AAC?$AAK?$AA?5?$AAO?$AAV?$AAE?$AAR?$AAF?$AAL?$AAO?$AAW?$AA?$CB?$AA?$CB?$AA?5?$AA?$CC?$AA?5?$AA?$CG?$AA?$CG?$AA?5?$AA?$CI?$AAu?$AAs?$AAa?$AAg?$AAe?$AA?5?$AA?$DM?$AA?$DN@ 0052a780     pjlib-i386-win32-vc8-debug:os_core_win32.obj
 0003:00011808       ??_C@_17PCHMAMGJ@?$AAv?$AAa?$AAr?$AA?$AA@ 0052a808     pjlib-i386-win32-vc8-debug:os_core_win32.obj
 0003:00011814       ??_C@_1BG@PPEGLHPH@?$AAa?$AAt?$AAo?$AAm?$AAi?$AAc?$AA_?$AAv?$AAa?$AAr?$AA?$AA@ 0052a814     pjlib-i386-win32-vc8-debug:os_core_win32.obj
 0003:00011830       ??_C@_1CK@HHDJMMIF@?$AAi?$AAn?$AAd?$AAe?$AAx?$AA?5?$AA?$CB?$AA?$DN?$AA?5?$AA?$CI?$AA?$CI?$AAv?$AAo?$AAi?$AAd?$AA?5?$AA?$CK?$AA?$CJ?$AA0?$AA?$CJ?$AA?$AA@ 0052a830     pjlib-i386-win32-vc8-debug:os_core_win32.obj
 0003:00011864       ??_C@_05EJDHHBFJ@mtx?$CFp?$AA@ 0052a864     pjlib-i386-win32-vc8-debug:os_core_win32.obj
 0003:0001186c       ??_C@_1CE@MHFMCIAM@?$AAp?$AAo?$AAo?$AAl?$AA?5?$AA?$CG?$AA?$CG?$AA?5?$AAm?$AAu?$AAt?$AAe?$AAx?$AA_?$AAp?$AAt?$AAr?$AA?$AA@ 0052a86c     pjlib-i386-win32-vc8-debug:os_core_win32.obj
 0003:00011898       ??_C@_1M@PMBPJDFK@?$AAm?$AAu?$AAt?$AAe?$AAx?$AA?$AA@ 0052a898     pjlib-i386-win32-vc8-debug:os_core_win32.obj
 0003:000118a8       ??_C@_1EC@GCIAJGPL@?$AAm?$AAu?$AAt?$AAe?$AAx?$AA?9?$AA?$DO?$AAo?$AAw?$AAn?$AAe?$AAr?$AA?5?$AA?$DN?$AA?$DN?$AA?5?$AAp?$AAj?$AA_?$AAt?$AAh?$AAr?$AAe?$AAa?$AAd?$AA_?$AAt?$AAh?$AAi?$AAs?$AA?$CI?$AA?$CJ@ 0052a8a8     pjlib-i386-win32-vc8-debug:os_core_win32.obj
 0003:000118f8       ??_C@_1LG@DHACLDPN@?$AAc?$AA?3?$AA?2?$AAu?$AAs?$AAe?$AAr?$AAs?$AA?2?$AA9?$AA2?$AA0?$AA0?$AA?2?$AAd?$AAe?$AAs?$AAk?$AAt?$AAo?$AAp?$AA?2?$AAw?$AAo?$AAr?$AAk?$AA?2?$AAp?$AA2?$AAp?$AA?2?$AAp@ 0052a8f8     pjlib-i386-win32-vc8-debug:os_core_win32.obj
 0003:000119d4       ??_C@_1CA@LHAPCNHN@?$AAp?$AAo?$AAo?$AAl?$AA?5?$AA?$CG?$AA?$CG?$AA?5?$AAp?$AA_?$AAm?$AAu?$AAt?$AAe?$AAx?$AA?$AA@ 0052a9d4     pjlib-i386-win32-vc8-debug:os_core_win32.obj
 0003:000119fc       ??_C@_0BP@HDILOBIG@This?5pretty?5much?5is?5unexpected?$AA@ 0052a9fc     pjlib-i386-win32-vc8-debug:os_core_win32.obj
 0003:00011a28       ??_C@_1EE@FBNPIAAA@?$AA?$CB?$AA?$CC?$AAT?$AAh?$AAi?$AAs?$AA?5?$AAp?$AAr?$AAe?$AAt?$AAt?$AAy?$AA?5?$AAm?$AAu?$AAc?$AAh?$AA?5?$AAi?$AAs?$AA?5?$AAu?$AAn?$AAe?$AAx?$AAp?$AAe?$AAc?$AAt?$AAe?$AAd@ 0052aa28     pjlib-i386-win32-vc8-debug:os_core_win32.obj
 0003:00011a80       ??_C@_1EE@JKGKFCJM@?$AAm?$AAu?$AAt?$AAe?$AAx?$AA?9?$AA?$DO?$AAr?$AAe?$AAa?$AAd?$AAe?$AAr?$AA_?$AAc?$AAo?$AAu?$AAn?$AAt?$AA?5?$AA?$DM?$AA?5?$AA0?$AAx?$AA7?$AAF?$AAF?$AAF?$AAF?$AAF?$AAF?$AA0@ 0052aa80     pjlib-i386-win32-vc8-debug:os_core_win32.obj
 0003:00011ad4       ??_C@_1DC@HENDGEDB@?$AAm?$AAu?$AAt?$AAe?$AAx?$AA?9?$AA?$DO?$AAr?$AAe?$AAa?$AAd?$AAe?$AAr?$AA_?$AAc?$AAo?$AAu?$AAn?$AAt?$AA?5?$AA?$DO?$AA?$DN?$AA?5?$AA1?$AA?$AA@ 0052aad4     pjlib-i386-win32-vc8-debug:os_core_win32.obj
 0003:00011b10       ??_C@_1DC@HACGLEAM@?$AAm?$AAu?$AAt?$AAe?$AAx?$AA?9?$AA?$DO?$AAr?$AAe?$AAa?$AAd?$AAe?$AAr?$AA_?$AAc?$AAo?$AAu?$AAn?$AAt?$AA?5?$AA?$DM?$AA?$DN?$AA?5?$AA1?$AA?$AA@ 0052ab10     pjlib-i386-win32-vc8-debug:os_core_win32.obj
 0003:00011b4c       ??_C@_1CA@JMCEKLBJ@?$AAp?$AAo?$AAo?$AAl?$AA?5?$AA?$CG?$AA?$CG?$AA?5?$AAs?$AAe?$AAm?$AA_?$AAp?$AAt?$AAr?$AA?$AA@ 0052ab4c     pjlib-i386-win32-vc8-debug:os_core_win32.obj
 0003:00011b74       ??_C@_05EKKMALCN@sem?$CFp?$AA@ 0052ab74     pjlib-i386-win32-vc8-debug:os_core_win32.obj
 0003:00011b7c       ??_C@_17CJHHAHNC@?$AAs?$AAe?$AAm?$AA?$AA@ 0052ab7c     pjlib-i386-win32-vc8-debug:os_core_win32.obj
 0003:00011b88       ??_C@_1CE@LCHMPKLP@?$AAp?$AAo?$AAo?$AAl?$AA?5?$AA?$CG?$AA?$CG?$AA?5?$AAe?$AAv?$AAe?$AAn?$AAt?$AA_?$AAp?$AAt?$AAr?$AA?$AA@ 0052ab88     pjlib-i386-win32-vc8-debug:os_core_win32.obj
 0003:00011bb4       ??_C@_05JFHCBPOM@evt?$CFp?$AA@ 0052abb4     pjlib-i386-win32-vc8-debug:os_core_win32.obj
 0003:00011bbc       ??_C@_1M@IBCECAGJ@?$AAe?$AAv?$AAe?$AAn?$AAt?$AA?$AA@ 0052abbc     pjlib-i386-win32-vc8-debug:os_core_win32.obj
 0003:00011cb8       ??_C@_0BM@FLPPOGAG@Unknown?5Error?5?$CIPJ_EUNKNOWN?$CJ?$AA@ 0052acb8     pjlib-i386-win32-vc8-debug:errno.obj
 0003:00011cdc       ??_C@_0CA@DCLOOJGD@Pending?5operation?5?$CIPJ_EPENDING?$CJ?$AA@ 0052acdc     pjlib-i386-win32-vc8-debug:errno.obj
 0003:00011d04       ??_C@_0CO@GABEOAFF@Too?5many?5connecting?5sockets?5?$CIPJ_@ 0052ad04     pjlib-i386-win32-vc8-debug:errno.obj
 0003:00011d3c       ??_C@_0CG@CBCJBJGD@Invalid?5value?5or?5argument?5?$CIPJ_EI@ 0052ad3c     pjlib-i386-win32-vc8-debug:errno.obj
 0003:00011d6c       ??_C@_0CA@GJABNEKD@Name?5too?5long?5?$CIPJ_ENAMETOOLONG?$CJ?$AA@ 0052ad6c     pjlib-i386-win32-vc8-debug:errno.obj
 0003:00011d94       ??_C@_0BJ@JNKLPII@Not?5found?5?$CIPJ_ENOTFOUND?$CJ?$AA@ 0052ad94     pjlib-i386-win32-vc8-debug:errno.obj
 0003:00011db4       ??_C@_0BO@GOLCMJKK@Not?5enough?5memory?5?$CIPJ_ENOMEM?$CJ?$AA@ 0052adb4     pjlib-i386-win32-vc8-debug:errno.obj
 0003:00011dd8       ??_C@_0BI@HHGDCAID@BUG?5DETECTED?$CB?5?$CIPJ_EBUG?$CJ?$AA@ 0052add8     pjlib-i386-win32-vc8-debug:errno.obj
 0003:00011df4       ??_C@_0CD@JOGIDHPJ@Operation?5timed?5out?5?$CIPJ_ETIMEDOU@ 0052adf4     pjlib-i386-win32-vc8-debug:errno.obj
 0003:00011e20       ??_C@_0DF@MIFNAIHL@Too?5many?5objects?5of?5the?5specifie@ 0052ae20     pjlib-i386-win32-vc8-debug:errno.obj
 0003:00011e60       ??_C@_0BK@OMPILOH@Object?5is?5busy?5?$CIPJ_EBUSY?$CJ?$AA@ 0052ae60     pjlib-i386-win32-vc8-debug:errno.obj
 0003:00011e80       ??_C@_0CP@BAIBJOJE@Option?1operation?5is?5not?5supporte@ 0052ae80     pjlib-i386-win32-vc8-debug:errno.obj
 0003:00011eb8       ??_C@_0CC@OEEEEEML@Invalid?5operation?5?$CIPJ_EINVALIDOP@ 0052aeb8     pjlib-i386-win32-vc8-debug:errno.obj
 0003:00011ee0       ??_C@_0CE@KDDMJLGF@Operation?5cancelled?5?$CIPJ_ECANCELL@ 0052aee0     pjlib-i386-win32-vc8-debug:errno.obj
 0003:00011f0c       ??_C@_0CD@LODOFNLC@Object?5already?5exists?5?$CIPJ_EEXIST@ 0052af0c     pjlib-i386-win32-vc8-debug:errno.obj
 0003:00011f38       ??_C@_0BG@GMBDFNLN@End?5of?5file?5?$CIPJ_EEOF?$CJ?$AA@ 0052af38     pjlib-i386-win32-vc8-debug:errno.obj
 0003:00011f54       ??_C@_0BN@PCCNBFLN@Size?5is?5too?5big?5?$CIPJ_ETOOBIG?$CJ?$AA@ 0052af54     pjlib-i386-win32-vc8-debug:errno.obj
 0003:00011f78       ??_C@_0DB@FDCHLEID@gethostbyname?$CI?$CJ?5has?5returned?5err@ 0052af78     pjlib-i386-win32-vc8-debug:errno.obj
 0003:00011fb4       ??_C@_0CB@MGGLJMNO@Size?5is?5too?5short?5?$CIPJ_ETOOSMALL?$CJ@ 0052afb4     pjlib-i386-win32-vc8-debug:errno.obj
 0003:00011fdc       ??_C@_0BG@NBDJGAFI@Ignored?5?$CIPJ_EIGNORED?$CJ?$AA@ 0052afdc     pjlib-i386-win32-vc8-debug:errno.obj
 0003:00011ff8       ??_C@_0CH@OGOOBJBE@IPv6?5is?5not?5supported?5?$CIPJ_EIPV6N@ 0052aff8     pjlib-i386-win32-vc8-debug:errno.obj
 0003:00012028       ??_C@_0CK@DJAHHNOI@Unsupported?5address?5family?5?$CIPJ_E@ 0052b028     pjlib-i386-win32-vc8-debug:errno.obj
 0003:0001205c       ??_C@_0CD@PDGCJOJH@Object?5no?5longer?5exists?5?$CIPJ_EGON@ 0052b05c     pjlib-i386-win32-vc8-debug:errno.obj
 0003:00012088       ??_C@_0CI@LBHALONI@Socket?5is?5in?5bad?5state?5?$CIPJ_ESOCK@ 0052b088     pjlib-i386-win32-vc8-debug:errno.obj
 0003:000120b8       ??_C@_0BH@ONDLFCEA@Unknown?5pjlib?5error?5?$CFd?$AA@ 0052b0b8     pjlib-i386-win32-vc8-debug:errno.obj
 0003:000120d8       ??_C@_1KM@BCGHDLAH@?$AAc?$AA?3?$AA?2?$AAu?$AAs?$AAe?$AAr?$AAs?$AA?2?$AA9?$AA2?$AA0?$AA0?$AA?2?$AAd?$AAe?$AAs?$AAk?$AAt?$AAo?$AAp?$AA?2?$AAw?$AAo?$AAr?$AAk?$AA?2?$AAp?$AA2?$AAp?$AA?2?$AAp@ 0052b0d8     pjlib-i386-win32-vc8-debug:errno.obj
 0003:000121a8       ??_C@_1CI@LKNPLGGB@?$AAs?$AAt?$AAa?$AAr?$AAt?$AA?5?$AA?$CG?$AA?$CG?$AA?5?$AAs?$AAp?$AAa?$AAc?$AAe?$AA?5?$AA?$CG?$AA?$CG?$AA?5?$AAf?$AA?$AA@ 0052b1a8     pjlib-i386-win32-vc8-debug:errno.obj
 0003:000121d8       ??_C@_1HO@NFELGIHB@?$AAe?$AAr?$AAr?$AA_?$AAm?$AAs?$AAg?$AA_?$AAh?$AAn?$AAd?$AA_?$AAc?$AAn?$AAt?$AA?5?$AA?$DM?$AA?5?$AA?$CI?$AAs?$AAi?$AAz?$AAe?$AAo?$AAf?$AA?$CI?$AAe?$AAr?$AAr?$AA_?$AAm?$AAs@ 0052b1d8     pjlib-i386-win32-vc8-debug:errno.obj
 0003:00012270       ??_C@_1FK@DLNOOHBD@?$AAs?$AAt?$AAa?$AAr?$AAt?$AA?5?$AA?$DO?$AA?$DN?$AA?5?$AA?$CI?$AA?$CI?$AA?$CI?$AA2?$AA0?$AA0?$AA0?$AA0?$AA?5?$AA?$CL?$AA?5?$AA5?$AA0?$AA0?$AA0?$AA0?$AA?$CJ?$AA?5?$AA?$CL?$AA?5?$AA5?$AA0?$AA0@ 0052b270     pjlib-i386-win32-vc8-debug:errno.obj
 0003:000122dc       ??_C@_1BO@OJPHOMAD@?$AAb?$AAu?$AAf?$AA?5?$AA?$CG?$AA?$CG?$AA?5?$AAb?$AAu?$AAf?$AAs?$AAi?$AAz?$AAe?$AA?$AA@ 0052b2dc     pjlib-i386-win32-vc8-debug:errno.obj
 0003:00012300       ??_C@_07PBILKAFL@Success?$AA@ 0052b300     pjlib-i386-win32-vc8-debug:errno.obj
 0003:0001230c       ??_C@_0BB@BIKLJNJD@Unknown?5error?5?$CFd?$AA@ 0052b30c     pjlib-i386-win32-vc8-debug:errno.obj
 0003:00012320       ??_C@_05NAOIJFC@Error?$AA@ 0052b320     pjlib-i386-win32-vc8-debug:errno.obj
 0003:00012328       ??_C@_06DJHOIPC@?$CFs?3?5?$CFs?$AA@ 0052b328     pjlib-i386-win32-vc8-debug:errno.obj
 0003:00012330       ??_C@_0FF@BLIADMFF@c?3?2users?29200?2desktop?2work?2p2p?2p@ 0052b330     pjlib-i386-win32-vc8-debug:pool.obj
 0003:00012398       ??_C@_1KK@LBDIHMJO@?$AAc?$AA?3?$AA?2?$AAu?$AAs?$AAe?$AAr?$AAs?$AA?2?$AA9?$AA2?$AA0?$AA0?$AA?2?$AAd?$AAe?$AAs?$AAk?$AAt?$AAo?$AAp?$AA?2?$AAw?$AAo?$AAr?$AAk?$AA?2?$AAp?$AA2?$AAp?$AA?2?$AAp@ 0052b398     pjlib-i386-win32-vc8-debug:pool.obj
 0003:00012464       ??_C@_1DM@GJMPJMCP@?$AAs?$AAi?$AAz?$AAe?$AA?5?$AA?$DO?$AA?$DN?$AA?5?$AAs?$AAi?$AAz?$AAe?$AAo?$AAf?$AA?$CI?$AAp?$AAj?$AA_?$AAp?$AAo?$AAo?$AAl?$AA_?$AAb?$AAl?$AAo?$AAc?$AAk?$AA?$CJ?$AA?$AA@ 0052b464     pjlib-i386-win32-vc8-debug:pool.obj
 0003:000124ac       ??_C@_1CC@EAFADDBO@?$AAp?$AA?5?$AA?$CB?$AA?$DN?$AA?5?$AA?$CI?$AA?$CI?$AAv?$AAo?$AAi?$AAd?$AA?5?$AA?$CK?$AA?$CJ?$AA0?$AA?$CJ?$AA?$AA@ 0052b4ac     pjlib-i386-win32-vc8-debug:pool.obj
 0003:000124d8       ??_C@_1HA@KHKDBJOJ@?$AAi?$AAn?$AAi?$AAt?$AAi?$AAa?$AAl?$AA_?$AAs?$AAi?$AAz?$AAe?$AA?5?$AA?$DO?$AA?$DN?$AA?5?$AAs?$AAi?$AAz?$AAe?$AAo?$AAf?$AA?$CI?$AAp?$AAj?$AA_?$AAp?$AAo?$AAo?$AAl?$AA_?$AAt@ 0052b4d8     pjlib-i386-win32-vc8-debug:pool.obj
 0003:00012560       ??_C@_0FN@DKAHDGEL@c?3?2users?29200?2desktop?2work?2p2p?2p@ 0052b560     pjlib-i386-win32-vc8-debug:pool_caching.obj
 0003:000125d0       ??_C@_0M@IGFPEOLJ@cachingpool?$AA@ 0052b5d0     pjlib-i386-win32-vc8-debug:pool_caching.obj
 0003:000125e0       ??_C@_0DD@ECGDPCBA@Pool?5is?5not?5released?5by?5applicat@ 0052b5e0     pjlib-i386-win32-vc8-debug:pool_caching.obj
 0003:00012620       ??_C@_1LK@NEKPKDLL@?$AAc?$AA?3?$AA?2?$AAu?$AAs?$AAe?$AAr?$AAs?$AA?2?$AA9?$AA2?$AA0?$AA0?$AA?2?$AAd?$AAe?$AAs?$AAk?$AAt?$AAo?$AAp?$AA?2?$AAw?$AAo?$AAr?$AAk?$AA?2?$AAp?$AA2?$AAp?$AA?2?$AAp@ 0052b620     pjlib-i386-win32-vc8-debug:pool_caching.obj
 0003:00012700       ??_C@_1BG@FEHIFIBG@?$AAp?$AAf?$AA?5?$AA?$CG?$AA?$CG?$AA?5?$AAp?$AAo?$AAo?$AAl?$AA?$AA@ 0052b700     pjlib-i386-win32-vc8-debug:pool_caching.obj
 0003:0001271c       ??_C@_19PJIDINHE@?$AAi?$AA?$DM?$AA1?$AA6?$AA?$AA@ 0052b71c     pjlib-i386-win32-vc8-debug:pool_caching.obj
 0003:00012728       ??_C@_0BH@BBPHJKOA@?5Dumping?5caching?5pool?3?$AA@ 0052b728     pjlib-i386-win32-vc8-debug:pool_caching.obj
 0003:00012744       ??_C@_08COPEICHG@cachpool?$AA@ 0052b744     pjlib-i386-win32-vc8-debug:pool_caching.obj
 0003:00012750       ??_C@_0CN@DOKPIIOH@?5?5?5Capacity?$DN?$CFu?0?5max_capacity?$DN?$CFu?0@ 0052b750     pjlib-i386-win32-vc8-debug:pool_caching.obj
 0003:00012788       ??_C@_0BM@IDLDGCC@?5?5Dumping?5all?5active?5pools?3?$AA@ 0052b788     pjlib-i386-win32-vc8-debug:pool_caching.obj
 0003:000127ac       ??_C@_0CA@MMLIKIEG@?5?5?5?$CF16s?3?5?$CF8d?5of?5?$CF8d?5?$CI?$CFd?$CF?$CF?$CJ?5used?$AA@ 0052b7ac     pjlib-i386-win32-vc8-debug:pool_caching.obj
 0003:000127d4       ??_C@_0CB@GKBJPDKG@?5?5Total?5?$CF9d?5of?5?$CF9d?5?$CI?$CFd?5?$CF?$CF?$CJ?5used?$CB@ 0052b7d4     pjlib-i386-win32-vc8-debug:pool_caching.obj
 0003:000127fc       ??_C@_06DDFOEFIF@FATAL?3?$AA@ 0052b7fc     pjlib-i386-win32-vc8-debug:log.obj
 0003:00012804       ??_C@_06PONDCDME@ERROR?3?$AA@ 0052b804     pjlib-i386-win32-vc8-debug:log.obj
 0003:0001280c       ??_C@_06OHJPOJDB@?5WARN?3?$AA@ 0052b80c     pjlib-i386-win32-vc8-debug:log.obj
 0003:00012814       ??_C@_06ICKKLHPE@?5INFO?3?$AA@ 0052b814     pjlib-i386-win32-vc8-debug:log.obj
 0003:0001281c       ??_C@_06DNOFLLB@DEBUG?3?$AA@ 0052b81c     pjlib-i386-win32-vc8-debug:log.obj
 0003:00012824       ??_C@_06ELIFFDKB@TRACE?3?$AA@ 0052b824     pjlib-i386-win32-vc8-debug:log.obj
 0003:0001282c       ??_C@_06HGKAKJPG@DETRC?3?$AA@ 0052b82c     pjlib-i386-win32-vc8-debug:log.obj
 0003:00012834       ??_C@_03KOEHGMDN@Sun?$AA@  0052b834     pjlib-i386-win32-vc8-debug:log.obj
 0003:00012838       ??_C@_03PDAGKDH@Mon?$AA@   0052b838     pjlib-i386-win32-vc8-debug:log.obj
 0003:0001283c       ??_C@_03NAGEINEP@Tue?$AA@  0052b83c     pjlib-i386-win32-vc8-debug:log.obj
 0003:00012840       ??_C@_03MHOMLAJA@Wed?$AA@  0052b840     pjlib-i386-win32-vc8-debug:log.obj
 0003:00012844       ??_C@_03IOFIKPDN@Thu?$AA@  0052b844     pjlib-i386-win32-vc8-debug:log.obj
 0003:00012848       ??_C@_03IDIOELNC@Fri?$AA@  0052b848     pjlib-i386-win32-vc8-debug:log.obj
 0003:0001284c       ??_C@_03FEFJNEK@Sat?$AA@   0052b84c     pjlib-i386-win32-vc8-debug:log.obj
 0003:00012850       ??_C@_0FE@NCELJMFO@c?3?2users?29200?2desktop?2work?2p2p?2p@ 0052b850     pjlib-i386-win32-vc8-debug:log.obj
 0003:000128b4       ??_C@_0BO@BGMDCDKP@?$DMlogging?5error?3?5msg?5too?5long?$DO?$AA@ 0052b8b4     pjlib-i386-win32-vc8-debug:log.obj
 0003:000128d8       ??_C@_0GD@JIHNNBAJ@c?3?2users?29200?2desktop?2work?2p2p?2p@ 0052b8d8     pjlib-i386-win32-vc8-debug:pool_policy_malloc.obj
 0003:00012950       _PJ_AF_UNSPEC              0052b950     pjlib-i386-win32-vc8-debug:sock_bsd.obj
 0003:00012954       _PJ_AF_UNIX                0052b954     pjlib-i386-win32-vc8-debug:sock_bsd.obj
 0003:00012958       _PJ_AF_INET                0052b958     pjlib-i386-win32-vc8-debug:sock_bsd.obj
 0003:0001295c       _PJ_AF_INET6               0052b95c     pjlib-i386-win32-vc8-debug:sock_bsd.obj
 0003:00012960       _PJ_AF_PACKET              0052b960     pjlib-i386-win32-vc8-debug:sock_bsd.obj
 0003:00012964       _PJ_AF_IRDA                0052b964     pjlib-i386-win32-vc8-debug:sock_bsd.obj
 0003:00012968       _PJ_SOCK_STREAM            0052b968     pjlib-i386-win32-vc8-debug:sock_bsd.obj
 0003:0001296c       _PJ_SOCK_DGRAM             0052b96c     pjlib-i386-win32-vc8-debug:sock_bsd.obj
 0003:00012970       _PJ_SOCK_RAW               0052b970     pjlib-i386-win32-vc8-debug:sock_bsd.obj
 0003:00012974       _PJ_SOCK_RDM               0052b974     pjlib-i386-win32-vc8-debug:sock_bsd.obj
 0003:00012978       _PJ_SOL_SOCKET             0052b978     pjlib-i386-win32-vc8-debug:sock_bsd.obj
 0003:0001297c       _PJ_SOL_IP                 0052b97c     pjlib-i386-win32-vc8-debug:sock_bsd.obj
 0003:00012980       _PJ_SOL_TCP                0052b980     pjlib-i386-win32-vc8-debug:sock_bsd.obj
 0003:00012984       _PJ_SOL_UDP                0052b984     pjlib-i386-win32-vc8-debug:sock_bsd.obj
 0003:00012988       _PJ_SOL_IPV6               0052b988     pjlib-i386-win32-vc8-debug:sock_bsd.obj
 0003:0001298c       _PJ_IP_TOS                 0052b98c     pjlib-i386-win32-vc8-debug:sock_bsd.obj
 0003:00012990       _PJ_IPTOS_LOWDELAY         0052b990     pjlib-i386-win32-vc8-debug:sock_bsd.obj
 0003:00012994       _PJ_IPTOS_THROUGHPUT       0052b994     pjlib-i386-win32-vc8-debug:sock_bsd.obj
 0003:00012998       _PJ_IPTOS_RELIABILITY      0052b998     pjlib-i386-win32-vc8-debug:sock_bsd.obj
 0003:0001299c       _PJ_IPTOS_MINCOST          0052b99c     pjlib-i386-win32-vc8-debug:sock_bsd.obj
 0003:000129a0       _PJ_SO_TYPE                0052b9a0     pjlib-i386-win32-vc8-debug:sock_bsd.obj
 0003:000129a4       _PJ_SO_RCVBUF              0052b9a4     pjlib-i386-win32-vc8-debug:sock_bsd.obj
 0003:000129a8       _PJ_SO_SNDBUF              0052b9a8     pjlib-i386-win32-vc8-debug:sock_bsd.obj
 0003:000129ac       _PJ_TCP_NODELAY            0052b9ac     pjlib-i386-win32-vc8-debug:sock_bsd.obj
 0003:000129b0       _PJ_SO_REUSEADDR           0052b9b0     pjlib-i386-win32-vc8-debug:sock_bsd.obj
 0003:000129b4       _PJ_SO_NOSIGPIPE           0052b9b4     pjlib-i386-win32-vc8-debug:sock_bsd.obj
 0003:000129b8       _PJ_SO_PRIORITY            0052b9b8     pjlib-i386-win32-vc8-debug:sock_bsd.obj
 0003:000129bc       _PJ_IP_MULTICAST_IF        0052b9bc     pjlib-i386-win32-vc8-debug:sock_bsd.obj
 0003:000129c0       _PJ_IP_MULTICAST_TTL       0052b9c0     pjlib-i386-win32-vc8-debug:sock_bsd.obj
 0003:000129c4       _PJ_IP_MULTICAST_LOOP      0052b9c4     pjlib-i386-win32-vc8-debug:sock_bsd.obj
 0003:000129c8       _PJ_IP_ADD_MEMBERSHIP      0052b9c8     pjlib-i386-win32-vc8-debug:sock_bsd.obj
 0003:000129cc       _PJ_IP_DROP_MEMBERSHIP     0052b9cc     pjlib-i386-win32-vc8-debug:sock_bsd.obj
 0003:000129d0       _PJ_MSG_OOB                0052b9d0     pjlib-i386-win32-vc8-debug:sock_bsd.obj
 0003:000129d4       _PJ_MSG_PEEK               0052b9d4     pjlib-i386-win32-vc8-debug:sock_bsd.obj
 0003:000129d8       _PJ_MSG_DONTROUTE          0052b9d8     pjlib-i386-win32-vc8-debug:sock_bsd.obj
 0003:000129f8       ??_C@_1LC@LNBLCGOK@?$AAc?$AA?3?$AA?2?$AAu?$AAs?$AAe?$AAr?$AAs?$AA?2?$AA9?$AA2?$AA0?$AA0?$AA?2?$AAd?$AAe?$AAs?$AAk?$AAt?$AAo?$AAp?$AA?2?$AAw?$AAo?$AAr?$AAk?$AA?2?$AAp?$AA2?$AAp?$AA?2?$AAp@ 0052b9f8     pjlib-i386-win32-vc8-debug:sock_bsd.obj
 0003:00012ad0       ??_C@_1CM@OEECOBPG@?$AAc?$AAp?$AA?5?$AA?$CG?$AA?$CG?$AA?5?$AAc?$AAp?$AA?9?$AA?$DO?$AAs?$AAl?$AAe?$AAn?$AA?5?$AA?$CG?$AA?$CG?$AA?5?$AAi?$AAn?$AAp?$AA?$AA@ 0052bad0     pjlib-i386-win32-vc8-debug:sock_bsd.obj
 0003:00012b08       ??_C@_1EE@BHODCNOF@?$AAa?$AAf?$AA?$DN?$AA?$DN?$AAP?$AAJ?$AA_?$AAA?$AAF?$AA_?$AAI?$AAN?$AAE?$AAT?$AA?5?$AA?$HM?$AA?$HM?$AA?5?$AAa?$AAf?$AA?$DN?$AA?$DN?$AAP?$AAJ?$AA_?$AAA?$AAF?$AA_?$AAI?$AAN?$AAE?$AAT@ 0052bb08     pjlib-i386-win32-vc8-debug:sock_bsd.obj
 0003:00012b5c       ??_C@_1DA@NIAFCNGJ@?$AAs?$AAr?$AAc?$AA?5?$AA?$CG?$AA?$CG?$AA?5?$AAs?$AAr?$AAc?$AA?9?$AA?$DO?$AAs?$AAl?$AAe?$AAn?$AA?5?$AA?$CG?$AA?$CG?$AA?5?$AAd?$AAs?$AAt?$AA?$AA@ 0052bb5c     pjlib-i386-win32-vc8-debug:sock_bsd.obj
 0003:00012b98       ??_C@_1CG@FCIAPMOJ@?$AAs?$AAr?$AAc?$AA?5?$AA?$CG?$AA?$CG?$AA?5?$AAd?$AAs?$AAt?$AA?5?$AA?$CG?$AA?$CG?$AA?5?$AAs?$AAi?$AAz?$AAe?$AA?$AA@ 0052bb98     pjlib-i386-win32-vc8-debug:sock_bsd.obj
 0003:00012bc8       ??_C@_0FJ@OCCBIPDA@c?3?2users?29200?2desktop?2work?2p2p?2p@ 0052bbc8     pjlib-i386-win32-vc8-debug:sock_bsd.obj
 0003:00012c34       ??_C@_1CE@CHKBIEBK@?$AAs?$AAo?$AAc?$AAk?$AA?$CB?$AA?$DN?$AA?$CI?$AA?$CI?$AAv?$AAo?$AAi?$AAd?$AA?5?$AA?$CK?$AA?$CJ?$AA0?$AA?$CJ?$AA?$AA@ 0052bc34     pjlib-i386-win32-vc8-debug:sock_bsd.obj
 0003:00012c60       ??_C@_1FO@NFJOCODB@?$AAa?$AAd?$AAd?$AAr?$AA?5?$AA?$CG?$AA?$CG?$AA?5?$AAl?$AAe?$AAn?$AA?5?$AA?$DO?$AA?$DN?$AA?5?$AA?$CI?$AAi?$AAn?$AAt?$AA?$CJ?$AAs?$AAi?$AAz?$AAe?$AAo?$AAf?$AA?$CI?$AAs?$AAt?$AAr?$AAu?$AAc@ 0052bc60     pjlib-i386-win32-vc8-debug:sock_bsd.obj
 0003:00012cd0       ??_C@_17JOFJILLL@?$AAl?$AAe?$AAn?$AA?$AA@ 0052bcd0     pjlib-i386-win32-vc8-debug:sock_bsd.obj
 0003:00012cdc       ??_C@_1BG@KIOEFHJP@?$AAb?$AAu?$AAf?$AA?5?$AA?$CG?$AA?$CG?$AA?5?$AAl?$AAe?$AAn?$AA?$AA@ 0052bcdc     pjlib-i386-win32-vc8-debug:sock_bsd.obj
 0003:00012cf8       ??_C@_1CC@JEHODAPI@?$AAo?$AAp?$AAt?$AAv?$AAa?$AAl?$AA?5?$AA?$CG?$AA?$CG?$AA?5?$AAo?$AAp?$AAt?$AAl?$AAe?$AAn?$AA?$AA@ 0052bcf8     pjlib-i386-win32-vc8-debug:sock_bsd.obj
 0003:00012d20       ??_C@_1O@FEMBPDGM@?$AAp?$AAa?$AAr?$AAa?$AAm?$AAs?$AA?$AA@ 0052bd20     pjlib-i386-win32-vc8-debug:sock_bsd.obj
 0003:00012d30       ??_C@_0CE@IJGJDCPP@Warning?3?5error?5applying?5sock?5opt@ 0052bd30     pjlib-i386-win32-vc8-debug:sock_bsd.obj
 0003:00012d5c       ??_C@_0L@NNKPLKFK@sock_bsd?4c?$AA@ 0052bd5c     pjlib-i386-win32-vc8-debug:sock_bsd.obj
 0003:00012d6c       ??_C@_1CO@HPOGKJKP@?$AAn?$AAe?$AAw?$AAs?$AAo?$AAc?$AAk?$AA?5?$AA?$CB?$AA?$DN?$AA?5?$AA?$CI?$AA?$CI?$AAv?$AAo?$AAi?$AAd?$AA?5?$AA?$CK?$AA?$CJ?$AA0?$AA?$CJ?$AA?$AA@ 0052bd6c     pjlib-i386-win32-vc8-debug:sock_bsd.obj
 0003:00012da4       ??_C@_01OHGJGJJP@?$FL?$AA@ 0052bda4     pjlib-i386-win32-vc8-debug:sock_common.obj
 0003:00012da8       ??_C@_01LBDDMOBJ@?$FN?$AA@ 0052bda8     pjlib-i386-win32-vc8-debug:sock_common.obj
 0003:00012dac       ??_C@_03HODKBCIO@?3?$CFd?$AA@ 0052bdac     pjlib-i386-win32-vc8-debug:sock_common.obj
 0003:00012db0       ??_C@_08KJEDNCKC@?$CFs?$CFs?$CFs?$CFs?$AA@ 0052bdb0     pjlib-i386-win32-vc8-debug:sock_common.obj
 0003:00012dc0       ??_C@_0FM@JGCIECCB@c?3?2users?29200?2desktop?2work?2p2p?2p@ 0052bdc0     pjlib-i386-win32-vc8-debug:sock_common.obj
 0003:00012e30       ??_C@_1LI@DPFEPAMG@?$AAc?$AA?3?$AA?2?$AAu?$AAs?$AAe?$AAr?$AAs?$AA?2?$AA9?$AA2?$AA0?$AA0?$AA?2?$AAd?$AAe?$AAs?$AAk?$AAt?$AAo?$AAp?$AA?2?$AAw?$AAo?$AAr?$AAk?$AA?2?$AAp?$AA2?$AAp?$AA?2?$AAp@ 0052be30     pjlib-i386-win32-vc8-debug:sock_common.obj
 0003:00012f10       ??_C@_1EI@LMAIDKEG@?$AA?$CB?$AAs?$AAt?$AAr?$AA_?$AAa?$AAd?$AAd?$AAr?$AA?5?$AA?$HM?$AA?$HM?$AA?5?$AAs?$AAt?$AAr?$AA_?$AAa?$AAd?$AAd?$AAr?$AA?9?$AA?$DO?$AAs?$AAl?$AAe?$AAn?$AA?5?$AA?$DM?$AA?5?$AA?$CI?$AA1@ 0052bf10     pjlib-i386-win32-vc8-debug:sock_common.obj
 0003:00012f68       ??_C@_1CA@EINGOHHA@?$AAa?$AAf?$AA?$DN?$AA?$DN?$AAP?$AAJ?$AA_?$AAA?$AAF?$AA_?$AAI?$AAN?$AAE?$AAT?$AA6?$AA?$AA@ 0052bf68     pjlib-i386-win32-vc8-debug:sock_common.obj
 0003:00012f90       ??_C@_19CEKCHDNN@?$AAa?$AAd?$AAd?$AAr?$AA?$AA@ 0052bf90     pjlib-i386-win32-vc8-debug:sock_common.obj
 0003:00012fa0       ??_C@_1II@IEDNCJLG@?$AAa?$AA?9?$AA?$DO?$AAa?$AAd?$AAd?$AAr?$AA?4?$AAs?$AAa?$AA_?$AAf?$AAa?$AAm?$AAi?$AAl?$AAy?$AA?5?$AA?$DN?$AA?$DN?$AA?5?$AAP?$AAJ?$AA_?$AAA?$AAF?$AA_?$AAI?$AAN?$AAE?$AAT?$AA?5@ 0052bfa0     pjlib-i386-win32-vc8-debug:sock_common.obj
 0003:00013048       ??_C@_1LE@BCBAMGPH@?$AA?$CI?$AAa?$AAf?$AA?$DN?$AA?$DN?$AAP?$AAJ?$AA_?$AAA?$AAF?$AA_?$AAI?$AAN?$AAE?$AAT?$AA?5?$AA?$HM?$AA?$HM?$AA?5?$AAa?$AAf?$AA?$DN?$AA?$DN?$AAP?$AAJ?$AA_?$AAA?$AAF?$AA_?$AAI?$AAN?$AAE@ 0052c048     pjlib-i386-win32-vc8-debug:sock_common.obj
 0003:00013120       ??_C@_1GM@GCDHCLKA@?$AAa?$AAf?$AA?$DN?$AA?$DN?$AAP?$AAJ?$AA_?$AAA?$AAF?$AA_?$AAU?$AAN?$AAS?$AAP?$AAE?$AAC?$AA?5?$AA?$HM?$AA?$HM?$AA?5?$AAa?$AAf?$AA?$DN?$AA?$DN?$AAP?$AAJ?$AA_?$AAA?$AAF?$AA_?$AAI?$AAN@ 0052c120     pjlib-i386-win32-vc8-debug:sock_common.obj
 0003:000131a4       ??_C@_1BK@KDKCCGFK@?$AAo?$AAp?$AAt?$AAi?$AAo?$AAn?$AAs?$AA?5?$AA?$DN?$AA?$DN?$AA?5?$AA0?$AA?$AA@ 0052c1a4     pjlib-i386-win32-vc8-debug:sock_common.obj
 0003:000131c8       ??_C@_1FK@OKOAJPPE@?$AAa?$AAi?$AA?4?$AAa?$AAi?$AA_?$AAa?$AAd?$AAd?$AAr?$AA?4?$AAa?$AAd?$AAd?$AAr?$AA?4?$AAs?$AAa?$AA_?$AAf?$AAa?$AAm?$AAi?$AAl?$AAy?$AA?5?$AA?$DN?$AA?$DN?$AA?5?$AA?$CI?$AAp?$AAj@ 0052c1c8     pjlib-i386-win32-vc8-debug:sock_common.obj
 0003:00013234       ??_C@_07EBPGIHEF@1?41?41?41?$AA@ 0052c234     pjlib-i386-win32-vc8-debug:sock_common.obj
 0003:00013240       ??_C@_04NFKLOGOF@1?3?31?$AA@ 0052c240     pjlib-i386-win32-vc8-debug:sock_common.obj
 0003:00013248       ??_C@_1MI@MLDCCECM@?$AAs?$AAo?$AAc?$AAk?$AAf?$AAd?$AA?5?$AA?$CB?$AA?$DN?$AA?5?$AA?$CI?$AA?9?$AA1?$AA?$CJ?$AA?5?$AA?$CG?$AA?$CG?$AA?5?$AAb?$AAu?$AAf?$AA_?$AAs?$AAi?$AAz?$AAe?$AA?5?$AA?$CG?$AA?$CG?$AA?5?$AA?$CK?$AAb@ 0052c248     pjlib-i386-win32-vc8-debug:sock_common.obj
 0003:00013338       ??_C@_0BB@JCEFLFJE@0123456789abcdef?$AA@ 0052c338     pjlib-i386-win32-vc8-debug:string.obj
 0003:00013350       ??_C@_0FH@NKJCPID@c?3?2users?29200?2desktop?2work?2p2p?2p@ 0052c350     pjlib-i386-win32-vc8-debug:string.obj
 0003:000133b8       ??_C@_0BB@CEONGONL@Unsupported?5base?$AA@ 0052c3b8     pjlib-i386-win32-vc8-debug:string.obj
 0003:000133d0       ??_C@_1KO@LKNJPONF@?$AAc?$AA?3?$AA?2?$AAu?$AAs?$AAe?$AAr?$AAs?$AA?2?$AA9?$AA2?$AA0?$AA0?$AA?2?$AAd?$AAe?$AAs?$AAk?$AAt?$AAo?$AAp?$AA?2?$AAw?$AAo?$AAr?$AAk?$AA?2?$AAp?$AA2?$AAp?$AA?2?$AAp@ 0052c3d0     pjlib-i386-win32-vc8-debug:string.obj
 0003:000134a0       ??_C@_1CI@NFHHBACP@?$AA?$CB?$AA?$CC?$AAU?$AAn?$AAs?$AAu?$AAp?$AAp?$AAo?$AAr?$AAt?$AAe?$AAd?$AA?5?$AAb?$AAa?$AAs?$AAe?$AA?$CC?$AA?$AA@ 0052c4a0     pjlib-i386-win32-vc8-debug:string.obj
 0003:000134d0       __real@41200000            0052c4d0     pjlib-i386-win32-vc8-debug:string.obj
 0003:000134d8       ??_C@_1MG@FMGBBGG@?$AAc?$AA?3?$AA?2?$AAu?$AAs?$AAe?$AAr?$AAs?$AA?2?$AA9?$AA2?$AA0?$AA0?$AA?2?$AAd?$AAe?$AAs?$AAk?$AAt?$AAo?$AAp?$AA?2?$AAw?$AAo?$AAr?$AAk?$AA?2?$AAp?$AA2?$AAp?$AA?2?$AAp@ 0052c4d8     pjlib-i386-win32-vc8-debug:ioqueue_select.obj
 0003:000135c8       ??_C@_1CA@KCHPHKDA@?$AAi?$AAo?$AAq?$AAu?$AAe?$AAu?$AAe?$AA?5?$AA?$CG?$AA?$CG?$AA?5?$AAl?$AAo?$AAc?$AAk?$AA?$AA@ 0052c5c8     pjlib-i386-win32-vc8-debug:ioqueue_select.obj
 0003:000135f0       ??_C@_1CI@INOOPFAE@?$AAk?$AAe?$AAy?$AA?9?$AA?$DO?$AAr?$AAe?$AAf?$AA_?$AAc?$AAo?$AAu?$AAn?$AAt?$AA?5?$AA?$DN?$AA?$DN?$AA?5?$AA0?$AA?$AA@ 0052c5f0     pjlib-i386-win32-vc8-debug:ioqueue_select.obj
 0003:00013620       ??_C@_1CG@DEMIAMFE@?$AAk?$AAe?$AAy?$AA?5?$AA?$CB?$AA?$DN?$AA?5?$AA?$CI?$AA?$CI?$AAv?$AAo?$AAi?$AAd?$AA?5?$AA?$CK?$AA?$CJ?$AA0?$AA?$CJ?$AA?$AA@ 0052c620     pjlib-i386-win32-vc8-debug:ioqueue_select.obj
 0003:00013650       ??_C@_17FJFCONIE@?$AAk?$AAe?$AAy?$AA?$AA@ 0052c650     pjlib-i386-win32-vc8-debug:ioqueue_select.obj
 0003:0001365c       ??_C@_0BI@NKJLJNEF@Invalid?5operation?5type?$CB?$AA@ 0052c65c     pjlib-i386-win32-vc8-debug:ioqueue_select.obj
 0003:00013678       ??_C@_1DG@KDBMKDML@?$AA?$CB?$AA?$CC?$AAI?$AAn?$AAv?$AAa?$AAl?$AAi?$AAd?$AA?5?$AAo?$AAp?$AAe?$AAr?$AAa?$AAt?$AAi?$AAo?$AAn?$AA?5?$AAt?$AAy?$AAp?$AAe?$AA?$CB?$AA?$CC?$AA?$AA@ 0052c678     pjlib-i386-win32-vc8-debug:ioqueue_select.obj
 0003:000136b8       ??_C@_1BI@EKGFNMKL@?$AAs?$AAe?$AAn?$AAd?$AA_?$AAr?$AAc?$AA?5?$AA?$DO?$AA?5?$AA0?$AA?$AA@ 0052c6b8     pjlib-i386-win32-vc8-debug:ioqueue_select.obj
 0003:000136d8       ??_C@_1EE@CNIDBBIK@?$AAr?$AAe?$AAa?$AAd?$AA_?$AAo?$AAp?$AA?9?$AA?$DO?$AAo?$AAp?$AA?5?$AA?$DN?$AA?$DN?$AA?5?$AAP?$AAJ?$AA_?$AAI?$AAO?$AAQ?$AAU?$AAE?$AAU?$AAE?$AA_?$AAO?$AAP?$AA_?$AAR?$AAE?$AAA@ 0052c6d8     pjlib-i386-win32-vc8-debug:ioqueue_select.obj
 0003:00013730       ??_C@_1EE@GPIKMDPH@?$AAk?$AAe?$AAy?$AA?5?$AA?$CG?$AA?$CG?$AA?5?$AAo?$AAp?$AA_?$AAk?$AAe?$AAy?$AA?5?$AA?$CG?$AA?$CG?$AA?5?$AAb?$AAu?$AAf?$AAf?$AAe?$AAr?$AA?5?$AA?$CG?$AA?$CG?$AA?5?$AAl?$AAe?$AAn?$AAg?$AAt@ 0052c730     pjlib-i386-win32-vc8-debug:ioqueue_select.obj
 0003:00013788       ??_C@_0GD@MOCHFOCL@c?3?2users?29200?2desktop?2work?2p2p?2p@ 0052c788     pjlib-i386-win32-vc8-debug:ioqueue_select.obj
 0003:00013800       ??_C@_1EA@PBLBPGMH@?$AAk?$AAe?$AAy?$AA?5?$AA?$CG?$AA?$CG?$AA?5?$AAo?$AAp?$AA_?$AAk?$AAe?$AAy?$AA?5?$AA?$CG?$AA?$CG?$AA?5?$AAd?$AAa?$AAt?$AAa?$AA?5?$AA?$CG?$AA?$CG?$AA?5?$AAl?$AAe?$AAn?$AAg?$AAt?$AAh?$AA?$AA@ 0052c800     pjlib-i386-win32-vc8-debug:ioqueue_select.obj
 0003:00013850       ??_C@_1EO@LGPBHJKN@?$AAa?$AAd?$AAd?$AAr?$AAl?$AAe?$AAn?$AA?5?$AA?$DM?$AA?$DN?$AA?5?$AA?$CI?$AAi?$AAn?$AAt?$AA?$CJ?$AAs?$AAi?$AAz?$AAe?$AAo?$AAf?$AA?$CI?$AAp?$AAj?$AA_?$AAs?$AAo?$AAc?$AAk?$AAa?$AAd@ 0052c850     pjlib-i386-win32-vc8-debug:ioqueue_select.obj
 0003:000138b0       ??_C@_1DE@IAHNELBK@?$AAk?$AAe?$AAy?$AA?5?$AA?$CG?$AA?$CG?$AA?5?$AAo?$AAp?$AA_?$AAk?$AAe?$AAy?$AA?5?$AA?$CG?$AA?$CG?$AA?5?$AAn?$AAe?$AAw?$AA_?$AAs?$AAo?$AAc?$AAk?$AA?$AA@ 0052c8b0     pjlib-i386-win32-vc8-debug:ioqueue_select.obj
 0003:000138f0       ??_C@_1CO@PMKELHLG@?$AAk?$AAe?$AAy?$AA?5?$AA?$CG?$AA?$CG?$AA?5?$AAa?$AAd?$AAd?$AAr?$AA?5?$AA?$CG?$AA?$CG?$AA?5?$AAa?$AAd?$AAd?$AAr?$AAl?$AAe?$AAn?$AA?$AA@ 0052c8f0     pjlib-i386-win32-vc8-debug:ioqueue_select.obj
 0003:00013928       ??_C@_1CO@FLGLFEIC@?$AAi?$AAo?$AAq?$AAu?$AAe?$AAu?$AAe?$AA?5?$AA?$CB?$AA?$DN?$AA?5?$AA?$CI?$AA?$CI?$AAv?$AAo?$AAi?$AAd?$AA?5?$AA?$CK?$AA?$CJ?$AA0?$AA?$CJ?$AA?$AA@ 0052c928     pjlib-i386-win32-vc8-debug:ioqueue_select.obj
 0003:00013960       ??_C@_1BG@HNKGLEIM@?$AAa?$AAl?$AAl?$AAo?$AAw?$AA?5?$AA?$HM?$AA?$HM?$AA?5?$AA1?$AA?$AA@ 0052c960     pjlib-i386-win32-vc8-debug:ioqueue_select.obj
 0003:0001397c       ??_C@_06LGNCCACI@select?$AA@ 0052c97c     pjlib-i386-win32-vc8-debug:ioqueue_select.obj
 0003:00013988       ??_C@_1LO@DOLFCMIM@?$AAc?$AA?3?$AA?2?$AAu?$AAs?$AAe?$AAr?$AAs?$AA?2?$AA9?$AA2?$AA0?$AA0?$AA?2?$AAd?$AAe?$AAs?$AAk?$AAt?$AAo?$AAp?$AA?2?$AAw?$AAo?$AAr?$AAk?$AA?2?$AAp?$AA2?$AAp?$AA?2?$AAp@ 0052c988     pjlib-i386-win32-vc8-debug:ioqueue_select.obj
 0003:00013a70       ??_C@_1KA@LNOEPJNH@?$AAp?$AAo?$AAo?$AAl?$AA?5?$AA?$CB?$AA?$DN?$AA?5?$AA?$CI?$AA?$CI?$AAv?$AAo?$AAi?$AAd?$AA?5?$AA?$CK?$AA?$CJ?$AA0?$AA?$CJ?$AA?5?$AA?$CG?$AA?$CG?$AA?5?$AAp?$AA_?$AAi?$AAo?$AAq?$AAu?$AAe?$AAu?$AAe@ 0052ca70     pjlib-i386-win32-vc8-debug:ioqueue_select.obj
 0003:00013b30       ??_C@_05LIJONKFG@ioq?$CFp?$AA@ 0052cb30     pjlib-i386-win32-vc8-debug:ioqueue_select.obj
 0003:00013b38       ??_C@_0CA@IMDCINDN@select?$CI?$CJ?5I?1O?5Queue?5created?5?$CI?$CFp?$CJ?$AA@ 0052cb38     pjlib-i386-win32-vc8-debug:ioqueue_select.obj
 0003:00013b60       ??_C@_05PHKAINEA@pjlib?$AA@ 0052cb60     pjlib-i386-win32-vc8-debug:ioqueue_select.obj
 0003:00013b68       ??_C@_1BA@ENKELKPH@?$AAi?$AAo?$AAq?$AAu?$AAe?$AAu?$AAe?$AA?$AA@ 0052cb68     pjlib-i386-win32-vc8-debug:ioqueue_select.obj
 0003:00013b80       ??_C@_1FO@PPHPABF@?$AAp?$AAo?$AAo?$AAl?$AA?5?$AA?$CG?$AA?$CG?$AA?5?$AAi?$AAo?$AAq?$AAu?$AAe?$AAu?$AAe?$AA?5?$AA?$CG?$AA?$CG?$AA?5?$AAs?$AAo?$AAc?$AAk?$AA?5?$AA?$CB?$AA?$DN?$AA?5?$AA?$CI?$AA?9?$AA1?$AA?$CJ?$AA?5@ 0052cb80     pjlib-i386-win32-vc8-debug:ioqueue_select.obj
 0003:00013bf0       ??_C@_1EI@PJMCDAJH@?$AA?$CB?$AAp?$AAj?$AA_?$AAl?$AAi?$AAs?$AAt?$AA_?$AAe?$AAm?$AAp?$AAt?$AAy?$AA?$CI?$AA?$CG?$AAi?$AAo?$AAq?$AAu?$AAe?$AAu?$AAe?$AA?9?$AA?$DO?$AAf?$AAr?$AAe?$AAe?$AA_?$AAl?$AAi@ 0052cbf0     pjlib-i386-win32-vc8-debug:ioqueue_select.obj
 0003:00013c48       ??_C@_1CE@KOHBIHOL@?$AAk?$AAe?$AAy?$AA?9?$AA?$DO?$AAc?$AAl?$AAo?$AAs?$AAi?$AAn?$AAg?$AA?5?$AA?$DN?$AA?$DN?$AA?5?$AA1?$AA?$AA@ 0052cc48     pjlib-i386-win32-vc8-debug:ioqueue_select.obj
 0003:00013c74       ??_C@_1CG@PJOLFMEL@?$AAi?$AAo?$AAq?$AAu?$AAe?$AAu?$AAe?$AA?9?$AA?$DO?$AAc?$AAo?$AAu?$AAn?$AAt?$AA?5?$AA?$DO?$AA?5?$AA0?$AA?$AA@ 0052cc74     pjlib-i386-win32-vc8-debug:ioqueue_select.obj
 0003:00013ca4       ??_C@_1CA@OBALMACM@?$AAh?$AA?9?$AA?$DO?$AAc?$AAl?$AAo?$AAs?$AAi?$AAn?$AAg?$AA?5?$AA?$CB?$AA?$DN?$AA?5?$AA0?$AA?$AA@ 0052cca4     pjlib-i386-win32-vc8-debug:ioqueue_select.obj
 0003:00013ccc       ??_C@_0P@KEHJHANK@Invalid?5event?$CB?$AA@ 0052cccc     pjlib-i386-win32-vc8-debug:ioqueue_select.obj
 0003:00013ce0       ??_C@_1CE@KOLKIPFK@?$AA?$CB?$AA?$CC?$AAI?$AAn?$AAv?$AAa?$AAl?$AAi?$AAd?$AA?5?$AAe?$AAv?$AAe?$AAn?$AAt?$AA?$CB?$AA?$CC?$AA?$AA@ 0052cce0     pjlib-i386-win32-vc8-debug:ioqueue_select.obj
 0003:00013d10       ??_C@_1ME@BJLNJAKO@?$AAc?$AA?3?$AA?2?$AAu?$AAs?$AAe?$AAr?$AAs?$AA?2?$AA9?$AA2?$AA0?$AA0?$AA?2?$AAd?$AAe?$AAs?$AAk?$AAt?$AAo?$AAp?$AA?2?$AAw?$AAo?$AAr?$AAk?$AA?2?$AAp?$AA2?$AAp?$AA?2?$AAp@ 0052cd10     pjlib-i386-win32-vc8-debug:file_access_win32.obj
 0003:00013dfc       ??_C@_1DA@HKABCAPK@?$AAf?$AAi?$AAl?$AAe?$AAn?$AAa?$AAm?$AAe?$AA?5?$AA?$CB?$AA?$DN?$AA?5?$AA?$CI?$AA?$CI?$AAv?$AAo?$AAi?$AAd?$AA?5?$AA?$CK?$AA?$CJ?$AA0?$AA?$CJ?$AA?$AA@ 0052cdfc     pjlib-i386-win32-vc8-debug:file_access_win32.obj
 0003:00013e38       ??_C@_1FK@FNKPHKMJ@?$AAo?$AAl?$AAd?$AAn?$AAa?$AAm?$AAe?$AA?$CB?$AA?$DN?$AA?$CI?$AA?$CI?$AAv?$AAo?$AAi?$AAd?$AA?5?$AA?$CK?$AA?$CJ?$AA0?$AA?$CJ?$AA?5?$AA?$CG?$AA?$CG?$AA?5?$AAn?$AAe?$AAw?$AAn?$AAa?$AAm?$AAe?$AA?$CB@ 0052ce38     pjlib-i386-win32-vc8-debug:file_access_win32.obj
 0003:00013ea8       ??_C@_1FG@CEPDPGNF@?$AAf?$AAi?$AAl?$AAe?$AAn?$AAa?$AAm?$AAe?$AA?$CB?$AA?$DN?$AA?$CI?$AA?$CI?$AAv?$AAo?$AAi?$AAd?$AA?5?$AA?$CK?$AA?$CJ?$AA0?$AA?$CJ?$AA?5?$AA?$CG?$AA?$CG?$AA?5?$AAs?$AAt?$AAa?$AAt?$AA?$CB?$AA?$DN?$AA?$CI@ 0052cea8     pjlib-i386-win32-vc8-debug:file_access_win32.obj
 0003:00013f10       ??_C@_1LM@KNNEMNAM@?$AAc?$AA?3?$AA?2?$AAu?$AAs?$AAe?$AAr?$AAs?$AA?2?$AA9?$AA2?$AA0?$AA0?$AA?2?$AAd?$AAe?$AAs?$AAk?$AAt?$AAo?$AAp?$AA?2?$AAw?$AAo?$AAr?$AAk?$AA?2?$AAp?$AA2?$AAp?$AA?2?$AAp@ 0052cf10     pjlib-i386-win32-vc8-debug:file_io_win32.obj
 0003:00013ff4       ??_C@_1CM@MJBFNBMA@?$AAp?$AAa?$AAt?$AAh?$AAn?$AAa?$AAm?$AAe?$AA?$CB?$AA?$DN?$AA?$CI?$AA?$CI?$AAv?$AAo?$AAi?$AAd?$AA?5?$AA?$CK?$AA?$CJ?$AA0?$AA?$CJ?$AA?$AA@ 0052cff4     pjlib-i386-win32-vc8-debug:file_io_win32.obj
 0003:00014028       ??_C@_0BI@LPOELMPF@Invalid?5file?5open?5flags?$AA@ 0052d028     pjlib-i386-win32-vc8-debug:file_io_win32.obj
 0003:00014044       ??_C@_1DG@DCHEFIEL@?$AA?$CB?$AA?$CC?$AAI?$AAn?$AAv?$AAa?$AAl?$AAi?$AAd?$AA?5?$AAf?$AAi?$AAl?$AAe?$AA?5?$AAo?$AAp?$AAe?$AAn?$AA?5?$AAf?$AAl?$AAa?$AAg?$AAs?$AA?$CC?$AA?$AA@ 0052d044     pjlib-i386-win32-vc8-debug:file_io_win32.obj
 0003:00014084       ??_C@_0BO@DKHJKGGI@Invalid?5whence?5in?5file_setpos?$AA@ 0052d084     pjlib-i386-win32-vc8-debug:file_io_win32.obj
 0003:000140a8       ??_C@_1EC@LGNMFIKH@?$AA?$CB?$AA?$CC?$AAI?$AAn?$AAv?$AAa?$AAl?$AAi?$AAd?$AA?5?$AAw?$AAh?$AAe?$AAn?$AAc?$AAe?$AA?5?$AAi?$AAn?$AA?5?$AAf?$AAi?$AAl?$AAe?$AA_?$AAs?$AAe?$AAt?$AAp?$AAo?$AAs?$AA?$CC@ 0052d0a8     pjlib-i386-win32-vc8-debug:file_io_win32.obj
 0003:000140f8       ??_C@_1KM@INIJBEKB@?$AAc?$AA?3?$AA?2?$AAu?$AAs?$AAe?$AAr?$AAs?$AA?2?$AA9?$AA2?$AA0?$AA0?$AA?2?$AAd?$AAe?$AAs?$AAk?$AAt?$AAo?$AAp?$AA?2?$AAw?$AAo?$AAr?$AAk?$AA?2?$AAp?$AA2?$AAp?$AA?2?$AAp@ 0052d0f8     pjlib-i386-win32-vc8-debug:array.obj
 0003:000141c8       ??_C@_1BG@OJJHGIJH@?$AAc?$AAo?$AAu?$AAn?$AAt?$AA?5?$AA?$CB?$AA?$DN?$AA?5?$AA0?$AA?$AA@ 0052d1c8     pjlib-i386-win32-vc8-debug:array.obj
 0003:000141e4       ??_C@_0CD@KFHCCJFN@?$CB?$CB?$CBFATAL?3?5unhandled?5exception?5?$CFs@ 0052d1e4     pjlib-i386-win32-vc8-debug:except.obj
 0003:00014210       ??_C@_08PDFMOJIE@except?4c?$AA@ 0052d210     pjlib-i386-win32-vc8-debug:except.obj
 0003:00014220       ??_C@_1KO@IMANKII@?$AAc?$AA?3?$AA?2?$AAu?$AAs?$AAe?$AAr?$AAs?$AA?2?$AA9?$AA2?$AA0?$AA0?$AA?2?$AAd?$AAe?$AAs?$AAk?$AAt?$AAo?$AAp?$AA?2?$AAw?$AAo?$AAr?$AAk?$AA?2?$AAp?$AA2?$AAp?$AA?2?$AAp@ 0052d220     pjlib-i386-win32-vc8-debug:except.obj
 0003:000142f0       ??_C@_1CO@MDLDAOGN@?$AAh?$AAa?$AAn?$AAd?$AAl?$AAe?$AAr?$AA?5?$AA?$CB?$AA?$DN?$AA?5?$AA?$CI?$AA?$CI?$AAv?$AAo?$AAi?$AAd?$AA?5?$AA?$CK?$AA?$CJ?$AA0?$AA?$CJ?$AA?$AA@ 0052d2f0     pjlib-i386-win32-vc8-debug:except.obj
 0003:00014328       ??_C@_1CM@CIICDJMC@?$AAt?$AAh?$AAr?$AAe?$AAa?$AAd?$AA_?$AAl?$AAo?$AAc?$AAa?$AAl?$AA_?$AAi?$AAd?$AA?5?$AA?$CB?$AA?$DN?$AA?5?$AA?9?$AA1?$AA?$AA@ 0052d328     pjlib-i386-win32-vc8-debug:except.obj
 0003:0001435c       ??_C@_1BM@OONEPGEP@?$AAi?$AAd?$AA?$DO?$AA0?$AA?5?$AA?$CG?$AA?$CG?$AA?5?$AAi?$AAd?$AA?$DM?$AA1?$AA6?$AA?$AA@ 0052d35c     pjlib-i386-win32-vc8-debug:except.obj
 0003:00014380       ??_C@_0N@GJOLEKJC@?$DMInvalid?5ID?$DO?$AA@ 0052d380     pjlib-i386-win32-vc8-debug:except.obj
 0003:00014390       ??_C@_0N@LJPLLMIL@exception?5?$CFd?$AA@ 0052d390     pjlib-i386-win32-vc8-debug:except.obj
 0003:000143a0       ??_C@_1KK@ONIGDIEI@?$AAc?$AA?3?$AA?2?$AAu?$AAs?$AAe?$AAr?$AAs?$AA?2?$AA9?$AA2?$AA0?$AA0?$AA?2?$AAd?$AAe?$AAs?$AAk?$AAt?$AAo?$AAp?$AA?2?$AAw?$AAo?$AAr?$AAk?$AA?2?$AAp?$AA2?$AAp?$AA?2?$AAp@ 0052d3a0     pjlib-i386-win32-vc8-debug:lock.obj
 0003:0001446c       ??_C@_1BK@HMAALPLD@?$AAp?$AAo?$AAo?$AAl?$AA?5?$AA?$CG?$AA?$CG?$AA?5?$AAl?$AAo?$AAc?$AAk?$AA?$AA@ 0052d46c     pjlib-i386-win32-vc8-debug:lock.obj
 0003:0001448c       ??_C@_19LMCCMMJG@?$AAl?$AAo?$AAc?$AAk?$AA?$AA@ 0052d48c     pjlib-i386-win32-vc8-debug:lock.obj
 0003:00014498       ??_C@_1CI@EGCMNLMJ@?$AAl?$AAo?$AAc?$AAk?$AA?5?$AA?$CB?$AA?$DN?$AA?5?$AA?$CI?$AA?$CI?$AAv?$AAo?$AAi?$AAd?$AA?5?$AA?$CK?$AA?$CJ?$AA0?$AA?$CJ?$AA?$AA@ 0052d498     pjlib-i386-win32-vc8-debug:lock.obj
 0003:000144c8       ??_C@_1EC@BAIJMPOD@?$AAg?$AAl?$AAo?$AAc?$AAk?$AA?9?$AA?$DO?$AAo?$AAw?$AAn?$AAe?$AAr?$AA?5?$AA?$DN?$AA?$DN?$AA?5?$AAp?$AAj?$AA_?$AAt?$AAh?$AAr?$AAe?$AAa?$AAd?$AA_?$AAt?$AAh?$AAi?$AAs?$AA?$CI?$AA?$CJ@ 0052d4c8     pjlib-i386-win32-vc8-debug:lock.obj
 0003:00014518       ??_C@_1CK@GIKHEGPF@?$AAg?$AAl?$AAo?$AAc?$AAk?$AA?9?$AA?$DO?$AAo?$AAw?$AAn?$AAe?$AAr?$AA_?$AAc?$AAn?$AAt?$AA?5?$AA?$DO?$AA?5?$AA0?$AA?$AA@ 0052d518     pjlib-i386-win32-vc8-debug:lock.obj
 0003:00014550       ??_C@_1EE@CPEFOKMM@?$AAp?$AAj?$AA_?$AAa?$AAt?$AAo?$AAm?$AAi?$AAc?$AA_?$AAg?$AAe?$AAt?$AA?$CI?$AAg?$AAl?$AAo?$AAc?$AAk?$AA?9?$AA?$DO?$AAr?$AAe?$AAf?$AA_?$AAc?$AAn?$AAt?$AA?$CJ?$AA?5?$AA?$DO?$AA?5@ 0052d550     pjlib-i386-win32-vc8-debug:lock.obj
 0003:000145a4       ??_C@_1CG@FLJIPPJO@?$AAp?$AAo?$AAo?$AAl?$AA?5?$AA?$CG?$AA?$CG?$AA?5?$AAp?$AA_?$AAg?$AAr?$AAp?$AA_?$AAl?$AAo?$AAc?$AAk?$AA?$AA@ 0052d5a4     pjlib-i386-win32-vc8-debug:lock.obj
 0003:000145d4       ??_C@_06HALIBNKJ@glck?$CFp?$AA@ 0052d5d4     pjlib-i386-win32-vc8-debug:lock.obj
 0003:000145dc       ??_C@_1BA@ELFKFCPF@?$AAc?$AAn?$AAt?$AA?5?$AA?$DO?$AA?5?$AA0?$AA?$AA@ 0052d5dc     pjlib-i386-win32-vc8-debug:lock.obj
 0003:000145f0       __real@408f400000000000    0052d5f0     pjlib-i386-win32-vc8-debug:os_timestamp_common.obj
 0003:00014600       __real@412e848000000000    0052d600     pjlib-i386-win32-vc8-debug:os_timestamp_common.obj
 0003:00014610       __real@41cdcd6500000000    0052d610     pjlib-i386-win32-vc8-debug:os_timestamp_common.obj
 0003:0001461c       _PJ_GUID_STRING_LENGTH     0052d61c     pjlib-i386-win32-vc8-debug:guid_win32.obj
 0003:00014620       ??_C@_0FL@OCNIDHGI@c?3?2users?29200?2desktop?2work?2p2p?2p@ 0052d620     pjlib-i386-win32-vc8-debug:guid_win32.obj
 0003:00014690       ??_C@_08DOCHLGNA@config?4c?$AA@ 0052d690     pjlib-i386-win32-vc8-debug:config.obj
 0003:0001469c       ??_C@_03ECCBBOBD@2?43?$AA@ 0052d69c     pjlib-i386-win32-vc8-debug:config.obj
 0003:000146a0       ??_C@_0BO@KNCHBKC@PJLIB?5?$CIc?$CJ2008?92009?5Teluu?5Inc?4?$AA@ 0052d6a0     pjlib-i386-win32-vc8-debug:config.obj
 0003:000146c4       ??_C@_0BI@GDBJIAMF@Dumping?5configurations?3?$AA@ 0052d6c4     pjlib-i386-win32-vc8-debug:config.obj
 0003:000146e0       ??_C@_0CA@JHFFEGGP@?5PJ_VERSION?5?5?5?5?5?5?5?5?5?5?5?5?5?5?5?5?3?5?$CFs?$AA@ 0052d6e0     pjlib-i386-win32-vc8-debug:config.obj
 0003:00014708       ??_C@_04OMAFGPMM@i386?$AA@ 0052d708     pjlib-i386-win32-vc8-debug:config.obj
 0003:00014710       ??_C@_0CA@NCEBBBBA@?5PJ_M_NAME?5?5?5?5?5?5?5?5?5?5?5?5?5?5?5?5?5?3?5?$CFs?$AA@ 0052d710     pjlib-i386-win32-vc8-debug:config.obj
 0003:00014738       ??_C@_0CA@KOLEBPNK@?5PJ_HAS_PENTIUM?5?5?5?5?5?5?5?5?5?5?5?5?3?5?$CFd?$AA@ 0052d738     pjlib-i386-win32-vc8-debug:config.obj
 0003:00014760       ??_C@_05NMJMPJJB@win32?$AA@ 0052d760     pjlib-i386-win32-vc8-debug:config.obj
 0003:00014768       ??_C@_0CA@GPBHGDBG@?5PJ_OS_NAME?5?5?5?5?5?5?5?5?5?5?5?5?5?5?5?5?3?5?$CFs?$AA@ 0052d768     pjlib-i386-win32-vc8-debug:config.obj
 0003:00014790       ??_C@_04DPFJJIOK@msvc?$AA@ 0052d790     pjlib-i386-win32-vc8-debug:config.obj
 0003:00014798       ??_C@_0CJ@BAKBAPNO@?5PJ_CC_NAME?1VER_?$CI1?02?03?$CJ?5?5?5?5?3?5?$CFs?9@ 0052d798     pjlib-i386-win32-vc8-debug:config.obj
 0003:000147cc       ??_C@_0O@KEGGAHLA@little?9endian?$AA@ 0052d7cc     pjlib-i386-win32-vc8-debug:config.obj
 0003:000147dc       ??_C@_0CA@CNKKKLLD@?5PJ_IS_?$CIBIG?1LITTLE?$CJ_ENDIAN?5?3?5?$CFs?$AA@ 0052d7dc     pjlib-i386-win32-vc8-debug:config.obj
 0003:00014804       ??_C@_0CA@GGBFPJFC@?5PJ_HAS_INT64?5?5?5?5?5?5?5?5?5?5?5?5?5?5?3?5?$CFd?$AA@ 0052d804     pjlib-i386-win32-vc8-debug:config.obj
 0003:0001482c       ??_C@_0CA@LMENGBAP@?5PJ_HAS_FLOATING_POINT?5?5?5?5?5?3?5?$CFd?$AA@ 0052d82c     pjlib-i386-win32-vc8-debug:config.obj
 0003:00014854       ??_C@_0CA@NBBHLDIH@?5PJ_DEBUG?5?5?5?5?5?5?5?5?5?5?5?5?5?5?5?5?5?5?3?5?$CFd?$AA@ 0052d854     pjlib-i386-win32-vc8-debug:config.obj
 0003:0001487c       ??_C@_0CA@PKIHIMKF@?5PJ_FUNCTIONS_ARE_INLINED?5?5?3?5?$CFd?$AA@ 0052d87c     pjlib-i386-win32-vc8-debug:config.obj
 0003:000148a4       ??_C@_0CA@GEBJAONH@?5PJ_LOG_MAX_LEVEL?5?5?5?5?5?5?5?5?5?5?3?5?$CFd?$AA@ 0052d8a4     pjlib-i386-win32-vc8-debug:config.obj
 0003:000148cc       ??_C@_0CA@JKBDOCPB@?5PJ_LOG_MAX_SIZE?5?5?5?5?5?5?5?5?5?5?5?3?5?$CFd?$AA@ 0052d8cc     pjlib-i386-win32-vc8-debug:config.obj
 0003:000148f4       ??_C@_0CA@LNDGNGPB@?5PJ_LOG_USE_STACK_BUFFER?5?5?5?3?5?$CFd?$AA@ 0052d8f4     pjlib-i386-win32-vc8-debug:config.obj
 0003:0001491c       ??_C@_0CA@HLGIANHB@?5PJ_POOL_DEBUG?5?5?5?5?5?5?5?5?5?5?5?5?5?3?5?$CFd?$AA@ 0052d91c     pjlib-i386-win32-vc8-debug:config.obj
 0003:00014944       ??_C@_0CA@JFMEIGNB@?5PJ_HAS_POOL_ALT_API?5?5?5?5?5?5?5?3?5?$CFd?$AA@ 0052d944     pjlib-i386-win32-vc8-debug:config.obj
 0003:0001496c       ??_C@_0CA@PHJFINJO@?5PJ_HAS_TCP?5?5?5?5?5?5?5?5?5?5?5?5?5?5?5?5?3?5?$CFd?$AA@ 0052d96c     pjlib-i386-win32-vc8-debug:config.obj
 0003:00014994       ??_C@_0CA@IJPJLFMD@?5PJ_MAX_HOSTNAME?5?5?5?5?5?5?5?5?5?5?5?3?5?$CFd?$AA@ 0052d994     pjlib-i386-win32-vc8-debug:config.obj
 0003:000149bc       ??_C@_0CA@IFEKDPPK@?5ioqueue?5type?5?5?5?5?5?5?5?5?5?5?5?5?5?5?3?5?$CFs?$AA@ 0052d9bc     pjlib-i386-win32-vc8-debug:config.obj
 0003:000149e4       ??_C@_0CA@MFIGELPB@?5PJ_IOQUEUE_MAX_HANDLES?5?5?5?5?3?5?$CFd?$AA@ 0052d9e4     pjlib-i386-win32-vc8-debug:config.obj
 0003:00014a0c       ??_C@_0CA@EOIHPMGI@?5PJ_IOQUEUE_HAS_SAFE_UNREG?5?3?5?$CFd?$AA@ 0052da0c     pjlib-i386-win32-vc8-debug:config.obj
 0003:00014a34       ??_C@_0CA@KKPKMEKG@?5PJ_HAS_THREADS?5?5?5?5?5?5?5?5?5?5?5?5?3?5?$CFd?$AA@ 0052da34     pjlib-i386-win32-vc8-debug:config.obj
 0003:00014a5c       ??_C@_0CA@MDECAGDJ@?5PJ_HAS_SEMAPHORE?5?5?5?5?5?5?5?5?5?5?3?5?$CFd?$AA@ 0052da5c     pjlib-i386-win32-vc8-debug:config.obj
 0003:00014a84       ??_C@_0CA@PPJIFE@?5PJ_HAS_EVENT_OBJ?5?5?5?5?5?5?5?5?5?5?3?5?$CFd?$AA@ 0052da84     pjlib-i386-win32-vc8-debug:config.obj
 0003:00014aac       ??_C@_0CA@HDOPKKCK@?5PJ_ENABLE_EXTRA_CHECK?5?5?5?5?5?3?5?$CFd?$AA@ 0052daac     pjlib-i386-win32-vc8-debug:config.obj
 0003:00014ad4       ??_C@_0CA@KBIPPCDM@?5PJ_HAS_EXCEPTION_NAMES?5?5?5?5?3?5?$CFd?$AA@ 0052dad4     pjlib-i386-win32-vc8-debug:config.obj
 0003:00014afc       ??_C@_0CA@PDHBELMF@?5PJ_MAX_EXCEPTION_ID?5?5?5?5?5?5?5?3?5?$CFd?$AA@ 0052dafc     pjlib-i386-win32-vc8-debug:config.obj
 0003:00014b24       ??_C@_0CA@JCLOPIAE@?5PJ_EXCEPTION_USE_WIN32_SEH?3?5?$CFd?$AA@ 0052db24     pjlib-i386-win32-vc8-debug:config.obj
 0003:00014b4c       ??_C@_0CA@ELABDFDK@?5PJ_TIMESTAMP_USE_RDTSC?3?5?5?5?3?5?$CFd?$AA@ 0052db4c     pjlib-i386-win32-vc8-debug:config.obj
 0003:00014b74       ??_C@_0CA@KNFEOAMF@?5PJ_OS_HAS_CHECK_STACK?5?5?5?5?5?3?5?$CFd?$AA@ 0052db74     pjlib-i386-win32-vc8-debug:config.obj
 0003:00014b9c       ??_C@_0CA@HPFADEMC@?5PJ_HAS_HIGH_RES_TIMER?5?5?5?5?5?3?5?$CFd?$AA@ 0052db9c     pjlib-i386-win32-vc8-debug:config.obj
 0003:00014da8       ??_C@_0CD@FNMHLHMI@Interrupted?5system?5call?5?$CIWSAEINT@ 0052dda8     pjlib-i386-win32-vc8-debug:os_error_win32.obj
 0003:00014dd4       ??_C@_0BL@OKPDNKLH@Bad?5file?5number?5?$CIWSAEBADF?$CJ?$AA@ 0052ddd4     pjlib-i386-win32-vc8-debug:os_error_win32.obj
 0003:00014df4       ??_C@_0BO@BMBEEPBP@Permission?5denied?5?$CIWSAEACCES?$CJ?$AA@ 0052ddf4     pjlib-i386-win32-vc8-debug:os_error_win32.obj
 0003:00014e18       ??_C@_0BI@LAKHPJJ@Bad?5address?5?$CIWSAEFAULT?$CJ?$AA@ 0052de18     pjlib-i386-win32-vc8-debug:os_error_win32.obj
 0003:00014e34       ??_C@_0BN@FEIDINKH@Invalid?5argument?5?$CIWSAEINVAL?$CJ?$AA@ 0052de34     pjlib-i386-win32-vc8-debug:os_error_win32.obj
 0003:00014e58       ??_C@_0CC@HMKKNDGL@Too?5many?5open?5sockets?5?$CIWSAEMFILE@ 0052de58     pjlib-i386-win32-vc8-debug:os_error_win32.obj
 0003:00014e80       ??_C@_0CH@GCPPFMGM@Operation?5would?5block?5?$CIWSAEWOULD@ 0052de80     pjlib-i386-win32-vc8-debug:os_error_win32.obj
 0003:00014eb0       ??_C@_0CL@DKGHEPCD@Operation?5now?5in?5progress?5?$CIWSAEI@ 0052deb0     pjlib-i386-win32-vc8-debug:os_error_win32.obj
 0003:00014ee4       ??_C@_0CM@BEMCBKDH@Operation?5already?5in?5progress?5?$CIW@ 0052dee4     pjlib-i386-win32-vc8-debug:os_error_win32.obj
 0003:00014f18       ??_C@_0CN@PAFKDEBN@Socket?5operation?5on?5non?9socket?5?$CI@ 0052df18     pjlib-i386-win32-vc8-debug:os_error_win32.obj
 0003:00014f50       ??_C@_0CP@HCDICECK@Destination?5address?5required?5?$CIWS@ 0052df50     pjlib-i386-win32-vc8-debug:os_error_win32.obj
 0003:00014f88       ??_C@_0BP@LNFPBFEK@Message?5too?5long?5?$CIWSAEMSGSIZE?$CJ?$AA@ 0052df88     pjlib-i386-win32-vc8-debug:os_error_win32.obj
 0003:00014fb0       ??_C@_0CP@MMIMIEMF@Protocol?5wrong?5type?5for?5socket?5?$CI@ 0052dfb0     pjlib-i386-win32-vc8-debug:os_error_win32.obj
 0003:00014fe8       ??_C@_0CF@HNFLHOHA@Bad?5protocol?5option?5?$CIWSAENOPROTO@ 0052dfe8     pjlib-i386-win32-vc8-debug:os_error_win32.obj
 0003:00015014       ??_C@_0CM@HPGHEHCE@Protocol?5not?5supported?5?$CIWSAEPROT@ 0052e014     pjlib-i386-win32-vc8-debug:os_error_win32.obj
 0003:00015048       ??_C@_0CP@JLBNHCOL@Socket?5type?5not?5supported?5?$CIWSAES@ 0052e048     pjlib-i386-win32-vc8-debug:os_error_win32.obj
 0003:00015080       ??_C@_0DC@GJMFANID@Operation?5not?5supported?5on?5socke@ 0052e080     pjlib-i386-win32-vc8-debug:os_error_win32.obj
 0003:000150bc       ??_C@_0DA@GFNBENIG@Protocol?5family?5not?5supported?5?$CIW@ 0052e0bc     pjlib-i386-win32-vc8-debug:os_error_win32.obj
 0003:000150f8       ??_C@_0CP@MMKHGIFC@Address?5family?5not?5supported?5?$CIWS@ 0052e0f8     pjlib-i386-win32-vc8-debug:os_error_win32.obj
 0003:00015130       ??_C@_0CH@OCKNFBKE@Address?5already?5in?5use?5?$CIWSAEADDR@ 0052e130     pjlib-i386-win32-vc8-debug:os_error_win32.obj
 0003:00015160       ??_C@_0DC@FJJPJPOD@Can?8t?5assign?5requested?5address?5?$CI@ 0052e160     pjlib-i386-win32-vc8-debug:os_error_win32.obj
 0003:0001519c       ??_C@_0BO@IICKDHLJ@Network?5is?5down?5?$CIWSAENETDOWN?$CJ?$AA@ 0052e19c     pjlib-i386-win32-vc8-debug:os_error_win32.obj
 0003:000151c0       ??_C@_0CI@NKJAACME@Network?5is?5unreachable?5?$CIWSAENETU@ 0052e1c0     pjlib-i386-win32-vc8-debug:os_error_win32.obj
 0003:000151f0       ??_C@_0CE@LJEEEFEC@Net?5connection?5reset?5?$CIWSAENETRES@ 0052e1f0     pjlib-i386-win32-vc8-debug:os_error_win32.obj
 0003:0001521c       ??_C@_0DD@PGDIHOBG@Software?5caused?5connection?5abort@ 0052e21c     pjlib-i386-win32-vc8-debug:os_error_win32.obj
 0003:0001525c       ??_C@_0CJ@PJHCFAAN@Connection?5reset?5by?5peer?5?$CIWSAECO@ 0052e25c     pjlib-i386-win32-vc8-debug:os_error_win32.obj
 0003:00015290       ??_C@_0CH@EKNGIMKN@No?5buffer?5space?5available?5?$CIWSAEN@ 0052e290     pjlib-i386-win32-vc8-debug:os_error_win32.obj
 0003:000152c0       ??_C@_0CJ@JOPBNNOD@Socket?5is?5already?5connected?5?$CIWSA@ 0052e2c0     pjlib-i386-win32-vc8-debug:os_error_win32.obj
 0003:000152f4       ??_C@_0CG@CECDMHLL@Socket?5is?5not?5connected?5?$CIWSAENOT@ 0052e2f4     pjlib-i386-win32-vc8-debug:os_error_win32.obj
 0003:00015324       ??_C@_0DA@JGJMJPNM@Can?8t?5send?5after?5socket?5shutdown@ 0052e324     pjlib-i386-win32-vc8-debug:os_error_win32.obj
 0003:00015360       ??_C@_0DE@CAILNFFE@Too?5many?5references?0?5can?8t?5splic@ 0052e360     pjlib-i386-win32-vc8-debug:os_error_win32.obj
 0003:000153a0       ??_C@_0CE@IIKHBGF@Connection?5timed?5out?5?$CIWSAETIMEDO@ 0052e3a0     pjlib-i386-win32-vc8-debug:os_error_win32.obj
 0003:000153cc       ??_C@_0CF@JMKFBJH@Connection?5refused?5?$CIWSAECONNREFU@ 0052e3cc     pjlib-i386-win32-vc8-debug:os_error_win32.obj
 0003:000153f8       ??_C@_0CN@FCKBNFMB@Too?5many?5levels?5of?5symbolic?5link@ 0052e3f8     pjlib-i386-win32-vc8-debug:os_error_win32.obj
 0003:00015430       ??_C@_0CF@MOFKOMBB@File?5name?5too?5long?5?$CIWSAENAMETOOL@ 0052e430     pjlib-i386-win32-vc8-debug:os_error_win32.obj
 0003:0001545c       ??_C@_0BM@NCJCEEDP@Host?5is?5down?5?$CIWSAEHOSTDOWN?$CJ?$AA@ 0052e45c     pjlib-i386-win32-vc8-debug:os_error_win32.obj
 0003:00015480       ??_C@_0CD@ECJOJHBH@No?5route?5to?5host?5?$CIWSAEHOSTUNREAC@ 0052e480     pjlib-i386-win32-vc8-debug:os_error_win32.obj
 0003:000154ac       ??_C@_0CD@NEFLEHEG@Directory?5not?5empty?5?$CIWSAENOTEMPT@ 0052e4ac     pjlib-i386-win32-vc8-debug:os_error_win32.obj
 0003:000154d8       ??_C@_0CB@GPCGLHOJ@Too?5many?5processes?5?$CIWSAEPROCLIM?$CJ@ 0052e4d8     pjlib-i386-win32-vc8-debug:os_error_win32.obj
 0003:00015500       ??_C@_0BL@IGHJMJKO@Too?5many?5users?5?$CIWSAEUSERS?$CJ?$AA@ 0052e500     pjlib-i386-win32-vc8-debug:os_error_win32.obj
 0003:00015520       ??_C@_0CA@MIOFDKMA@Disc?5quota?5exceeded?5?$CIWSAEDQUOT?$CJ?$AA@ 0052e520     pjlib-i386-win32-vc8-debug:os_error_win32.obj
 0003:00015548       ??_C@_0CC@IMLIDHNH@Stale?5NFS?5file?5handle?5?$CIWSAESTALE@ 0052e548     pjlib-i386-win32-vc8-debug:os_error_win32.obj
 0003:00015570       ??_C@_0CP@MLAFGPOA@Too?5many?5levels?5of?5remote?5in?5pat@ 0052e570     pjlib-i386-win32-vc8-debug:os_error_win32.obj
 0003:000155a8       ??_C@_0CP@IBAEMKGH@Network?5system?5is?5unavailable?5?$CIW@ 0052e5a8     pjlib-i386-win32-vc8-debug:os_error_win32.obj
 0003:000155e0       ??_C@_0DC@BLAKHMMJ@Winsock?5version?5out?5of?5range?5?$CIWS@ 0052e5e0     pjlib-i386-win32-vc8-debug:os_error_win32.obj
 0003:0001561c       ??_C@_0CO@HPDHHDHA@WSAStartup?5not?5yet?5called?5?$CIWSANO@ 0052e61c     pjlib-i386-win32-vc8-debug:os_error_win32.obj
 0003:00015654       ??_C@_0CL@GFDHEKLB@Graceful?5shutdown?5in?5progress?5?$CIW@ 0052e654     pjlib-i386-win32-vc8-debug:os_error_win32.obj
 0003:00015688       ??_C@_0CD@OEALOMDH@Host?5not?5found?5?$CIWSAHOST_NOT_FOUN@ 0052e688     pjlib-i386-win32-vc8-debug:os_error_win32.obj
 0003:000156b4       ??_C@_0DB@KFPHELLI@No?5host?5data?5of?5that?5type?5was?5fo@ 0052e6b4     pjlib-i386-win32-vc8-debug:os_error_win32.obj
 0003:000156f0       ??_C@_1LO@NKBEIEMD@?$AAc?$AA?3?$AA?2?$AAu?$AAs?$AAe?$AAr?$AAs?$AA?2?$AA9?$AA2?$AA0?$AA0?$AA?2?$AAd?$AAe?$AAs?$AAk?$AAt?$AAo?$AAp?$AA?2?$AAw?$AAo?$AAr?$AAk?$AA?2?$AAp?$AA2?$AAp?$AA?2?$AAp@ 0052e6f0     pjlib-i386-win32-vc8-debug:os_error_win32.obj
 0003:000157d4       ??_C@_1CG@MKDKEIKM@?$AAb?$AAu?$AAf?$AA?5?$AA?$CB?$AA?$DN?$AA?5?$AA?$CI?$AA?$CI?$AAv?$AAo?$AAi?$AAd?$AA?5?$AA?$CK?$AA?$CJ?$AA0?$AA?$CJ?$AA?$AA@ 0052e7d4     pjlib-i386-win32-vc8-debug:os_error_win32.obj
 0003:00015804       ??_C@_1BK@KKHIEKEI@?$AAb?$AAu?$AAf?$AAs?$AAi?$AAz?$AAe?$AA?5?$AA?$DO?$AA?$DN?$AA?5?$AA0?$AA?$AA@ 0052e804     pjlib-i386-win32-vc8-debug:os_error_win32.obj
 0003:00015824       ??_C@_0BE@JPHLLAEM@Win32?5error?5code?5?$CFu?$AA@ 0052e824     pjlib-i386-win32-vc8-debug:os_error_win32.obj
 0003:00015840       ??_C@_1LC@CKFIHNOP@?$AAc?$AA?3?$AA?2?$AAu?$AAs?$AAe?$AAr?$AAs?$AA?2?$AA9?$AA2?$AA0?$AA0?$AA?2?$AAd?$AAe?$AAs?$AAk?$AAt?$AAo?$AAp?$AA?2?$AAw?$AAo?$AAr?$AAk?$AA?2?$AAp?$AA2?$AAp?$AA?2?$AAp@ 0052e840     pjlib-i386-win32-vc8-debug:pool_buf.obj
 0003:00015918       ??_C@_1CI@HJOGHDAN@?$AAs?$AAi?$AAz?$AAe?$AA?5?$AA?$DM?$AA?$DN?$AA?5?$AAp?$AAa?$AAr?$AAa?$AAm?$AA?9?$AA?$DO?$AAs?$AAi?$AAz?$AAe?$AA?$AA@ 0052e918     pjlib-i386-win32-vc8-debug:pool_buf.obj
 0003:00015948       ??_C@_1BI@BGGDHCPA@?$AAb?$AAu?$AAf?$AA?5?$AA?$CG?$AA?$CG?$AA?5?$AAs?$AAi?$AAz?$AAe?$AA?$AA@ 0052e948     pjlib-i386-win32-vc8-debug:pool_buf.obj
 0003:00015968       ??_C@_0GC@MDDOAPNG@c?3?2users?29200?2desktop?2work?2p2p?2p@ 0052e968     pjlib-i386-win32-vc8-debug:log_writer_stdout.obj
 0003:000159e0       ??_C@_02DKCKIIND@?$CFs?$AA@ 0052e9e0     pjlib-i386-win32-vc8-debug:log_writer_stdout.obj
 0003:000159e4       ??_C@_08PFPBFMIL@IpHlpApi?$AA@ 0052e9e4     pjlib-i386-win32-vc8-debug:ip_helper_win32.obj
 0003:000159f0       ??_C@_0P@PMIJPFPM@GetIpAddrTable?$AA@ 0052e9f0     pjlib-i386-win32-vc8-debug:ip_helper_win32.obj
 0003:00015a04       ??_C@_0BF@LHFCIIHE@GetAdaptersAddresses?$AA@ 0052ea04     pjlib-i386-win32-vc8-debug:ip_helper_win32.obj
 0003:00015a20       ??_C@_0L@BLHMKEDC@GetIfEntry?$AA@ 0052ea20     pjlib-i386-win32-vc8-debug:ip_helper_win32.obj
 0003:00015a30       ??_C@_0BC@MNHJPEOP@GetIpForwardTable?$AA@ 0052ea30     pjlib-i386-win32-vc8-debug:ip_helper_win32.obj
 0003:00015a48       ??_C@_1MA@GNPHJCKE@?$AAc?$AA?3?$AA?2?$AAu?$AAs?$AAe?$AAr?$AAs?$AA?2?$AA9?$AA2?$AA0?$AA0?$AA?2?$AAd?$AAe?$AAs?$AAk?$AAt?$AAo?$AAp?$AA?2?$AAw?$AAo?$AAr?$AAk?$AA?2?$AAp?$AA2?$AAp?$AA?2?$AAp@ 0052ea48     pjlib-i386-win32-vc8-debug:ip_helper_win32.obj
 0003:00015b30       ??_C@_1BK@HGDCMKGI@?$AAp?$AA_?$AAc?$AAn?$AAt?$AA?5?$AA?$CG?$AA?$CG?$AA?5?$AAi?$AAf?$AAs?$AA?$AA@ 0052eb30     pjlib-i386-win32-vc8-debug:ip_helper_win32.obj
 0003:00015b50       ??_C@_1CA@PNMIBKCD@?$AAp?$AA_?$AAc?$AAn?$AAt?$AA?5?$AA?$CG?$AA?$CG?$AA?5?$AAr?$AAo?$AAu?$AAt?$AAe?$AAs?$AA?$AA@ 0052eb50     pjlib-i386-win32-vc8-debug:ip_helper_win32.obj
 0003:00015b78       ??_C@_1MC@OMFNEGGN@?$AAc?$AA?3?$AA?2?$AAu?$AAs?$AAe?$AAr?$AAs?$AA?2?$AA9?$AA2?$AA0?$AA0?$AA?2?$AAd?$AAe?$AAs?$AAk?$AAt?$AAo?$AAp?$AA?2?$AAw?$AAo?$AAr?$AAk?$AA?2?$AAp?$AA2?$AAp?$AA?2?$AAp@ 0052eb78     pjlib-i386-win32-vc8-debug:addr_resolv_sock.obj
 0003:00015c60       ??_C@_1EI@LHIOBFFM@?$AAh?$AAo?$AAs?$AAt?$AAn?$AAa?$AAm?$AAe?$AA?5?$AA?$CG?$AA?$CG?$AA?5?$AAh?$AAo?$AAs?$AAt?$AAn?$AAa?$AAm?$AAe?$AA?5?$AA?9?$AA?$DO?$AAs?$AAl?$AAe?$AAn?$AA?5?$AA?$DM?$AA?5?$AA?$CI?$AA1@ 0052ec60     pjlib-i386-win32-vc8-debug:addr_resolv_sock.obj
 0003:00015cb8       ??_C@_1CA@LMDHKGAC@?$AAc?$AAo?$AAu?$AAn?$AAt?$AA?5?$AA?$CG?$AA?$CG?$AA?5?$AA?$CK?$AAc?$AAo?$AAu?$AAn?$AAt?$AA?$AA@ 0052ecb8     pjlib-i386-win32-vc8-debug:addr_resolv_sock.obj
 0003:00015ce0       ??_C@_0FF@EOMBENFD@c?3?2users?29200?2desktop?2work?2p2p?2p@ 0052ece0     pjlib-i386-win32-vc8-debug:rand.obj
 0003:00015d48       ??_C@_0FG@GLDLKBPO@c?3?2users?29200?2desktop?2work?2p2p?2p@ 0052ed48     pjlib-i386-win32-vc8-debug:types.obj
 0003:00015db0       ??_C@_0FM@BLFIMPLL@c?3?2users?29200?2desktop?2work?2p2p?2p@ 0052edb0     pjlib-i386-win32-vc8-debug:sock_select.obj
 0003:00015e40       ??_C@_0EJ@GHABDNKB@No?5playback?5frame?5available?5?$CIyou@ 0052ee40     libspeex-i386-win32-vc8-debug:mdf.obj
 0003:00015e98       ??_C@_0M@FDFEAFGN@warning?3?5?$CFs?$AA@ 0052ee98     libspeex-i386-win32-vc8-debug:mdf.obj
 0003:00015ea8       ??_C@_05JPFLDMPI@speex?$AA@ 0052eea8     libspeex-i386-win32-vc8-debug:mdf.obj
 0003:00015eb0       ??_C@_0CF@JGKBANKE@internal?5playback?5buffer?5corrupt@ 0052eeb0     libspeex-i386-win32-vc8-debug:mdf.obj
 0003:00015edc       ??_C@_0BP@HJHBOHLA@discarded?5first?5playback?5frame?$AA@ 0052eedc     libspeex-i386-win32-vc8-debug:mdf.obj
 0003:00015f08       ??_C@_0EF@JCPCCFEP@Auto?9filling?5the?5buffer?5?$CIyour?5ap@ 0052ef08     libspeex-i386-win32-vc8-debug:mdf.obj
 0003:00015f60       ??_C@_0EN@KMLFENGK@Had?5to?5discard?5a?5playback?5frame?5@ 0052ef60     libspeex-i386-win32-vc8-debug:mdf.obj
 0003:00015fc0       ??_C@_0FP@LGAMLFHE@The?5echo?5canceller?5started?5actin@ 0052efc0     libspeex-i386-win32-vc8-debug:mdf.obj
 0003:00016034       ??_C@_0CB@DEGFPNC@Unknown?5speex_echo_ctl?5request?3?5@ 0052f034     libspeex-i386-win32-vc8-debug:mdf.obj
 0003:0001605c       ??_C@_0BA@JHIGFAJK@warning?3?5?$CFs?3?5?$CFd?$AA@ 0052f05c     libspeex-i386-win32-vc8-debug:mdf.obj
 0003:00016070       __real@3cf5c28f            0052f070     libspeex-i386-win32-vc8-debug:mdf.obj
 0003:00016074       __real@3dcccccd            0052f074     libspeex-i386-win32-vc8-debug:mdf.obj
 0003:00016078       __real@3e19999a            0052f078     libspeex-i386-win32-vc8-debug:mdf.obj
 0003:0001607c       __real@3e800000            0052f07c     libspeex-i386-win32-vc8-debug:mdf.obj
 0003:00016080       __real@3ecccccd            0052f080     libspeex-i386-win32-vc8-debug:mdf.obj
 0003:00016084       __real@3f000000            0052f084     libspeex-i386-win32-vc8-debug:mdf.obj
 0003:00016088       __real@3f19999a            0052f088     libspeex-i386-win32-vc8-debug:mdf.obj
 0003:00016090       __real@3f1a36e2eb1c432d    0052f090     libspeex-i386-win32-vc8-debug:mdf.obj
 0003:0001609c       __real@3f333333            0052f09c     libspeex-i386-win32-vc8-debug:mdf.obj
 0003:000160a0       __real@3f4ccccd            0052f0a0     libspeex-i386-win32-vc8-debug:mdf.obj
 0003:000160a4       __real@3f59999a            0052f0a4     libspeex-i386-win32-vc8-debug:mdf.obj
 0003:000160a8       __real@3f666666            0052f0a8     libspeex-i386-win32-vc8-debug:mdf.obj
 0003:000160ac       __real@3f7b645a            0052f0ac     libspeex-i386-win32-vc8-debug:mdf.obj
 0003:000160b0       __real@3f7d70a4            0052f0b0     libspeex-i386-win32-vc8-debug:mdf.obj
 0003:000160b4       __real@3f7df3b6            0052f0b4     libspeex-i386-win32-vc8-debug:mdf.obj
 0003:000160b8       __real@3fd0000000000000    0052f0b8     libspeex-i386-win32-vc8-debug:mdf.obj
 0003:000160c8       __real@3fd3333333333333    0052f0c8     libspeex-i386-win32-vc8-debug:mdf.obj
 0003:000160d8       __real@3fd6666666666666    0052f0d8     libspeex-i386-win32-vc8-debug:mdf.obj
 0003:000160e8       __real@3fe6666666666666    0052f0e8     libspeex-i386-win32-vc8-debug:mdf.obj
 0003:000160f8       __real@4008000000000000    0052f0f8     libspeex-i386-win32-vc8-debug:mdf.obj
 0003:00016104       __real@4019999a            0052f104     libspeex-i386-win32-vc8-debug:mdf.obj
 0003:00016108       __real@42c80000            0052f108     libspeex-i386-win32-vc8-debug:mdf.obj
 0003:0001610c       __real@461c4000            0052f10c     libspeex-i386-win32-vc8-debug:mdf.obj
 0003:00016110       __real@467ffc00            0052f110     libspeex-i386-win32-vc8-debug:mdf.obj
 0003:00016114       __real@46fffe00            0052f114     libspeex-i386-win32-vc8-debug:mdf.obj
 0003:00016118       __real@c7000000            0052f118     libspeex-i386-win32-vc8-debug:mdf.obj
 0003:00016184       ??_C@_0DP@GLHJBLIP@The?5VAD?5has?5been?5replaced?5by?5a?5h@ 0052f184     libspeex-i386-win32-vc8-debug:preprocess.obj
 0003:000161d0       ??_C@_0CH@BPNBAON@Unknown?5speex_preprocess_ctl?5req@ 0052f1d0     libspeex-i386-win32-vc8-debug:preprocess.obj
 0003:00016200       __real@26901d7d            0052f200     libspeex-i386-win32-vc8-debug:preprocess.obj
 0003:00016204       __real@38d1b717            0052f204     libspeex-i386-win32-vc8-debug:preprocess.obj
 0003:00016208       __real@3a83126f            0052f208     libspeex-i386-win32-vc8-debug:preprocess.obj
 0003:0001620c       __real@3c23d70a            0052f20c     libspeex-i386-win32-vc8-debug:preprocess.obj
 0003:00016210       __real@3d4ccccd            0052f210     libspeex-i386-win32-vc8-debug:preprocess.obj
 0003:00016214       __real@3d99999a            0052f214     libspeex-i386-win32-vc8-debug:preprocess.obj
 0003:00016218       __real@3debc947            0052f218     libspeex-i386-win32-vc8-debug:preprocess.obj
 0003:0001621c       __real@3e4bc6a8            0052f21c     libspeex-i386-win32-vc8-debug:preprocess.obj
 0003:00016220       __real@3e4ccccd            0052f220     libspeex-i386-win32-vc8-debug:preprocess.obj
 0003:00016224       __real@3e6bc8e2            0052f224     libspeex-i386-win32-vc8-debug:preprocess.obj
 0003:00016228       __real@3e99999a            0052f228     libspeex-i386-win32-vc8-debug:preprocess.obj
 0003:0001622c       __real@3eaa7efa            0052f22c     libspeex-i386-win32-vc8-debug:preprocess.obj
 0003:00016230       __real@3eb33333            0052f230     libspeex-i386-win32-vc8-debug:preprocess.obj
 0003:00016234       __real@3f63d70a            0052f234     libspeex-i386-win32-vc8-debug:preprocess.obj
 0003:00016238       __real@3f6624dd            0052f238     libspeex-i386-win32-vc8-debug:preprocess.obj
 0003:0001623c       __real@3f733333            0052f23c     libspeex-i386-win32-vc8-debug:preprocess.obj
 0003:00016240       __real@3f9eb851eb851eb8    0052f240     libspeex-i386-win32-vc8-debug:preprocess.obj
 0003:0001624c       __real@3fa2cdb8            0052f24c     libspeex-i386-win32-vc8-debug:preprocess.obj
 0003:00016250       __real@3fc096bb98c7e282    0052f250     libspeex-i386-win32-vc8-debug:preprocess.obj
 0003:00016260       __real@3fc999999999999a    0052f260     libspeex-i386-win32-vc8-debug:preprocess.obj
 0003:00016270       __real@3fe75c2900000000    0052f270     libspeex-i386-win32-vc8-debug:preprocess.obj
 0003:00016280       __real@3ff61adea8000000    0052f280     libspeex-i386-win32-vc8-debug:preprocess.obj
 0003:00016290       __real@3ff921fb54442d18    0052f290     libspeex-i386-win32-vc8-debug:preprocess.obj
 0003:000162a0       __real@4014000000000000    0052f2a0     libspeex-i386-win32-vc8-debug:preprocess.obj
 0003:000162b0       __real@40215f212d773190    0052f2b0     libspeex-i386-win32-vc8-debug:preprocess.obj
 0003:000162bc       __real@40800000            0052f2bc     libspeex-i386-win32-vc8-debug:preprocess.obj
 0003:000162c0       __real@41f00000            0052f2c0     libspeex-i386-win32-vc8-debug:preprocess.obj
 0003:000162c4       __real@456d8000            0052f2c4     libspeex-i386-win32-vc8-debug:preprocess.obj
 0003:000162c8       __real@45fa0000            0052f2c8     libspeex-i386-win32-vc8-debug:preprocess.obj
 0003:000162cc       __real@467a0000            0052f2cc     libspeex-i386-win32-vc8-debug:preprocess.obj
 0003:000162d0       __real@46dac000            0052f2d0     libspeex-i386-win32-vc8-debug:preprocess.obj
 0003:000162d4       __real@47000000            0052f2d4     libspeex-i386-win32-vc8-debug:preprocess.obj
 0003:000162d8       __real@495bba00            0052f2d8     libspeex-i386-win32-vc8-debug:preprocess.obj
 0003:000162dc       __real@4e6e6b28            0052f2dc     libspeex-i386-win32-vc8-debug:preprocess.obj
 0003:000162e0       __real@bf000000            0052f2e0     libspeex-i386-win32-vc8-debug:preprocess.obj
 0003:000162e8       __real@bfc99999a0000000    0052f2e8     libspeex-i386-win32-vc8-debug:preprocess.obj
 0003:000162f8       __real@c0126bb98c000000    0052f2f8     libspeex-i386-win32-vc8-debug:preprocess.obj
 0003:00016304       ??_C@_0CA@EIAGMGLH@FFT?5should?5not?5be?5done?5in?9place?$AA@ 0052f304     libspeex-i386-win32-vc8-debug:fftwrap.obj
 0003:0001632c       __real@329ee9ee            0052f32c     libspeex-i386-win32-vc8-debug:filterbank.obj
 0003:00016330       __real@3a41fc8f            0052f330     libspeex-i386-win32-vc8-debug:filterbank.obj
 0003:00016334       __real@3eaed289            0052f334     libspeex-i386-win32-vc8-debug:filterbank.obj
 0003:00016338       __real@3f004dfd            0052f338     libspeex-i386-win32-vc8-debug:filterbank.obj
 0003:00016340       __real@4001eb8520000000    0052f340     libspeex-i386-win32-vc8-debug:filterbank.obj
 0003:00016350       __real@402a333340000000    0052f350     libspeex-i386-win32-vc8-debug:filterbank.obj
 0003:0001635c       ??_C@_0O@MIKIJNFL@crypto?5kernel?$AA@ 0052f35c     libsrtp-i386-win32-vc8-debug:crypto_kernel.obj
 0003:0001636c       ??_C@_0BH@HDPMNGEM@testing?5rand_source?4?4?4?$AA@ 0052f36c     libsrtp-i386-win32-vc8-debug:crypto_kernel.obj
 0003:00016388       ??_C@_07GLGIIGGC@failed?6?$AA@ 0052f388     libsrtp-i386-win32-vc8-debug:crypto_kernel.obj
 0003:00016394       ??_C@_07JBEBJPGA@passed?6?$AA@ 0052f394     libsrtp-i386-win32-vc8-debug:crypto_kernel.obj
 0003:000163a0       ??_C@_0M@FNOFIMGM@cipher?3?5?$CFs?6?$AA@ 0052f3a0     libsrtp-i386-win32-vc8-debug:crypto_kernel.obj
 0003:000163b0       ??_C@_0BG@FPPKCBEM@?5?5instance?5count?3?5?$CFd?6?$AA@ 0052f3b0     libsrtp-i386-win32-vc8-debug:crypto_kernel.obj
 0003:000163cc       ??_C@_0O@CJBDENN@?5?5self?9test?3?5?$AA@ 0052f3cc     libsrtp-i386-win32-vc8-debug:crypto_kernel.obj
 0003:000163dc       ??_C@_0BL@HPMBNDJK@failed?5with?5error?5code?5?$CFd?6?$AA@ 0052f3dc     libsrtp-i386-win32-vc8-debug:crypto_kernel.obj
 0003:000163fc       ??_C@_0P@CJMMEABE@auth?5func?3?5?$CFs?6?$AA@ 0052f3fc     libsrtp-i386-win32-vc8-debug:crypto_kernel.obj
 0003:00016410       ??_C@_0BH@NLMDBEPJ@debug?5modules?5loaded?3?6?$AA@ 0052f410     libsrtp-i386-win32-vc8-debug:crypto_kernel.obj
 0003:0001642c       ??_C@_05NMIPNJMJ@?5?5?$CFs?5?$AA@ 0052f42c     libsrtp-i386-win32-vc8-debug:crypto_kernel.obj
 0003:00016434       ??_C@_05KICKCMEO@?$CIon?$CJ?6?$AA@ 0052f434     libsrtp-i386-win32-vc8-debug:crypto_kernel.obj
 0003:0001643c       ??_C@_06KCCPFFCC@?$CIoff?$CJ?6?$AA@ 0052f43c     libsrtp-i386-win32-vc8-debug:crypto_kernel.obj
 0003:00016444       ??_C@_0CC@DLGHEHKN@?$CFs?3?5freeing?5memory?5for?5cipher?5?$CFs@ 0052f444     libsrtp-i386-win32-vc8-debug:crypto_kernel.obj
 0003:0001646c       ??_C@_0CK@KGHAAPIM@?$CFs?3?5freeing?5memory?5for?5authentic@ 0052f46c     libsrtp-i386-win32-vc8-debug:crypto_kernel.obj
 0003:000164a0       ??_C@_0CI@MFBGGOG@?$CFs?3?5freeing?5memory?5for?5debug?5mod@ 0052f4a0     libsrtp-i386-win32-vc8-debug:crypto_kernel.obj
 0003:000164d0       ??_C@_04DKFOEDJA@srtp?$AA@ 0052f4d0     libsrtp-i386-win32-vc8-debug:srtp.obj
 0003:000164d8       ??_C@_0CD@KFGKPJOG@?$CFs?3?5cloning?5stream?5?$CISSRC?3?50x?$CF08x@ 0052f4d8     libsrtp-i386-win32-vc8-debug:srtp.obj
 0003:00016504       ??_C@_0CE@KANLHMK@?$CFs?3?5found?5aes_icm?0?5generating?5sa@ 0052f504     libsrtp-i386-win32-vc8-debug:srtp.obj
 0003:00016530       ??_C@_0BE@PGOGLMMP@?$CFs?3?5cipher?5key?3?5?$CFs?6?$AA@ 0052f530     libsrtp-i386-win32-vc8-debug:srtp.obj
 0003:00016548       ??_C@_0BE@HGKFNAFC@?$CFs?3?5auth?5key?3?5?5?5?$CFs?6?$AA@ 0052f548     libsrtp-i386-win32-vc8-debug:srtp.obj
 0003:00016560       ??_C@_0CJ@BAADIODK@?$CFs?3?5found?5aes_icm?0?5generating?5rt@ 0052f560     libsrtp-i386-win32-vc8-debug:srtp.obj
 0003:00016594       ??_C@_0BJ@KAKGCCMO@?$CFs?3?5rtcp?5cipher?5key?3?5?$CFs?6?$AA@ 0052f594     libsrtp-i386-win32-vc8-debug:srtp.obj
 0003:000165b4       ??_C@_0BJ@CAOFEOFD@?$CFs?3?5rtcp?5auth?5key?3?5?5?5?$CFs?6?$AA@ 0052f5b4     libsrtp-i386-win32-vc8-debug:srtp.obj
 0003:000165d4       ??_C@_0CI@PDNDGOMA@?$CFs?3?5initializing?5stream?5?$CISSRC?3?50@ 0052f5d4     libsrtp-i386-win32-vc8-debug:srtp.obj
 0003:00016604       ??_C@_0BH@GAKJJGLB@srtp?3?5in?5stream?50x?$CFx?3?5?$AA@ 0052f604     libsrtp-i386-win32-vc8-debug:srtp.obj
 0003:00016620       ??_C@_0BB@PPFALDPP@?7SSRC?5collision?6?$AA@ 0052f620     libsrtp-i386-win32-vc8-debug:srtp.obj
 0003:00016634       ??_C@_0BP@HOEKLBIN@?7key?5usage?5soft?5limit?5reached?6?$AA@ 0052f634     libsrtp-i386-win32-vc8-debug:srtp.obj
 0003:0001665c       ??_C@_0BP@KNJIFCF@?7key?5usage?5hard?5limit?5reached?6?$AA@ 0052f65c     libsrtp-i386-win32-vc8-debug:srtp.obj
 0003:00016684       ??_C@_0BN@MKCGGAOP@?7packet?5index?5limit?5reached?6?$AA@ 0052f684     libsrtp-i386-win32-vc8-debug:srtp.obj
 0003:000166a8       ??_C@_0CE@FFJEPPID@?7unknown?5event?5reported?5to?5handl@ 0052f6a8     libsrtp-i386-win32-vc8-debug:srtp.obj
 0003:000166d4       ??_C@_0BL@MADNODBC@?$CFs?3?5function?5srtp_protect?6?$AA@ 0052f6d4     libsrtp-i386-win32-vc8-debug:srtp.obj
 0003:000166f4       ??_C@_0CF@PEPHCKJP@?$CFs?3?5estimated?5packet?5index?3?5?$CF016@ 0052f6f4     libsrtp-i386-win32-vc8-debug:srtp.obj
 0003:00016720       ??_C@_0BK@KLBGMJPP@?$CFs?3?5keystream?5prefix?3?5?$CFs?6?$AA@ 0052f720     libsrtp-i386-win32-vc8-debug:srtp.obj
 0003:00016740       ??_C@_0BK@GCKOFNLP@?$CFs?3?5srtp?5auth?5tag?3?5?5?5?5?$CFs?6?$AA@ 0052f740     libsrtp-i386-win32-vc8-debug:srtp.obj
 0003:00016760       ??_C@_0BN@LADOAJPP@?$CFs?3?5function?5srtp_unprotect?6?$AA@ 0052f760     libsrtp-i386-win32-vc8-debug:srtp.obj
 0003:00016784       ??_C@_0CN@PJAKIEAG@?$CFs?3?5using?5provisional?5stream?5?$CISS@ 0052f784     libsrtp-i386-win32-vc8-debug:srtp.obj
 0003:000167bc       ??_C@_0CH@MOHBLIMO@?$CFs?3?5estimated?5u_packet?5index?3?5?$CF0@ 0052f7bc     libsrtp-i386-win32-vc8-debug:srtp.obj
 0003:000167ec       ??_C@_0BO@BONEKIBH@?$CFs?3?5computed?5auth?5tag?3?5?5?5?5?$CFs?6?$AA@ 0052f7ec     libsrtp-i386-win32-vc8-debug:srtp.obj
 0003:00016810       ??_C@_0BO@KMHOFFAA@?$CFs?3?5packet?5auth?5tag?3?5?5?5?5?5?5?$CFs?6?$AA@ 0052f810     libsrtp-i386-win32-vc8-debug:srtp.obj
 0003:00016834       ??_C@_0BF@JBCKCIAJ@?$CFs?3?5srtcp?5index?3?5?$CFx?6?$AA@ 0052f834     libsrtp-i386-win32-vc8-debug:srtp.obj
 0003:00016850       ??_C@_0BL@OBHAKLEH@?$CFs?3?5srtcp?5auth?5tag?3?5?5?5?5?$CFs?6?$AA@ 0052f850     libsrtp-i386-win32-vc8-debug:srtp.obj
 0003:00016870       ??_C@_0DD@HHOLLDKC@?$CFs?3?5srtcp?5using?5provisional?5stre@ 0052f870     libsrtp-i386-win32-vc8-debug:srtp.obj
 0003:000168b0       ??_C@_0CC@IMKDPKDI@?$CFs?3?5srtcp?5computed?5tag?3?5?5?5?5?5?5?5?$CFs@ 0052f8b0     libsrtp-i386-win32-vc8-debug:srtp.obj
 0003:000168d8       ??_C@_0CC@GFCANNPL@?$CFs?3?5srtcp?5tag?5from?5packet?3?5?5?5?5?$CFs@ 0052f8d8     libsrtp-i386-win32-vc8-debug:srtp.obj
 0003:00016900       ??_C@_05KNPMOECN@alloc?$AA@ 0052f900     libsrtp-i386-win32-vc8-debug:alloc.obj
 0003:00016908       ??_C@_0BO@KJOGHNGM@?$CFs?3?5?$CIlocation?3?5?$CFp?$CJ?5allocated?6?$AA@ 0052f908     libsrtp-i386-win32-vc8-debug:alloc.obj
 0003:0001692c       ??_C@_0CN@JJLNACEJ@?$CFs?3?5allocation?5failed?5?$CIasked?5for@ 0052f92c     libsrtp-i386-win32-vc8-debug:alloc.obj
 0003:00016964       ??_C@_0BK@BNKOPMHD@?$CFs?3?5?$CIlocation?3?5?$CFp?$CJ?5freed?6?$AA@ 0052f964     libsrtp-i386-win32-vc8-debug:alloc.obj
 0003:00016984       ??_C@_07EFAIHJHH@libsrtp?$AA@ 0052f984     libsrtp-i386-win32-vc8-debug:srtp_err.obj
 0003:00016990       ??_C@_06KDGDAFPH@cipher?$AA@ 0052f990     libsrtp-i386-win32-vc8-debug:cipher.obj
 0003:00016998       ??_C@_0CF@FLDNHEPF@?$CFs?3?5running?5self?9test?5for?5cipher@ 0052f998     libsrtp-i386-win32-vc8-debug:cipher.obj
 0003:000169c4       ??_C@_0BI@DMHBCEPE@?$CFs?3?5testing?5encryption?6?$AA@ 0052f9c4     libsrtp-i386-win32-vc8-debug:cipher.obj
 0003:000169e0       ??_C@_0BG@IGPMAAHP@?$CFs?3?5plaintext?3?5?5?5?5?$CFs?6?$AA@ 0052f9e0     libsrtp-i386-win32-vc8-debug:cipher.obj
 0003:000169fc       ??_C@_0BG@LLNGMAPJ@?$CFs?3?5ciphertext?3?5?5?5?$CFs?6?$AA@ 0052f9fc     libsrtp-i386-win32-vc8-debug:cipher.obj
 0003:00016a18       ??_C@_0BJ@ECBNBHJB@?$CFs?3?5test?5case?5?$CFd?5failed?6?$AA@ 0052fa18     libsrtp-i386-win32-vc8-debug:cipher.obj
 0003:00016a38       ??_C@_0BK@FFAGFACF@?$CFs?3?5?$CIfailure?5at?5byte?5?$CFd?$CJ?6?$AA@ 0052fa38     libsrtp-i386-win32-vc8-debug:cipher.obj
 0003:00016a58       ??_C@_0BE@FJOCDNKP@?$CFs?3?5c?5computed?3?5?$CFs?6?$AA@ 0052fa58     libsrtp-i386-win32-vc8-debug:cipher.obj
 0003:00016a70       ??_C@_0BE@PPCKDKP@?$CFs?3?5c?5expected?3?5?$CFs?6?$AA@ 0052fa70     libsrtp-i386-win32-vc8-debug:cipher.obj
 0003:00016a88       ??_C@_0BI@IEPFOPNP@?$CFs?3?5testing?5decryption?6?$AA@ 0052fa88     libsrtp-i386-win32-vc8-debug:cipher.obj
 0003:00016aa4       ??_C@_0BH@EDJDPICD@?$CFs?3?5ciphertext?3?5?5?5?5?$CFs?6?$AA@ 0052faa4     libsrtp-i386-win32-vc8-debug:cipher.obj
 0003:00016ac0       ??_C@_0BF@GOBFCCEB@?$CFs?3?5plaintext?3?5?5?5?$CFs?6?$AA@ 0052fac0     libsrtp-i386-win32-vc8-debug:cipher.obj
 0003:00016adc       ??_C@_0BE@JGANLHMD@?$CFs?3?5p?5computed?3?5?$CFs?6?$AA@ 0052fadc     libsrtp-i386-win32-vc8-debug:cipher.obj
 0003:00016af4       ??_C@_0BE@MABNCJMD@?$CFs?3?5p?5expected?3?5?$CFs?6?$AA@ 0052faf4     libsrtp-i386-win32-vc8-debug:cipher.obj
 0003:00016b0c       ??_C@_0CB@OOAIJLO@?$CFs?3?5random?5plaintext?5length?5?$CFd?6?6@ 0052fb0c     libsrtp-i386-win32-vc8-debug:cipher.obj
 0003:00016b34       ??_C@_0BG@NMIIDDNI@?$CFs?3?5plaintext?$FL2?$FN?3?5?$CFs?6?$AA@ 0052fb34     libsrtp-i386-win32-vc8-debug:cipher.obj
 0003:00016b50       ??_C@_0CA@EAJGEBOP@?$CFs?3?5random?5test?5case?5?$CFd?5failed?6?$AA@ 0052fb50     libsrtp-i386-win32-vc8-debug:cipher.obj
 0003:00016b78       ??_C@_09EJIBOKIO@auth?5func?$AA@ 0052fb78     libsrtp-i386-win32-vc8-debug:auth.obj
 0003:00016b84       ??_C@_0CM@DFOPKAOA@?$CFs?3?5running?5self?9test?5for?5auth?5f@ 0052fb84     libsrtp-i386-win32-vc8-debug:auth.obj
 0003:00016bb8       ??_C@_0N@OIMPEMMJ@?$CFs?3?5key?3?5?$CFs?6?$AA@ 0052fbb8     libsrtp-i386-win32-vc8-debug:auth.obj
 0003:00016bc8       ??_C@_0O@NBGEFCOD@?$CFs?3?5data?3?5?$CFs?6?$AA@ 0052fbc8     libsrtp-i386-win32-vc8-debug:auth.obj
 0003:00016bd8       ??_C@_0BG@KCOPIALB@?$CFs?3?5tag?5computed?3?5?$CFs?6?$AA@ 0052fbd8     libsrtp-i386-win32-vc8-debug:auth.obj
 0003:00016bf4       ??_C@_0BG@PEPPBOLB@?$CFs?3?5tag?5expected?3?5?$CFs?6?$AA@ 0052fbf4     libsrtp-i386-win32-vc8-debug:auth.obj
 0003:00016c10       ??_C@_0BO@CKPEGHKK@?$CFs?3?5?5?5?$CImismatch?5at?5octet?5?$CFd?$CJ?6?$AA@ 0052fc10     libsrtp-i386-win32-vc8-debug:auth.obj
 0003:00016c34       ??_C@_09LCMAEBCF@stat?5test?$AA@ 0052fc34     libsrtp-i386-win32-vc8-debug:stat.obj
 0003:00016c40       ??_C@_0BD@GAOMHCBM@?$CFs?3?5bit?5count?3?5?$CFd?6?$AA@ 0052fc40     libsrtp-i386-win32-vc8-debug:stat.obj
 0003:00016c58       ??_C@_0BF@CHHGEAGD@?$CFs?3?5poker?5test?3?5?$CFf?6?6?$AA@ 0052fc58     libsrtp-i386-win32-vc8-debug:stat.obj
 0003:00016c74       ??_C@_0BC@IAPCEOOF@?$CFs?3?5?$DO25?5runs?3?5?$CFd?6?$AA@ 0052fc74     libsrtp-i386-win32-vc8-debug:stat.obj
 0003:00016c8c       ??_C@_0BC@NJGIDECN@?$CFs?3?5?$DO25?5gaps?3?5?$CFd?6?$AA@ 0052fc8c     libsrtp-i386-win32-vc8-debug:stat.obj
 0003:00016ca4       ??_C@_0BG@GPAHHCLO@?$CFs?3?5?$DO25?5runs?5?$CI2?$CJ?3?5?$CFd?6?$AA@ 0052fca4     libsrtp-i386-win32-vc8-debug:stat.obj
 0003:00016cc0       ??_C@_0BG@BMIBNCBB@?$CFs?3?5?$DO25?5gaps?5?$CI2?$CJ?3?5?$CFd?6?$AA@ 0052fcc0     libsrtp-i386-win32-vc8-debug:stat.obj
 0003:00016cdc       ??_C@_0P@POGGHKML@?$CFs?3?5runs?5test?6?$AA@ 0052fcdc     libsrtp-i386-win32-vc8-debug:stat.obj
 0003:00016cf0       ??_C@_0BC@KILFBMLF@?$CFs?3?5?5?5runs?$FL?$FN?3?5?$CFd?6?$AA@ 0052fcf0     libsrtp-i386-win32-vc8-debug:stat.obj
 0003:00016d08       ??_C@_0BC@BLEGIAEL@?$CFs?3?5?5?5gaps?$FL?$FN?3?5?$CFd?6?$AA@ 0052fd08     libsrtp-i386-win32-vc8-debug:stat.obj
 0003:00016d20       ??_C@_0CB@CCDIJIAM@?$CFs?3?5couldn?8t?5get?5rand?5bytes?3?5?$CFd?6@ 0052fd20     libsrtp-i386-win32-vc8-debug:stat.obj
 0003:00016d48       ??_C@_0BG@KDKNHCCA@?$CFs?3?5?$DO25?5runs?5?$CI3?$CJ?3?5?$CFd?6?$AA@ 0052fd48     libsrtp-i386-win32-vc8-debug:stat.obj
 0003:00016d64       ??_C@_0BG@NACLNCIP@?$CFs?3?5?$DO25?5gaps?5?$CI3?$CJ?3?5?$CFd?6?$AA@ 0052fd64     libsrtp-i386-win32-vc8-debug:stat.obj
 0003:00016d80       ??_C@_0BG@KJGIHLDJ@?$CFs?3?5?$DO25?5runs?5?$CI4?$CJ?3?5?$CFd?6?$AA@ 0052fd80     libsrtp-i386-win32-vc8-debug:stat.obj
 0003:00016d9c       ??_C@_0BG@NKOONLJG@?$CFs?3?5?$DO25?5gaps?5?$CI4?$CJ?3?5?$CFd?6?$AA@ 0052fd9c     libsrtp-i386-win32-vc8-debug:stat.obj
 0003:00016db8       ??_C@_0BJ@LDNJNIDO@?$CFs?3?5stat?3?5bit?5count?3?5?$CFd?6?$AA@ 0052fdb8     libsrtp-i386-win32-vc8-debug:stat.obj
 0003:00016dd8       ??_C@_0CC@OEPLDONG@?$CFs?3?5stat?3?5failed?5monobit?5test?5?$CFd@ 0052fdd8     libsrtp-i386-win32-vc8-debug:stat.obj
 0003:00016e00       ??_C@_0BK@EBGHFECB@?$CFs?3?5stat?3?5poker?5test?3?5?$CFf?6?$AA@ 0052fe00     libsrtp-i386-win32-vc8-debug:stat.obj
 0003:00016e20       ??_C@_0BN@GPPMGOKK@?$CFs?3?5stat?3?5failed?5poker?5test?6?$AA@ 0052fe20     libsrtp-i386-win32-vc8-debug:stat.obj
 0003:00016e44       ??_C@_0BP@FICCAFLM@?$CFs?3?5stat?3?5failed?5run?1gap?5test?6?$AA@ 0052fe44     libsrtp-i386-win32-vc8-debug:stat.obj
 0003:00016e6c       ??_C@_0BN@GAPDDPKH@?$CFs?3?5passed?5random?5stat?5test?6?$AA@ 0052fe6c     libsrtp-i386-win32-vc8-debug:stat.obj
 0003:00016e90       ??_C@_0CH@JEBAOIDL@?$CFs?3?5failed?5stat?5test?5?$CItry?5number@ 0052fe90     libsrtp-i386-win32-vc8-debug:stat.obj
 0003:00016ec0       __real@3f6a36e2eb1c432d    0052fec0     libsrtp-i386-win32-vc8-debug:stat.obj
 0003:00016ed0       __real@400147ae147ae148    0052fed0     libsrtp-i386-win32-vc8-debug:stat.obj
 0003:00016ee0       __real@404715c28f5c28f6    0052fee0     libsrtp-i386-win32-vc8-debug:stat.obj
 0003:00016ef0       __real@40b3880000000000    0052fef0     libsrtp-i386-win32-vc8-debug:stat.obj
 0003:00016efc       ??_C@_0CK@DAFEFAPH@?$CFs?3?5allocating?5cipher?5with?5key?5l@ 0052fefc     libsrtp-i386-win32-vc8-debug:null_cipher.obj
 0003:00016f30       ??_C@_0BO@HCJFKKEE@?$CFs?3?5initializing?5null?5cipher?6?$AA@ 0052ff30     libsrtp-i386-win32-vc8-debug:null_cipher.obj
 0003:00016f54       ??_C@_07MPIJGLIA@aes?5icm?$AA@ 0052ff54     libsrtp-i386-win32-vc8-debug:aes_icm.obj
 0003:00016f60       ??_C@_0O@GFBJNBAD@?$CFs?3?5key?3?5?5?$CFs?6?$AA@ 0052ff60     libsrtp-i386-win32-vc8-debug:aes_icm.obj
 0003:00016f70       ??_C@_0BA@ILFEGDEM@?$CFs?3?5offset?3?5?$CFs?6?$AA@ 0052ff70     libsrtp-i386-win32-vc8-debug:aes_icm.obj
 0003:00016f84       ??_C@_0BD@KCAAHGLK@?$CFs?3?5set_octet?3?5?$CFs?6?$AA@ 0052ff84     libsrtp-i386-win32-vc8-debug:aes_icm.obj
 0003:00016f9c       ??_C@_0BE@ENJPOLAG@?$CFs?3?5counter?3?5?5?5?5?$CFs?6?$AA@ 0052ff9c     libsrtp-i386-win32-vc8-debug:aes_icm.obj
 0003:00016fb4       ??_C@_0BE@ILCAEFF@?$CFs?3?5ciphertext?3?5?$CFs?6?$AA@ 0052ffb4     libsrtp-i386-win32-vc8-debug:aes_icm.obj
 0003:00016fcc       ??_C@_0BE@ECIFEEKH@?$CFs?3?5setting?5iv?3?5?$CFs?6?$AA@ 0052ffcc     libsrtp-i386-win32-vc8-debug:aes_icm.obj
 0003:00016fe4       ??_C@_0BF@OAOEHNDM@?$CFs?3?5set_counter?3?5?$CFs?6?$AA@ 0052ffe4     libsrtp-i386-win32-vc8-debug:aes_icm.obj
 0003:00017000       ??_C@_0BF@BLBMMINO@?$CFs?3?5block?5index?3?5?$CFd?6?$AA@ 00530000     libsrtp-i386-win32-vc8-debug:aes_icm.obj
 0003:0001701c       ??_C@_07DPHFMMFN@aes?5cbc?$AA@ 0053001c     libsrtp-i386-win32-vc8-debug:aes_cbc.obj
 0003:00017028       ??_C@_0M@IBNAAFBJ@?$CFs?3?5iv?3?5?$CFs?6?$AA@ 00530028     libsrtp-i386-win32-vc8-debug:aes_cbc.obj
 0003:00017038       ??_C@_0BC@OKGIACPM@?$CFs?3?5inblock?3?5?5?$CFs?6?$AA@ 00530038     libsrtp-i386-win32-vc8-debug:aes_cbc.obj
 0003:00017050       ??_C@_0BC@JDOKDHF@?$CFs?3?5outblock?3?5?$CFs?6?$AA@ 00530050     libsrtp-i386-win32-vc8-debug:aes_cbc.obj
 0003:00017068       ??_C@_0CN@KBEHBKDH@?$CFs?3?5allocating?5auth?5func?5with?5ke@ 00530068     libsrtp-i386-win32-vc8-debug:null_auth.obj
 0003:000170a0       ??_C@_0CN@FDNDBNFI@?$CFs?3?5?5?5?5?5?5?5?5?5?5?5?5?5?5?5?5?5?5?5?5?5?5?5?5?5?5?5ta@ 005300a0     libsrtp-i386-win32-vc8-debug:null_auth.obj
 0003:000170d8       ??_C@_0L@NBBBLMAJ@hmac?5sha?91?$AA@ 005300d8     libsrtp-i386-win32-vc8-debug:hmac.obj
 0003:000170e8       ??_C@_0O@PJECJPIJ@?$CFs?3?5ipad?3?5?$CFs?6?$AA@ 005300e8     libsrtp-i386-win32-vc8-debug:hmac.obj
 0003:000170f8       ??_C@_0P@JHGAOEEF@?$CFs?3?5input?3?5?$CFs?6?$AA@ 005300f8     libsrtp-i386-win32-vc8-debug:hmac.obj
 0003:0001710c       ??_C@_0BM@JABNBLDM@?$CFs?3?5intermediate?5state?3?5?$CFs?6?$AA@ 0053010c     libsrtp-i386-win32-vc8-debug:hmac.obj
 0003:00017130       ??_C@_0BA@NKCNJNLN@?$CFs?3?5output?3?5?$CFs?6?$AA@ 00530130     libsrtp-i386-win32-vc8-debug:hmac.obj
 0003:00017144       ??_C@_05BPJLFPNI@sha?91?$AA@ 00530144     libsrtp-i386-win32-vc8-debug:sha1.obj
 0003:0001714c       ??_C@_0CC@GKOIIHOG@?$CFs?3?5?$CIupdate?$CJ?5running?5sha1_core?$CI?$CJ@ 0053014c     libsrtp-i386-win32-vc8-debug:sha1.obj
 0003:00017174       ??_C@_0CG@KGMPNKKF@?$CFs?3?5?$CIupdate?$CJ?5not?5running?5sha1_co@ 00530174     libsrtp-i386-win32-vc8-debug:sha1.obj
 0003:000171a4       ??_C@_0CB@KIPIFMFH@?$CFs?3?5?$CIfinal?$CJ?5running?5sha1_core?$CI?$CJ?6@ 005301a4     libsrtp-i386-win32-vc8-debug:sha1.obj
 0003:000171cc       ??_C@_0CH@HCINMGOM@?$CFs?3?5?$CIfinal?$CJ?5running?5sha1_core?$CI?$CJ?5@ 005301cc     libsrtp-i386-win32-vc8-debug:sha1.obj
 0003:000171fc       ??_C@_0CH@FPHLCLAF@f?3?2dd?2vctools?2crt?2crtw32?2stdio?2_@ 005301fc     LIBCMTD:_file.obj
 0003:00017230       ??_C@_1EK@KICPAPCG@?$AA?$CI?$AA?5?$AAs?$AAt?$AAr?$AAi?$AAn?$AAg?$AA?5?$AA?$CB?$AA?$DN?$AA?5?$AAN?$AAU?$AAL?$AAL?$AA?5?$AA?$CJ?$AA?5?$AA?$HM?$AA?$HM?$AA?5?$AA?$CI?$AA?5?$AAc?$AAo?$AAu?$AAn?$AAt?$AA?5?$AA?$DN?$AA?$DN@ 00530230     LIBCMTD:fgets.obj
 0003:00017288       ??_C@_15GANGMFKL@?$AA?$CF?$AAs?$AA?$AA@ 00530288     LIBCMTD:fgets.obj
 0003:00017290       ??_C@_1EO@PGEPLMEM@?$AAf?$AA?3?$AA?2?$AAd?$AAd?$AA?2?$AAv?$AAc?$AAt?$AAo?$AAo?$AAl?$AAs?$AA?2?$AAc?$AAr?$AAt?$AA?2?$AAc?$AAr?$AAt?$AAw?$AA3?$AA2?$AA?2?$AAs?$AAt?$AAd?$AAi?$AAo?$AA?2?$AAf@ 00530290     LIBCMTD:fgets.obj
 0003:000172f0       ??_C@_1M@BEMABAL@?$AAf?$AAg?$AAe?$AAt?$AAs?$AA?$AA@ 005302f0     LIBCMTD:fgets.obj
 0003:00017300       ??_C@_1BO@CLMMCNLO@?$AA?$CI?$AA?5?$AAc?$AAo?$AAu?$AAn?$AAt?$AA?5?$AA?$DO?$AA?$DN?$AA?5?$AA0?$AA?5?$AA?$CJ?$AA?$AA@ 00530300     LIBCMTD:fgets.obj
 0003:00017324       ??_C@_1CA@EHPEFHFN@?$AA?$CI?$AA?5?$AAs?$AAt?$AAr?$AA?5?$AA?$CB?$AA?$DN?$AA?5?$AAN?$AAU?$AAL?$AAL?$AA?5?$AA?$CJ?$AA?$AA@ 00530324     LIBCMTD:fgets.obj
 0003:00017350       ??_C@_1BAA@ODEGEDCK@?$AA?$CI?$AA?5?$AA?$CI?$AA_?$AAS?$AAt?$AAr?$AAe?$AAa?$AAm?$AA?9?$AA?$DO?$AA_?$AAf?$AAl?$AAa?$AAg?$AA?5?$AA?$CG?$AA?5?$AA_?$AAI?$AAO?$AAS?$AAT?$AAR?$AAG?$AA?$CJ?$AA?5?$AA?$HM?$AA?$HM?$AA?5@ 00530350     LIBCMTD:fgets.obj
 0003:00017484       ??_C@_1CC@MGIEJOME@?$AA?$CI?$AAf?$AAo?$AAr?$AAm?$AAa?$AAt?$AA?5?$AA?$CB?$AA?$DN?$AA?5?$AAN?$AAU?$AAL?$AAL?$AA?$CJ?$AA?$AA@ 00530484     LIBCMTD:printf.obj
 0003:000174b0       ??_C@_1FA@GMJBBNDK@?$AAf?$AA?3?$AA?2?$AAd?$AAd?$AA?2?$AAv?$AAc?$AAt?$AAo?$AAo?$AAl?$AAs?$AA?2?$AAc?$AAr?$AAt?$AA?2?$AAc?$AAr?$AAt?$AAw?$AA3?$AA2?$AA?2?$AAs?$AAt?$AAd?$AAi?$AAo?$AA?2?$AAp@ 005304b0     LIBCMTD:printf.obj
 0003:00017510       ??_C@_1O@GKDHFACN@?$AAp?$AAr?$AAi?$AAn?$AAt?$AAf?$AA?$AA@ 00530510     LIBCMTD:printf.obj
 0003:00017520       ??_C@_1CC@OLIJCKA@?$AA?$CI?$AAs?$AAt?$AAr?$AAi?$AAn?$AAg?$AA?5?$AA?$CB?$AA?$DN?$AA?5?$AAN?$AAU?$AAL?$AAL?$AA?$CJ?$AA?$AA@ 00530520     LIBCMTD:puts.obj
 0003:00017548       ??_C@_1EM@IHFMKAO@?$AAf?$AA?3?$AA?2?$AAd?$AAd?$AA?2?$AAv?$AAc?$AAt?$AAo?$AAo?$AAl?$AAs?$AA?2?$AAc?$AAr?$AAt?$AA?2?$AAc?$AAr?$AAt?$AAw?$AA3?$AA2?$AA?2?$AAs?$AAt?$AAd?$AAi?$AAo?$AA?2?$AAp@ 00530548     LIBCMTD:puts.obj
 0003:000175a4       ??_C@_19OHLFMNEA@?$AAp?$AAu?$AAt?$AAs?$AA?$AA@ 005305a4     LIBCMTD:puts.obj
 0003:000175b0       ?ProcessDetach@NativeDll@<CrtImplementationDetails>@@0IB 005305b0     LIBCMTD:strtol.obj
 0003:000175b4       ?ProcessAttach@NativeDll@<CrtImplementationDetails>@@0IB 005305b4     LIBCMTD:strtol.obj
 0003:000175b8       ?ThreadAttach@NativeDll@<CrtImplementationDetails>@@0IB 005305b8     LIBCMTD:strtol.obj
 0003:000175bc       ?ThreadDetach@NativeDll@<CrtImplementationDetails>@@0IB 005305bc     LIBCMTD:strtol.obj
 0003:000175c0       ?ProcessVerifier@NativeDll@<CrtImplementationDetails>@@0IB 005305c0     LIBCMTD:strtol.obj
 0003:000175c4       ??_C@_1BK@LAOAACLJ@?$AAn?$AAp?$AAt?$AAr?$AA?5?$AA?$CB?$AA?$DN?$AA?5?$AAN?$AAU?$AAL?$AAL?$AA?$AA@ 005305c4     LIBCMTD:strtol.obj
 0003:000175e8       ??_C@_1FE@OOICPOFH@?$AAf?$AA?3?$AA?2?$AAd?$AAd?$AA?2?$AAv?$AAc?$AAt?$AAo?$AAo?$AAl?$AAs?$AA?2?$AAc?$AAr?$AAt?$AA?2?$AAc?$AAr?$AAt?$AAw?$AA3?$AA2?$AA?2?$AAc?$AAo?$AAn?$AAv?$AAe?$AAr?$AAt@ 005305e8     LIBCMTD:strtol.obj
 0003:0001764c       ??_C@_1BA@LOLAMAJG@?$AAs?$AAt?$AAr?$AAt?$AAo?$AAx?$AAl?$AA?$AA@ 0053064c     LIBCMTD:strtol.obj
 0003:00017660       ??_C@_1FE@CEHLKAHD@?$AAi?$AAb?$AAa?$AAs?$AAe?$AA?5?$AA?$DN?$AA?$DN?$AA?5?$AA0?$AA?5?$AA?$HM?$AA?$HM?$AA?5?$AA?$CI?$AA2?$AA?5?$AA?$DM?$AA?$DN?$AA?5?$AAi?$AAb?$AAa?$AAs?$AAe?$AA?5?$AA?$CG?$AA?$CG?$AA?5?$AAi?$AAb?$AAa@ 00530660     LIBCMTD:strtol.obj
 0003:000176c4       ??_C@_17LGKOMLJ@?$AA?4?$AA?4?$AA?4?$AA?$AA@ 005306c4     LIBCMTD:wassert.obj
 0003:000176d0       ??_C@_13LBAGMAIH@?$AA?6?$AA?$AA@ 005306d0     LIBCMTD:wassert.obj
 0003:000176d4       ??_C@_15IABLJNFO@?$AA?6?$AA?6?$AA?$AA@ 005306d4     LIBCMTD:wassert.obj
 0003:000176e0       ??_C@_1EO@DPPHNOPL@?$AAf?$AA?3?$AA?2?$AAd?$AAd?$AA?2?$AAv?$AAc?$AAt?$AAo?$AAo?$AAl?$AAs?$AA?2?$AAc?$AAr?$AAt?$AA?2?$AAc?$AAr?$AAt?$AAw?$AA3?$AA2?$AA?2?$AAm?$AAi?$AAs?$AAc?$AA?2?$AAa?$AAs@ 005306e0     LIBCMTD:wassert.obj
 0003:00017740       ??_C@_1BC@LNOOMFNA@?$AA_?$AAw?$AAa?$AAs?$AAs?$AAe?$AAr?$AAt?$AA?$AA@ 00530740     LIBCMTD:wassert.obj
 0003:00017758       ??_C@_1GM@PANFFKAD@?$AAw?$AAc?$AAs?$AAc?$AAp?$AAy?$AA_?$AAs?$AA?$CI?$AA?5?$AAa?$AAs?$AAs?$AAe?$AAr?$AAt?$AAb?$AAu?$AAf?$AA?0?$AA?5?$AA?$CI?$AA6?$AA4?$AA?5?$AA?$CK?$AA?5?$AA9?$AA?$CJ?$AA?0?$AA?5?$AAL@ 00530758     LIBCMTD:wassert.obj
 0003:000177dc       ??_C@_1CE@OJBNHDMO@?$AAA?$AAs?$AAs?$AAe?$AAr?$AAt?$AAi?$AAo?$AAn?$AA?5?$AAf?$AAa?$AAi?$AAl?$AAe?$AAd?$AA?$CB?$AA?$AA@ 005307dc     LIBCMTD:wassert.obj
 0003:00017808       ??_C@_1FI@OJONHFCN@?$AAw?$AAc?$AAs?$AAc?$AAa?$AAt?$AA_?$AAs?$AA?$CI?$AA?5?$AAa?$AAs?$AAs?$AAe?$AAr?$AAt?$AAb?$AAu?$AAf?$AA?0?$AA?5?$AA?$CI?$AA6?$AA4?$AA?5?$AA?$CK?$AA?5?$AA9?$AA?$CJ?$AA?0?$AA?5?$AAd@ 00530808     LIBCMTD:wassert.obj
 0003:00017878       ??_C@_1FM@JONFCKBO@?$AAw?$AAc?$AAs?$AAc?$AAa?$AAt?$AA_?$AAs?$AA?$CI?$AA?5?$AAa?$AAs?$AAs?$AAe?$AAr?$AAt?$AAb?$AAu?$AAf?$AA?0?$AA?5?$AA?$CI?$AA6?$AA4?$AA?5?$AA?$CK?$AA?5?$AA9?$AA?$CJ?$AA?0?$AA?5?$AAL@ 00530878     LIBCMTD:wassert.obj
 0003:000178e8       ??_C@_1BE@PHKBBGE@?$AAP?$AAr?$AAo?$AAg?$AAr?$AAa?$AAm?$AA?3?$AA?5?$AA?$AA@ 005308e8     LIBCMTD:wassert.obj
 0003:00017900       ??_C@_1HA@EPFCONEE@?$AAw?$AAc?$AAs?$AAc?$AAp?$AAy?$AA_?$AAs?$AA?$CI?$AA?5?$AAp?$AAr?$AAo?$AAg?$AAn?$AAa?$AAm?$AAe?$AA?0?$AA?5?$AA2?$AA6?$AA0?$AA?5?$AA?$CL?$AA?5?$AA1?$AA?0?$AA?5?$AAL?$AA?$CC?$AA?$DM@ 00530900     LIBCMTD:wassert.obj
 0003:00017988       ??_C@_1CO@EAEJAADC@?$AA?$DM?$AAp?$AAr?$AAo?$AAg?$AAr?$AAa?$AAm?$AA?5?$AAn?$AAa?$AAm?$AAe?$AA?5?$AAu?$AAn?$AAk?$AAn?$AAo?$AAw?$AAn?$AA?$DO?$AA?$AA@ 00530988     LIBCMTD:wassert.obj
 0003:000179c0       ??_C@_1LK@LGFOFOMH@?$AAm?$AAe?$AAm?$AAc?$AAp?$AAy?$AA_?$AAs?$AA?$CI?$AAp?$AAc?$AAh?$AA?0?$AA?5?$AAs?$AAi?$AAz?$AAe?$AAo?$AAf?$AA?$CI?$AAT?$AAC?$AAH?$AAA?$AAR?$AA?$CJ?$AA?5?$AA?$CK?$AA?5?$AA?$CI?$AA?$CI@ 005309c0     LIBCMTD:wassert.obj
 0003:00017aa0       ??_C@_1EK@BFAHOLDO@?$AAw?$AAc?$AAs?$AAc?$AAa?$AAt?$AA_?$AAs?$AA?$CI?$AA?5?$AAa?$AAs?$AAs?$AAe?$AAr?$AAt?$AAb?$AAu?$AAf?$AA?0?$AA?5?$AA?$CI?$AA6?$AA4?$AA?5?$AA?$CK?$AA?5?$AA9?$AA?$CJ?$AA?0?$AA?5?$AAp@ 00530aa0     LIBCMTD:wassert.obj
 0003:00017af8       ??_C@_1FC@GNPGDADJ@?$AAw?$AAc?$AAs?$AAc?$AAa?$AAt?$AA_?$AAs?$AA?$CI?$AA?5?$AAa?$AAs?$AAs?$AAe?$AAr?$AAt?$AAb?$AAu?$AAf?$AA?0?$AA?5?$AA?$CI?$AA6?$AA4?$AA?5?$AA?$CK?$AA?5?$AA9?$AA?$CJ?$AA?0?$AA?5?$AAn@ 00530af8     LIBCMTD:wassert.obj
 0003:00017b60       ??_C@_1FG@NHACFNEK@?$AAw?$AAc?$AAs?$AAc?$AAa?$AAt?$AA_?$AAs?$AA?$CI?$AA?5?$AAa?$AAs?$AAs?$AAe?$AAr?$AAt?$AAb?$AAu?$AAf?$AA?0?$AA?5?$AA?$CI?$AA6?$AA4?$AA?5?$AA?$CK?$AA?5?$AA9?$AA?$CJ?$AA?0?$AA?5?$AAL@ 00530b60     LIBCMTD:wassert.obj
 0003:00017bc8       ??_C@_1O@HEMHKNDC@?$AAF?$AAi?$AAl?$AAe?$AA?3?$AA?5?$AA?$AA@ 00530bc8     LIBCMTD:wassert.obj
 0003:00017bd8       ??_C@_1GG@PKOIFPHI@?$AAw?$AAc?$AAs?$AAn?$AAc?$AAa?$AAt?$AA_?$AAs?$AA?$CI?$AA?5?$AAa?$AAs?$AAs?$AAe?$AAr?$AAt?$AAb?$AAu?$AAf?$AA?0?$AA?5?$AA?$CI?$AA6?$AA4?$AA?5?$AA?$CK?$AA?5?$AA9?$AA?$CJ?$AA?0?$AA?5@ 00530bd8     LIBCMTD:wassert.obj
 0003:00017c58       ??_C@_1FG@PLMFGJFG@?$AAw?$AAc?$AAs?$AAc?$AAa?$AAt?$AA_?$AAs?$AA?$CI?$AA?5?$AAa?$AAs?$AAs?$AAe?$AAr?$AAt?$AAb?$AAu?$AAf?$AA?0?$AA?5?$AA?$CI?$AA6?$AA4?$AA?5?$AA?$CK?$AA?5?$AA9?$AA?$CJ?$AA?0?$AA?5?$AAd@ 00530c58     LIBCMTD:wassert.obj
 0003:00017cc0       ??_C@_1FO@HPHMICDB@?$AAw?$AAc?$AAs?$AAc?$AAa?$AAt?$AA_?$AAs?$AA?$CI?$AA?5?$AAa?$AAs?$AAs?$AAe?$AAr?$AAt?$AAb?$AAu?$AAf?$AA?0?$AA?5?$AA?$CI?$AA6?$AA4?$AA?5?$AA?$CK?$AA?5?$AA9?$AA?$CJ?$AA?0?$AA?5?$AAp@ 00530cc0     LIBCMTD:wassert.obj
 0003:00017d30       ??_C@_1GO@KNIHEHNA@?$AAw?$AAc?$AAs?$AAn?$AAc?$AAa?$AAt?$AA_?$AAs?$AA?$CI?$AA?5?$AAa?$AAs?$AAs?$AAe?$AAr?$AAt?$AAb?$AAu?$AAf?$AA?0?$AA?5?$AA?$CI?$AA6?$AA4?$AA?5?$AA?$CK?$AA?5?$AA9?$AA?$CJ?$AA?0?$AA?5@ 00530d30     LIBCMTD:wassert.obj
 0003:00017db8       ??_C@_1HG@FHHFPPED@?$AAw?$AAc?$AAs?$AAn?$AAc?$AAa?$AAt?$AA_?$AAs?$AA?$CI?$AA?5?$AAa?$AAs?$AAs?$AAe?$AAr?$AAt?$AAb?$AAu?$AAf?$AA?0?$AA?5?$AA?$CI?$AA6?$AA4?$AA?5?$AA?$CK?$AA?5?$AA9?$AA?$CJ?$AA?0?$AA?5@ 00530db8     LIBCMTD:wassert.obj
 0003:00017e48       ??_C@_1IC@JGCGJJHO@?$AAw?$AAc?$AAs?$AAc?$AAa?$AAt?$AA_?$AAs?$AA?$CI?$AA?5?$AAa?$AAs?$AAs?$AAe?$AAr?$AAt?$AAb?$AAu?$AAf?$AA?0?$AA?5?$AA?$CI?$AA6?$AA4?$AA?5?$AA?$CK?$AA?5?$AA9?$AA?$CJ?$AA?0?$AA?5?$AAp@ 00530e48     LIBCMTD:wassert.obj
 0003:00017ee8       ??_C@_1FE@NDOBOCBD@?$AAw?$AAc?$AAs?$AAc?$AAa?$AAt?$AA_?$AAs?$AA?$CI?$AA?5?$AAa?$AAs?$AAs?$AAe?$AAr?$AAt?$AAb?$AAu?$AAf?$AA?0?$AA?5?$AA?$CI?$AA6?$AA4?$AA?5?$AA?$CK?$AA?5?$AA9?$AA?$CJ?$AA?0?$AA?5?$AAf@ 00530ee8     LIBCMTD:wassert.obj
 0003:00017f50       ??_C@_1FG@HLHNIBH@?$AAw?$AAc?$AAs?$AAc?$AAa?$AAt?$AA_?$AAs?$AA?$CI?$AA?5?$AAa?$AAs?$AAs?$AAe?$AAr?$AAt?$AAb?$AAu?$AAf?$AA?0?$AA?5?$AA?$CI?$AA6?$AA4?$AA?5?$AA?$CK?$AA?5?$AA9?$AA?$CJ?$AA?0?$AA?5?$AAL@ 00530f50     LIBCMTD:wassert.obj
 0003:00017fb8       ??_C@_1O@KCAFKHJE@?$AAL?$AAi?$AAn?$AAe?$AA?3?$AA?5?$AA?$AA@ 00530fb8     LIBCMTD:wassert.obj
 0003:00017fc8       ??_C@_1KG@NJJPHNOK@?$AA_?$AAi?$AAt?$AAo?$AAw?$AA_?$AAs?$AA?$CI?$AA?5?$AAl?$AAi?$AAn?$AAe?$AAn?$AAo?$AA?0?$AA?5?$AAa?$AAs?$AAs?$AAe?$AAr?$AAt?$AAb?$AAu?$AAf?$AA?5?$AA?$CL?$AA?5?$AAw?$AAc?$AAs@ 00530fc8     LIBCMTD:wassert.obj
 0003:00018090       ??_C@_1GC@CFDADAM@?$AAw?$AAc?$AAs?$AAc?$AAa?$AAt?$AA_?$AAs?$AA?$CI?$AA?5?$AAa?$AAs?$AAs?$AAe?$AAr?$AAt?$AAb?$AAu?$AAf?$AA?0?$AA?5?$AA?$CI?$AA6?$AA4?$AA?5?$AA?$CK?$AA?5?$AA9?$AA?$CJ?$AA?0?$AA?5?$AAL@ 00531090     LIBCMTD:wassert.obj
 0003:00018108       ??_C@_1BK@PEDCIPMA@?$AAE?$AAx?$AAp?$AAr?$AAe?$AAs?$AAs?$AAi?$AAo?$AAn?$AA?3?$AA?5?$AA?$AA@ 00531108     LIBCMTD:wassert.obj
 0003:00018128       ??_C@_1CHM@HIHGOMKE@?$AAw?$AAc?$AAs?$AAn?$AAc?$AAa?$AAt?$AA_?$AAs?$AA?$CI?$AA?5?$AAa?$AAs?$AAs?$AAe?$AAr?$AAt?$AAb?$AAu?$AAf?$AA?0?$AA?5?$AA?$CI?$AA6?$AA4?$AA?5?$AA?$CK?$AA?5?$AA9?$AA?$CJ?$AA?0?$AA?5@ 00531128     LIBCMTD:wassert.obj
 0003:00018428       ??_C@_1EM@DAMJKKKC@?$AAw?$AAc?$AAs?$AAc?$AAa?$AAt?$AA_?$AAs?$AA?$CI?$AA?5?$AAa?$AAs?$AAs?$AAe?$AAr?$AAt?$AAb?$AAu?$AAf?$AA?0?$AA?5?$AA?$CI?$AA6?$AA4?$AA?5?$AA?$CK?$AA?5?$AA9?$AA?$CJ?$AA?0?$AA?5?$AAe@ 00531428     LIBCMTD:wassert.obj
 0003:00018488       ??_C@_1BCO@GAGHDLIF@?$AAw?$AAc?$AAs?$AAc?$AAa?$AAt?$AA_?$AAs?$AA?$CI?$AAa?$AAs?$AAs?$AAe?$AAr?$AAt?$AAb?$AAu?$AAf?$AA?0?$AA?5?$AA?$CI?$AA6?$AA4?$AA?5?$AA?$CK?$AA?5?$AA9?$AA?$CJ?$AA?0?$AA?5?$AAL?$AA?$CC@ 00531488     LIBCMTD:wassert.obj
 0003:000185f8       ??_C@_1OA@EGMLFBHJ@?$AAF?$AAo?$AAr?$AA?5?$AAi?$AAn?$AAf?$AAo?$AAr?$AAm?$AAa?$AAt?$AAi?$AAo?$AAn?$AA?5?$AAo?$AAn?$AA?5?$AAh?$AAo?$AAw?$AA?5?$AAy?$AAo?$AAu?$AAr?$AA?5?$AAp?$AAr?$AAo?$AAg@ 005315f8     LIBCMTD:wassert.obj
 0003:00018708       ??_C@_1FG@IFIHHMNM@?$AAw?$AAc?$AAs?$AAc?$AAa?$AAt?$AA_?$AAs?$AA?$CI?$AAa?$AAs?$AAs?$AAe?$AAr?$AAt?$AAb?$AAu?$AAf?$AA?0?$AA?5?$AA?$CI?$AA6?$AA4?$AA?5?$AA?$CK?$AA?5?$AA9?$AA?$CJ?$AA?0?$AA?5?$AAd?$AAb@ 00531708     LIBCMTD:wassert.obj
 0003:00018770       ??_C@_1LO@CHAFGADE@?$AAw?$AAc?$AAs?$AAc?$AAa?$AAt?$AA_?$AAs?$AA?$CI?$AAa?$AAs?$AAs?$AAe?$AAr?$AAt?$AAb?$AAu?$AAf?$AA?0?$AA?5?$AA?$CI?$AA6?$AA4?$AA?5?$AA?$CK?$AA?5?$AA9?$AA?$CJ?$AA?0?$AA?5?$AAL?$AA?$CC@ 00531770     LIBCMTD:wassert.obj
 0003:00018858       ??_C@_1HK@POCJMFGK@?$AA?$CI?$AAP?$AAr?$AAe?$AAs?$AAs?$AA?5?$AAR?$AAe?$AAt?$AAr?$AAy?$AA?5?$AAt?$AAo?$AA?5?$AAd?$AAe?$AAb?$AAu?$AAg?$AA?5?$AAt?$AAh?$AAe?$AA?5?$AAa?$AAp?$AAp?$AAl?$AAi?$AAc@ 00531858     LIBCMTD:wassert.obj
 0003:000188f0       ??_C@_1EK@MBDPDCGA@?$AAM?$AAi?$AAc?$AAr?$AAo?$AAs?$AAo?$AAf?$AAt?$AA?5?$AAV?$AAi?$AAs?$AAu?$AAa?$AAl?$AA?5?$AAC?$AA?$CL?$AA?$CL?$AA?5?$AAR?$AAu?$AAn?$AAt?$AAi?$AAm?$AAe?$AA?5?$AAL?$AAi?$AAb@ 005318f0     LIBCMTD:wassert.obj
 0003:00018948       ??_C@_1FC@JALKILNE@?$AAf?$AA?3?$AA?2?$AAd?$AAd?$AA?2?$AAv?$AAc?$AAt?$AAo?$AAo?$AAl?$AAs?$AA?2?$AAc?$AAr?$AAt?$AA?2?$AAc?$AAr?$AAt?$AAw?$AA3?$AA2?$AA?2?$AAs?$AAt?$AAd?$AAi?$AAo?$AA?2?$AAs@ 00531948     LIBCMTD:snprintf.obj
 0003:000189ac       ??_C@_1BE@CHNFPLHD@?$AA_?$AAs?$AAn?$AAp?$AAr?$AAi?$AAn?$AAt?$AAf?$AA?$AA@ 005319ac     LIBCMTD:snprintf.obj
 0003:000189c8       ??_C@_1EC@FABAOFFO@?$AA?$CI?$AAc?$AAo?$AAu?$AAn?$AAt?$AA?5?$AA?$DN?$AA?$DN?$AA?5?$AA0?$AA?$CJ?$AA?5?$AA?$HM?$AA?$HM?$AA?5?$AA?$CI?$AAs?$AAt?$AAr?$AAi?$AAn?$AAg?$AA?5?$AA?$CB?$AA?$DN?$AA?5?$AAN?$AAU?$AAL?$AAL?$AA?$CJ@ 005319c8     LIBCMTD:snprintf.obj
 0003:00018a18       ??_C@_1BA@KBJJGFFE@?$AAs?$AAp?$AAr?$AAi?$AAn?$AAt?$AAf?$AA?$AA@ 00531a18     LIBCMTD:sprintf.obj
 0003:00018a2c       ??_C@_1BI@GKKCBDMD@?$AAd?$AAs?$AAt?$AA?5?$AA?$CB?$AA?$DN?$AA?5?$AAN?$AAU?$AAL?$AAL?$AA?$AA@ 00531a2c     LIBCMTD:stricmp.obj
 0003:00018a48       ??_C@_1FE@PMFLJFHN@?$AAf?$AA?3?$AA?2?$AAd?$AAd?$AA?2?$AAv?$AAc?$AAt?$AAo?$AAo?$AAl?$AAs?$AA?2?$AAc?$AAr?$AAt?$AA?2?$AAc?$AAr?$AAt?$AAw?$AA3?$AA2?$AA?2?$AAs?$AAt?$AAr?$AAi?$AAn?$AAg?$AA?2@ 00531a48     LIBCMTD:stricmp.obj
 0003:00018aac       ??_C@_1BG@GLLONOEH@?$AA_?$AAs?$AAt?$AAr?$AAi?$AAc?$AAm?$AAp?$AA_?$AAl?$AA?$AA@ 00531aac     LIBCMTD:stricmp.obj
 0003:00018ac8       ??_C@_1BI@DCHLDCPP@?$AAs?$AAr?$AAc?$AA?5?$AA?$CB?$AA?$DN?$AA?5?$AAN?$AAU?$AAL?$AAL?$AA?$AA@ 00531ac8     LIBCMTD:stricmp.obj
 0003:00018ae4       ??_C@_1BC@JLGKKIIG@?$AA_?$AAs?$AAt?$AAr?$AAi?$AAc?$AAm?$AAp?$AA?$AA@ 00531ae4     LIBCMTD:stricmp.obj
 0003:00018b08       __FPinit                   00531b08     LIBCMTD:fpinit.obj
 0003:00018b10       ??_C@_1FG@NEKCMHCI@?$AAf?$AA?3?$AA?2?$AAd?$AAd?$AA?2?$AAv?$AAc?$AAt?$AAo?$AAo?$AAl?$AAs?$AA?2?$AAc?$AAr?$AAt?$AA?2?$AAc?$AAr?$AAt?$AAw?$AA3?$AA2?$AA?2?$AAs?$AAt?$AAr?$AAi?$AAn?$AAg?$AA?2@ 00531b10     LIBCMTD:strnicmp.obj
 0003:00018b78       ??_C@_1BI@BJLEPLEF@?$AA_?$AAs?$AAt?$AAr?$AAn?$AAi?$AAc?$AAm?$AAp?$AA_?$AAl?$AA?$AA@ 00531b78     LIBCMTD:strnicmp.obj
 0003:00018b94       ??_C@_1CC@JLPHKJPH@?$AAc?$AAo?$AAu?$AAn?$AAt?$AA?5?$AA?$DM?$AA?$DN?$AA?5?$AAI?$AAN?$AAT?$AA_?$AAM?$AAA?$AAX?$AA?$AA@ 00531b94     LIBCMTD:strnicmp.obj
 0003:00018bbc       ??_C@_1BE@BHJDFFNA@?$AA_?$AAs?$AAt?$AAr?$AAn?$AAi?$AAc?$AAm?$AAp?$AA?$AA@ 00531bbc     LIBCMTD:strnicmp.obj
 0003:00018bd8       ??_C@_1FE@CKCGICM@?$AAf?$AA?3?$AA?2?$AAd?$AAd?$AA?2?$AAv?$AAc?$AAt?$AAo?$AAo?$AAl?$AAs?$AA?2?$AAc?$AAr?$AAt?$AA?2?$AAc?$AAr?$AAt?$AAw?$AA3?$AA2?$AA?2?$AAs?$AAt?$AAd?$AAi?$AAo?$AA?2?$AAv@ 00531bd8     LIBCMTD:vsnprint.obj
 0003:00018c3c       ??_C@_1BK@FHMHFMNL@?$AA_?$AAv?$AAs?$AAn?$AAp?$AAr?$AAi?$AAn?$AAt?$AAf?$AA_?$AAl?$AA?$AA@ 00531c3c     LIBCMTD:vsnprint.obj
 0003:00018c60       __OP_FMODjmptab            00531c60     LIBCMTD:87fmod.obj
 0003:00018dc0       ??_C@_1BI@BGOHAHKC@?$AAm?$AAs?$AAc?$AAo?$AAr?$AAe?$AAe?$AA?4?$AAd?$AAl?$AAl?$AA?$AA@ 00531dc0     LIBCMTD:crt0dat.obj
 0003:00018ddc       ??_C@_0P@MIGLKIOC@CorExitProcess?$AA@ 00531ddc     LIBCMTD:crt0dat.obj
 0003:00018df0       ??_C@_1BO@LKEBEKJP@?$AAp?$AAV?$AAa?$AAl?$AAu?$AAe?$AA?5?$AA?$CB?$AA?$DN?$AA?5?$AAN?$AAU?$AAL?$AAL?$AA?$AA@ 00531df0     LIBCMTD:crt0dat.obj
 0003:00018e18       ??_C@_1FG@MHCBBJEK@?$AAf?$AA?3?$AA?2?$AAd?$AAd?$AA?2?$AAv?$AAc?$AAt?$AAo?$AAo?$AAl?$AAs?$AA?2?$AAc?$AAr?$AAt?$AA?2?$AAc?$AAr?$AAt?$AAw?$AA3?$AA2?$AA?2?$AAs?$AAt?$AAa?$AAr?$AAt?$AAu?$AAp@ 00531e18     LIBCMTD:crt0dat.obj
 0003:00018e80       ??_C@_1BK@PNLDCCDP@?$AA_?$AAg?$AAe?$AAt?$AA_?$AAw?$AAp?$AAg?$AAm?$AAp?$AAt?$AAr?$AA?$AA@ 00531e80     LIBCMTD:crt0dat.obj
 0003:00018ea0       ??_C@_1CC@CDIPMFPD@?$AA_?$AAw?$AAp?$AAg?$AAm?$AAp?$AAt?$AAr?$AA?5?$AA?$CB?$AA?$DN?$AA?5?$AAN?$AAU?$AAL?$AAL?$AA?$AA@ 00531ea0     LIBCMTD:crt0dat.obj
 0003:00018ec8       ??_C@_1BI@COAAPHJK@?$AA_?$AAg?$AAe?$AAt?$AA_?$AAp?$AAg?$AAm?$AAp?$AAt?$AAr?$AA?$AA@ 00531ec8     LIBCMTD:crt0dat.obj
 0003:00018ee4       ??_C@_1CA@BBNAFCKO@?$AA_?$AAp?$AAg?$AAm?$AAp?$AAt?$AAr?$AA?5?$AA?$CB?$AA?$DN?$AA?5?$AAN?$AAU?$AAL?$AAL?$AA?$AA@ 00531ee4     LIBCMTD:crt0dat.obj
 0003:00018f0c       ??_C@_1BK@DJNILIMN@?$AAp?$AAa?$AAt?$AAh?$AA?5?$AA?$CB?$AA?$DN?$AA?5?$AAN?$AAU?$AAL?$AAL?$AA?$AA@ 00531f0c     LIBCMTD:crt0dat.obj
 0003:00018f2c       ??_C@_1DG@KANBJOCK@?$AA_?$AA_?$AAc?$AAo?$AAp?$AAy?$AA_?$AAp?$AAa?$AAt?$AAh?$AA_?$AAt?$AAo?$AA_?$AAw?$AAi?$AAd?$AAe?$AA_?$AAs?$AAt?$AAr?$AAi?$AAn?$AAg?$AA?$AA@ 00531f2c     LIBCMTD:crt0dat.obj
 0003:00018f6c       ??_C@_1CA@BGODLPHH@?$AAo?$AAu?$AAt?$AAP?$AAa?$AAt?$AAh?$AA?5?$AA?$CB?$AA?$DN?$AA?5?$AAN?$AAU?$AAL?$AAL?$AA?$AA@ 00531f6c     LIBCMTD:crt0dat.obj
 0003:00018f94       ??_C@_0CL@LMMOJFEN@f?3?2dd?2vctools?2crt?2crtw32?2startup@ 00531f94     LIBCMTD:crt0dat.obj
 0003:00018fc8       ??_C@_1CC@NLGECIOD@?$AAi?$AAn?$AAS?$AAt?$AAr?$AAi?$AAn?$AAg?$AA?5?$AA?$CB?$AA?$DN?$AA?5?$AAN?$AAU?$AAL?$AAL?$AA?$AA@ 00531fc8     LIBCMTD:crt0dat.obj
 0003:00018ff0       ??_C@_1BO@PNPLHAEP@?$AA_?$AA_?$AAc?$AAo?$AAp?$AAy?$AA_?$AAt?$AAo?$AA_?$AAc?$AAh?$AAa?$AAr?$AA?$AA@ 00531ff0     LIBCMTD:crt0dat.obj
 0003:00019014       ??_C@_1CE@HIPDKGHC@?$AAo?$AAu?$AAt?$AAS?$AAt?$AAr?$AAi?$AAn?$AAg?$AA?5?$AA?$CB?$AA?$DN?$AA?5?$AAN?$AAU?$AAL?$AAL?$AA?$AA@ 00532014     LIBCMTD:crt0dat.obj
 0003:00019040       ??_C@_0CJ@LPLBAFNO@f?3?2dd?2vctools?2crt?2crtw32?2startup@ 00532040     LIBCMTD:mlock.obj
 0003:0001908c       ??_C@_04HJMOFLDF@Free?$AA@ 0053208c     LIBCMTD:dbgheap.obj
 0003:00019094       ??_C@_06EFAGIKOH@Normal?$AA@ 00532094     LIBCMTD:dbgheap.obj
 0003:0001909c       ??_C@_03OGPFLFLO@CRT?$AA@  0053209c     LIBCMTD:dbgheap.obj
 0003:000190a0       ??_C@_06KMEJCCGM@Ignore?$AA@ 005320a0     LIBCMTD:dbgheap.obj
 0003:000190a8       ??_C@_06PJIGMIJB@Client?$AA@ 005320a8     LIBCMTD:dbgheap.obj
 0003:000190b0       ??_C@_1CE@LJFEPPMP@?$AA_?$AAC?$AAr?$AAt?$AAC?$AAh?$AAe?$AAc?$AAk?$AAM?$AAe?$AAm?$AAo?$AAr?$AAy?$AA?$CI?$AA?$CJ?$AA?$AA@ 005320b0     LIBCMTD:dbgheap.obj
 0003:000190e0       ??_C@_1FA@JKEKCOIC@?$AAf?$AA?3?$AA?2?$AAd?$AAd?$AA?2?$AAv?$AAc?$AAt?$AAo?$AAo?$AAl?$AAs?$AA?2?$AAc?$AAr?$AAt?$AA?2?$AAc?$AAr?$AAt?$AAw?$AA3?$AA2?$AA?2?$AAm?$AAi?$AAs?$AAc?$AA?2?$AAd?$AAb@ 005320e0     LIBCMTD:dbgheap.obj
 0003:00019140       ??_C@_0DF@BBEGIFEK@Client?5hook?5allocation?5failure?5a@ 00532140     LIBCMTD:dbgheap.obj
 0003:00019180       ??_C@_0CB@CCLOLAHO@Client?5hook?5allocation?5failure?4?6@ 00532180     LIBCMTD:dbgheap.obj
 0003:000191a8       ??_C@_0CF@BICKFLAF@Invalid?5allocation?5size?3?5?$CFIu?5byt@ 005321a8     LIBCMTD:dbgheap.obj
 0003:000191d4       ??_C@_0DC@JEMAGEKG@Error?3?5memory?5allocation?3?5bad?5me@ 005321d4     LIBCMTD:dbgheap.obj
 0003:00019210       ??_C@_0DI@KKJPDPGM@Client?5hook?5re?9allocation?5failur@ 00532210     LIBCMTD:dbgheap.obj
 0003:00019254       ??_C@_0CE@DOFMDOL@Client?5hook?5re?9allocation?5failur@ 00532254     LIBCMTD:dbgheap.obj
 0003:00019280       ??_C@_0ED@GPCPBAGP@Invalid?5allocation?5size?3?5?$CFIu?5byt@ 00532280     LIBCMTD:dbgheap.obj
 0003:000192d0       ??_C@_0FA@EFEIGJKG@Error?3?5memory?5allocation?3?5bad?5me@ 005322d0     LIBCMTD:dbgheap.obj
 0003:00019330       ??_C@_0EM@LGFLMAGJ@The?5Block?5at?50x?$CFp?5was?5allocated?5@ 00532330     LIBCMTD:dbgheap.obj
 0003:00019390       ??_C@_1EE@GFOPCECE@?$AA_?$AAC?$AAr?$AAt?$AAI?$AAs?$AAV?$AAa?$AAl?$AAi?$AAd?$AAH?$AAe?$AAa?$AAp?$AAP?$AAo?$AAi?$AAn?$AAt?$AAe?$AAr?$AA?$CI?$AAp?$AAU?$AAs?$AAe?$AAr?$AAD?$AAa?$AAt?$AAa@ 00532390     LIBCMTD:dbgheap.obj
 0003:000193e8       ??_C@_1IK@DCPKDGNH@?$AAp?$AAO?$AAl?$AAd?$AAB?$AAl?$AAo?$AAc?$AAk?$AA?9?$AA?$DO?$AAn?$AAL?$AAi?$AAn?$AAe?$AA?5?$AA?$DN?$AA?$DN?$AA?5?$AAI?$AAG?$AAN?$AAO?$AAR?$AAE?$AA_?$AAL?$AAI?$AAN?$AAE?$AA?5@ 005323e8     LIBCMTD:dbgheap.obj
 0003:00019490       ??_C@_0DA@HFBKENN@Error?3?5possible?5heap?5corruption?5@ 00532490     LIBCMTD:dbgheap.obj
 0003:000194d0       ??_C@_1GE@PCKLOLAO@?$AAf?$AAR?$AAe?$AAa?$AAl?$AAl?$AAo?$AAc?$AA?5?$AA?$HM?$AA?$HM?$AA?5?$AA?$CI?$AA?$CB?$AAf?$AAR?$AAe?$AAa?$AAl?$AAl?$AAo?$AAc?$AA?5?$AA?$CG?$AA?$CG?$AA?5?$AAp?$AAN?$AAe?$AAw?$AAB?$AAl@ 005324d0     LIBCMTD:dbgheap.obj
 0003:00019548       ??_C@_1DC@GEFKNOOL@?$AA_?$AAp?$AAL?$AAa?$AAs?$AAt?$AAB?$AAl?$AAo?$AAc?$AAk?$AA?5?$AA?$DN?$AA?$DN?$AA?5?$AAp?$AAO?$AAl?$AAd?$AAB?$AAl?$AAo?$AAc?$AAk?$AA?$AA@ 00532548     LIBCMTD:dbgheap.obj
 0003:00019584       ??_C@_1DE@KOOKLFBB@?$AA_?$AAp?$AAF?$AAi?$AAr?$AAs?$AAt?$AAB?$AAl?$AAo?$AAc?$AAk?$AA?5?$AA?$DN?$AA?$DN?$AA?5?$AAp?$AAO?$AAl?$AAd?$AAB?$AAl?$AAo?$AAc?$AAk?$AA?$AA@ 00532584     LIBCMTD:dbgheap.obj
 0003:000195c4       ??_C@_1CE@CJACEFBA@?$AAp?$AAU?$AAs?$AAe?$AAr?$AAD?$AAa?$AAt?$AAa?$AA?5?$AA?$CB?$AA?$DN?$AA?5?$AAN?$AAU?$AAL?$AAL?$AA?$AA@ 005325c4     LIBCMTD:dbgheap.obj
 0003:000195f0       ??_C@_1BI@HAPNGHDP@?$AA_?$AAe?$AAx?$AAp?$AAa?$AAn?$AAd?$AA_?$AAd?$AAb?$AAg?$AA?$AA@ 005325f0     LIBCMTD:dbgheap.obj
 0003:00019610       ??_C@_0EJ@HEIBCIMJ@The?5Block?5at?50x?$CFp?5was?5allocated?5@ 00532610     LIBCMTD:dbgheap.obj
 0003:00019668       ??_C@_0BL@KEIPLFAC@Client?5hook?5free?5failure?4?6?$AA@ 00532668     LIBCMTD:dbgheap.obj
 0003:00019688       ??_C@_1EO@LHDAJOCM@?$AA_?$AAB?$AAL?$AAO?$AAC?$AAK?$AA_?$AAT?$AAY?$AAP?$AAE?$AA_?$AAI?$AAS?$AA_?$AAV?$AAA?$AAL?$AAI?$AAD?$AA?$CI?$AAp?$AAH?$AAe?$AAa?$AAd?$AA?9?$AA?$DO?$AAn?$AAB?$AAl?$AAo@ 00532688     LIBCMTD:dbgheap.obj
 0003:000196e8       ??_C@_0KI@JGFOHMEB@HEAP?5CORRUPTION?5DETECTED?3?5before@ 005326e8     LIBCMTD:dbgheap.obj
 0003:000197b8       ??_C@_0IK@PJCGLBOB@HEAP?5CORRUPTION?5DETECTED?3?5before@ 005327b8     LIBCMTD:dbgheap.obj
 0003:00019860       ??_C@_0KE@MBMNHHHN@HEAP?5CORRUPTION?5DETECTED?3?5after?5@ 00532860     LIBCMTD:dbgheap.obj
 0003:00019928       ??_C@_0IG@LEMBDCJK@HEAP?5CORRUPTION?5DETECTED?3?5after?5@ 00532928     LIBCMTD:dbgheap.obj
 0003:000199c8       ??_C@_1HK@HPCBMDFG@?$AAp?$AAH?$AAe?$AAa?$AAd?$AA?9?$AA?$DO?$AAn?$AAL?$AAi?$AAn?$AAe?$AA?5?$AA?$DN?$AA?$DN?$AA?5?$AAI?$AAG?$AAN?$AAO?$AAR?$AAE?$AA_?$AAL?$AAI?$AAN?$AAE?$AA?5?$AA?$CG?$AA?$CG?$AA?5?$AAp@ 005329c8     LIBCMTD:dbgheap.obj
 0003:00019a5c       ??_C@_1DM@ODCJIDCP@?$AAp?$AAH?$AAe?$AAa?$AAd?$AA?9?$AA?$DO?$AAn?$AAB?$AAl?$AAo?$AAc?$AAk?$AAU?$AAs?$AAe?$AA?5?$AA?$DN?$AA?$DN?$AA?5?$AAn?$AAB?$AAl?$AAo?$AAc?$AAk?$AAU?$AAs?$AAe?$AA?$AA@ 00532a5c     LIBCMTD:dbgheap.obj
 0003:00019aa4       ??_C@_1CK@DMAGEMBG@?$AA_?$AAp?$AAL?$AAa?$AAs?$AAt?$AAB?$AAl?$AAo?$AAc?$AAk?$AA?5?$AA?$DN?$AA?$DN?$AA?5?$AAp?$AAH?$AAe?$AAa?$AAd?$AA?$AA@ 00532aa4     LIBCMTD:dbgheap.obj
 0003:00019ad8       ??_C@_1CM@MMAADDMD@?$AA_?$AAp?$AAF?$AAi?$AAr?$AAs?$AAt?$AAB?$AAl?$AAo?$AAc?$AAk?$AA?5?$AA?$DN?$AA?$DN?$AA?5?$AAp?$AAH?$AAe?$AAa?$AAd?$AA?$AA@ 00532ad8     LIBCMTD:dbgheap.obj
 0003:00019b0c       ??_C@_1BG@MBKOGDLD@?$AA_?$AAm?$AAs?$AAi?$AAz?$AAe?$AA_?$AAd?$AAb?$AAg?$AA?$AA@ 00532b0c     LIBCMTD:dbgheap.obj
 0003:00019b28       ??_C@_0CE@MKKHMBMK@_heapchk?5fails?5with?5_HEAPBADBEGI@ 00532b28     LIBCMTD:dbgheap.obj
 0003:00019b54       ??_C@_0CD@CPKEAPBD@_heapchk?5fails?5with?5_HEAPBADNODE@ 00532b54     LIBCMTD:dbgheap.obj
 0003:00019b80       ??_C@_0CC@MJGLGBDG@_heapchk?5fails?5with?5_HEAPBADEND?4@ 00532b80     LIBCMTD:dbgheap.obj
 0003:00019ba8       ??_C@_0CC@MFFCHFHO@_heapchk?5fails?5with?5_HEAPBADPTR?4@ 00532ba8     LIBCMTD:dbgheap.obj
 0003:00019bd0       ??_C@_0CL@HNNNMKMJ@_heapchk?5fails?5with?5unknown?5retu@ 00532bd0     LIBCMTD:dbgheap.obj
 0003:00019c04       ??_C@_07OHKEFPKJ@DAMAGED?$AA@ 00532c04     LIBCMTD:dbgheap.obj
 0003:00019c10       ??_C@_0KA@IHNJJKPL@HEAP?5CORRUPTION?5DETECTED?3?5on?5top@ 00532c10     LIBCMTD:dbgheap.obj
 0003:00019cd0       ??_C@_0IC@BBJIOOJH@HEAP?5CORRUPTION?5DETECTED?3?5on?5top@ 00532cd0     LIBCMTD:dbgheap.obj
 0003:00019d70       ??_C@_0EG@DGJMPDBH@?$CFhs?5located?5at?50x?$CFp?5is?5?$CFIu?5bytes@ 00532d70     LIBCMTD:dbgheap.obj
 0003:00019dc4       ??_C@_0CI@JMLBEDHJ@?$CFhs?5located?5at?50x?$CFp?5is?5?$CFIu?5bytes@ 00532dc4     LIBCMTD:dbgheap.obj
 0003:00019df8       ??_C@_1BHO@NNANJNF@?$AA?$CI?$AAf?$AAN?$AAe?$AAw?$AAB?$AAi?$AAt?$AAs?$AA?$DN?$AA?$DN?$AA_?$AAC?$AAR?$AAT?$AAD?$AAB?$AAG?$AA_?$AAR?$AAE?$AAP?$AAO?$AAR?$AAT?$AA_?$AAF?$AAL?$AAA?$AAG?$AA?$CJ?$AA?5@ 00532df8     LIBCMTD:dbgheap.obj
 0003:00019fc4       ??_C@_1BO@GJFDNMNF@?$AA_?$AAC?$AAr?$AAt?$AAS?$AAe?$AAt?$AAD?$AAb?$AAg?$AAF?$AAl?$AAa?$AAg?$AA?$AA@ 00532fc4     LIBCMTD:dbgheap.obj
 0003:00019fe8       ??_C@_1BI@CJGCEEDL@?$AAp?$AAf?$AAn?$AA?5?$AA?$CB?$AA?$DN?$AA?5?$AAN?$AAU?$AAL?$AAL?$AA?$AA@ 00532fe8     LIBCMTD:dbgheap.obj
 0003:0001a004       ??_C@_1DE@GJCKCKEC@?$AA_?$AAC?$AAr?$AAt?$AAD?$AAo?$AAF?$AAo?$AAr?$AAA?$AAl?$AAl?$AAC?$AAl?$AAi?$AAe?$AAn?$AAt?$AAO?$AAb?$AAj?$AAe?$AAc?$AAt?$AAs?$AA?$AA@ 00533004     LIBCMTD:dbgheap.obj
 0003:0001a044       ??_C@_1BM@MIMANDHC@?$AAs?$AAt?$AAa?$AAt?$AAe?$AA?5?$AA?$CB?$AA?$DN?$AA?5?$AAN?$AAU?$AAL?$AAL?$AA?$AA@ 00533044     LIBCMTD:dbgheap.obj
 0003:0001a068       ??_C@_1CE@NJJKELF@?$AA_?$AAC?$AAr?$AAt?$AAM?$AAe?$AAm?$AAC?$AAh?$AAe?$AAc?$AAk?$AAp?$AAo?$AAi?$AAn?$AAt?$AA?$AA@ 00533068     LIBCMTD:dbgheap.obj
 0003:0001a094       ??_C@_0DP@LEFMFBOD@Bad?5memory?5block?5found?5at?50x?$CFp?4?6@ 00533094     LIBCMTD:dbgheap.obj
 0003:0001a0e0       ??_C@_0CB@EAAIGELO@Bad?5memory?5block?5found?5at?50x?$CFp?4?6@ 005330e0     LIBCMTD:dbgheap.obj
 0003:0001a108       ??_C@_1CE@PDIENACM@?$AA_?$AAC?$AAr?$AAt?$AAM?$AAe?$AAm?$AAD?$AAi?$AAf?$AAf?$AAe?$AAr?$AAe?$AAn?$AAc?$AAe?$AA?$AA@ 00533108     LIBCMTD:dbgheap.obj
 0003:0001a134       ??_C@_1CC@DHPFEMMN@?$AAo?$AAl?$AAd?$AAS?$AAt?$AAa?$AAt?$AAe?$AA?5?$AA?$CB?$AA?$DN?$AA?5?$AAN?$AAU?$AAL?$AAL?$AA?$AA@ 00533134     LIBCMTD:dbgheap.obj
 0003:0001a15c       ??_C@_1CC@DFPEDFBP@?$AAn?$AAe?$AAw?$AAS?$AAt?$AAa?$AAt?$AAe?$AA?5?$AA?$CB?$AA?$DN?$AA?5?$AAN?$AAU?$AAL?$AAL?$AA?$AA@ 0053315c     LIBCMTD:dbgheap.obj
 0003:0001a184       ??_C@_05MKKEDADM@?$CF?42X?5?$AA@ 00533184     LIBCMTD:dbgheap.obj
 0003:0001a18c       ??_C@_1CG@LPFIACGM@?$AA_?$AAp?$AAr?$AAi?$AAn?$AAt?$AAM?$AAe?$AAm?$AAB?$AAl?$AAo?$AAc?$AAk?$AAD?$AAa?$AAt?$AAa?$AA?$AA@ 0053318c     LIBCMTD:dbgheap.obj
 0003:0001a1bc       ??_C@_1BI@KALLJECN@?$AA?$CI?$AA?$CK?$AA_?$AAe?$AAr?$AAr?$AAn?$AAo?$AA?$CI?$AA?$CJ?$AA?$CJ?$AA?$AA@ 005331bc     LIBCMTD:dbgheap.obj
 0003:0001a1d8       ??_C@_0BA@HJBKCELP@?5Data?3?5?$DM?$CFs?$DO?5?$CFs?6?$AA@ 005331d8     LIBCMTD:dbgheap.obj
 0003:0001a1ec       ??_C@_0BE@KCIPKCIA@Dumping?5objects?5?9?$DO?6?$AA@ 005331ec     LIBCMTD:dbgheap.obj
 0003:0001a204       ??_C@_0BE@OIEFNFL@?$CDFile?5Error?$CD?$CI?$CFd?$CJ?5?3?5?$AA@ 00533204     LIBCMTD:dbgheap.obj
 0003:0001a21c       ??_C@_0L@JMEFFCCJ@?$CFhs?$CI?$CFd?$CJ?5?3?5?$AA@ 0053321c     LIBCMTD:dbgheap.obj
 0003:0001a22c       ??_C@_06PKLGBFGM@?$HL?$CFld?$HN?5?$AA@ 0053322c     LIBCMTD:dbgheap.obj
 0003:0001a234       ??_C@_0DD@GHNAAKBB@client?5block?5at?50x?$CFp?0?5subtype?5?$CFx@ 00533234     LIBCMTD:dbgheap.obj
 0003:0001a274       ??_C@_0CH@FAGDDGPN@normal?5block?5at?50x?$CFp?0?5?$CFIu?5bytes?5@ 00533274     LIBCMTD:dbgheap.obj
 0003:0001a2a4       ??_C@_0DA@MDLBNIBM@crt?5block?5at?50x?$CFp?0?5subtype?5?$CFx?0?5?$CF@ 005332a4     LIBCMTD:dbgheap.obj
 0003:0001a2e0       ??_C@_0BH@GFGKJDCO@Object?5dump?5complete?4?6?$AA@ 005332e0     LIBCMTD:dbgheap.obj
 0003:0001a2fc       ??_C@_0BI@JBFPOEJA@Detected?5memory?5leaks?$CB?6?$AA@ 005332fc     LIBCMTD:dbgheap.obj
 0003:0001a318       ??_C@_1CM@MPNIBKGK@?$AA_?$AAC?$AAr?$AAt?$AAM?$AAe?$AAm?$AAD?$AAu?$AAm?$AAp?$AAS?$AAt?$AAa?$AAt?$AAi?$AAs?$AAt?$AAi?$AAc?$AAs?$AA?$AA@ 00533318     LIBCMTD:dbgheap.obj
 0003:0001a34c       ??_C@_0BO@DACNIABB@?$CFId?5bytes?5in?5?$CFId?5?$CFhs?5Blocks?4?6?$AA@ 0053334c     LIBCMTD:dbgheap.obj
 0003:0001a370       ??_C@_0CB@BLHDAFNE@Largest?5number?5used?3?5?$CFId?5bytes?4?6@ 00533370     LIBCMTD:dbgheap.obj
 0003:0001a398       ??_C@_0BP@DEDHGGGI@Total?5allocations?3?5?$CFId?5bytes?4?6?$AA@ 00533398     LIBCMTD:dbgheap.obj
 0003:0001a3c0       ??_C@_1CE@NPMGPNNP@?$AAI?$AAS?$AA_?$AA2?$AA_?$AAP?$AAO?$AAW?$AA_?$AAN?$AA?$CI?$AAa?$AAl?$AAi?$AAg?$AAn?$AA?$CJ?$AA?$AA@ 005333c0     LIBCMTD:dbgheap.obj
 0003:0001a3ec       ??_C@_1DG@DONCJBBJ@?$AA_?$AAa?$AAl?$AAi?$AAg?$AAn?$AAe?$AAd?$AA_?$AAo?$AAf?$AAf?$AAs?$AAe?$AAt?$AA_?$AAm?$AAa?$AAl?$AAl?$AAo?$AAc?$AA_?$AAd?$AAb?$AAg?$AA?$AA@ 005333ec     LIBCMTD:dbgheap.obj
 0003:0001a42c       ??_C@_1DK@LFLKFPDA@?$AAo?$AAf?$AAf?$AAs?$AAe?$AAt?$AA?5?$AA?$DN?$AA?$DN?$AA?5?$AA0?$AA?5?$AA?$HM?$AA?$HM?$AA?5?$AAo?$AAf?$AAf?$AAs?$AAe?$AAt?$AA?5?$AA?$DM?$AA?5?$AAs?$AAi?$AAz?$AAe?$AA?$AA@ 0053342c     LIBCMTD:dbgheap.obj
 0003:0001a478       ??_C@_0EI@NDNJMAJK@The?5block?5at?50x?$CFp?5was?5not?5alloca@ 00533478     LIBCMTD:dbgheap.obj
 0003:0001a4d0       ??_C@_0DL@PGHMMKNE@Damage?5before?50x?$CFp?5which?5was?5all@ 005334d0     LIBCMTD:dbgheap.obj
 0003:0001a518       ??_C@_1DI@NINIKFFK@?$AA_?$AAa?$AAl?$AAi?$AAg?$AAn?$AAe?$AAd?$AA_?$AAo?$AAf?$AAf?$AAs?$AAe?$AAt?$AA_?$AAr?$AAe?$AAa?$AAl?$AAl?$AAo?$AAc?$AA_?$AAd?$AAb?$AAg?$AA?$AA@ 00533518     LIBCMTD:dbgheap.obj
 0003:0001a560       ??_C@_0EF@PGELACII@The?5block?5at?50x?$CFp?5was?5not?5alloca@ 00533560     LIBCMTD:dbgheap.obj
 0003:0001a5b4       ??_C@_1CC@MOBIKHH@?$AAm?$AAe?$AAm?$AAb?$AAl?$AAo?$AAc?$AAk?$AA?5?$AA?$CB?$AA?$DN?$AA?5?$AAN?$AAU?$AAL?$AAL?$AA?$AA@ 005335b4     LIBCMTD:dbgheap.obj
 0003:0001a5dc       ??_C@_1CG@CEGMHIMN@?$AA_?$AAa?$AAl?$AAi?$AAg?$AAn?$AAe?$AAd?$AA_?$AAm?$AAs?$AAi?$AAz?$AAe?$AA_?$AAd?$AAb?$AAg?$AA?$AA@ 005335dc     LIBCMTD:dbgheap.obj
 0003:0001a60c       ??_C@_1BI@MFCLPIBM@?$AAs?$AAt?$AAr?$AA?5?$AA?$CB?$AA?$DN?$AA?5?$AAN?$AAU?$AAL?$AAL?$AA?$AA@ 0053360c     LIBCMTD:_filbuf.obj
 0003:0001a628       ??_C@_1FC@KLDIFLFI@?$AAf?$AA?3?$AA?2?$AAd?$AAd?$AA?2?$AAv?$AAc?$AAt?$AAo?$AAo?$AAl?$AAs?$AA?2?$AAc?$AAr?$AAt?$AA?2?$AAc?$AAr?$AAt?$AAw?$AA3?$AA2?$AA?2?$AAs?$AAt?$AAd?$AAi?$AAo?$AA?2?$AA_@ 00533628     LIBCMTD:_filbuf.obj
 0003:0001a68c       ??_C@_1BA@IIKEPOGH@?$AA_?$AAf?$AAi?$AAl?$AAb?$AAu?$AAf?$AA?$AA@ 0053368c     LIBCMTD:_filbuf.obj
 0003:0001a6a0       ??_C@_1CC@FADMNIL@?$AA?$CI?$AAs?$AAt?$AAr?$AAe?$AAa?$AAm?$AA?5?$AA?$CB?$AA?$DN?$AA?5?$AAN?$AAU?$AAL?$AAL?$AA?$CJ?$AA?$AA@ 005336a0     LIBCMTD:fileno.obj
 0003:0001a6c8       ??_C@_1FA@CKEACION@?$AAf?$AA?3?$AA?2?$AAd?$AAd?$AA?2?$AAv?$AAc?$AAt?$AAo?$AAo?$AAl?$AAs?$AA?2?$AAc?$AAr?$AAt?$AA?2?$AAc?$AAr?$AAt?$AAw?$AA3?$AA2?$AA?2?$AAs?$AAt?$AAd?$AAi?$AAo?$AA?2?$AAf@ 005336c8     LIBCMTD:fileno.obj
 0003:0001a728       ??_C@_1BA@JGHIEKKM@?$AA_?$AAf?$AAi?$AAl?$AAe?$AAn?$AAo?$AA?$AA@ 00533728     LIBCMTD:fileno.obj
 0003:0001a74c       ??_C@_1BA@GLMCNLEM@?$AAW?$AAa?$AAr?$AAn?$AAi?$AAn?$AAg?$AA?$AA@ 0053374c     LIBCMTD:dbgrptw.obj
 0003:0001a760       ??_C@_1M@ILHOPKA@?$AAE?$AAr?$AAr?$AAo?$AAr?$AA?$AA@ 00533760     LIBCMTD:dbgrptw.obj
 0003:0001a770       ??_C@_1CC@CGHMNGDG@?$AAA?$AAs?$AAs?$AAe?$AAr?$AAt?$AAi?$AAo?$AAn?$AA?5?$AAF?$AAa?$AAi?$AAl?$AAe?$AAd?$AA?$AA@ 00533770     LIBCMTD:dbgrptw.obj
 0003:0001a798       ??_C@_1HI@OFEHGPPC@?$AAm?$AAo?$AAd?$AAe?$AA?5?$AA?$DN?$AA?$DN?$AA?5?$AA_?$AAC?$AAR?$AAT?$AA_?$AAR?$AAP?$AAT?$AAH?$AAO?$AAO?$AAK?$AA_?$AAI?$AAN?$AAS?$AAT?$AAA?$AAL?$AAL?$AA?5?$AA?$HM?$AA?$HM?$AA?5@ 00533798     LIBCMTD:dbgrptw.obj
 0003:0001a828       ??_C@_1EO@JACJHHCK@?$AAf?$AA?3?$AA?2?$AAd?$AAd?$AA?2?$AAv?$AAc?$AAt?$AAo?$AAo?$AAl?$AAs?$AA?2?$AAc?$AAr?$AAt?$AA?2?$AAc?$AAr?$AAt?$AAw?$AA3?$AA2?$AA?2?$AAm?$AAi?$AAs?$AAc?$AA?2?$AAd?$AAb@ 00533828     LIBCMTD:dbgrptw.obj
 0003:0001a888       ??_C@_1CI@IIHEAKEI@?$AA_?$AAC?$AAr?$AAt?$AAS?$AAe?$AAt?$AAR?$AAe?$AAp?$AAo?$AAr?$AAt?$AAH?$AAo?$AAo?$AAk?$AAW?$AA2?$AA?$AA@ 00533888     LIBCMTD:dbgrptw.obj
 0003:0001a8b8       ??_C@_1CG@JBJEFOCM@?$AAp?$AAf?$AAn?$AAN?$AAe?$AAw?$AAH?$AAo?$AAo?$AAk?$AA?5?$AA?$CB?$AA?$DN?$AA?5?$AAN?$AAU?$AAL?$AAL?$AA?$AA@ 005338b8     LIBCMTD:dbgrptw.obj
 0003:0001a8e8       ??_C@_1FI@PHIAFFHM@?$AA?$CI?$AA?$CC?$AAT?$AAh?$AAe?$AA?5?$AAh?$AAo?$AAo?$AAk?$AA?5?$AAf?$AAu?$AAn?$AAc?$AAt?$AAi?$AAo?$AAn?$AA?5?$AAi?$AAs?$AA?5?$AAn?$AAo?$AAt?$AA?5?$AAi?$AAn?$AA?5?$AAt?$AAh@ 005338e8     LIBCMTD:dbgrptw.obj
 0003:0001a954       ??_C@_0CH@BBGAHGHC@f?3?2dd?2vctools?2crt?2crtw32?2misc?2db@ 00533954     LIBCMTD:dbgrptw.obj
 0003:0001a984       ??_C@_1CI@PGJIFDEK@?$AA_?$AA_?$AAc?$AAr?$AAt?$AAM?$AAe?$AAs?$AAs?$AAa?$AAg?$AAe?$AAW?$AAi?$AAn?$AAd?$AAo?$AAw?$AAW?$AA?$AA@ 00533984     LIBCMTD:dbgrptw.obj
 0003:0001a9b8       ??_C@_1GI@DEDNNLCI@?$AAw?$AAc?$AAs?$AAc?$AAp?$AAy?$AA_?$AAs?$AA?$CI?$AAs?$AAz?$AAE?$AAx?$AAe?$AAN?$AAa?$AAm?$AAe?$AA?0?$AA?5?$AA2?$AA6?$AA0?$AA?0?$AA?5?$AAL?$AA?$CC?$AA?$DM?$AAp?$AAr?$AAo?$AAg@ 005339b8     LIBCMTD:dbgrptw.obj
 0003:0001aa38       ??_C@_1NO@LECLLHOL@?$AAm?$AAe?$AAm?$AAc?$AAp?$AAy?$AA_?$AAs?$AA?$CI?$AAs?$AAz?$AAS?$AAh?$AAo?$AAr?$AAt?$AAP?$AAr?$AAo?$AAg?$AAN?$AAa?$AAm?$AAe?$AA?0?$AA?5?$AAs?$AAi?$AAz?$AAe?$AAo?$AAf@ 00533a38     LIBCMTD:dbgrptw.obj
 0003:0001ab48       ??_C@_1OG@PMPPFHAF@?$AA?6?$AA?6?$AAF?$AAo?$AAr?$AA?5?$AAi?$AAn?$AAf?$AAo?$AAr?$AAm?$AAa?$AAt?$AAi?$AAo?$AAn?$AA?5?$AAo?$AAn?$AA?5?$AAh?$AAo?$AAw?$AA?5?$AAy?$AAo?$AAu?$AAr?$AA?5?$AAp?$AAr@ 00533b48     LIBCMTD:dbgrptw.obj
 0003:0001ac5c       ??_C@_11LOCGONAA@?$AA?$AA@ 00533c5c     LIBCMTD:dbgrptw.obj
 0003:0001ac60       ??_C@_1BA@GLLGCPCK@?$AA?6?$AAL?$AAi?$AAn?$AAe?$AA?3?$AA?5?$AA?$AA@ 00533c60     LIBCMTD:dbgrptw.obj
 0003:0001ac74       ??_C@_1BA@LNHECFIM@?$AA?6?$AAF?$AAi?$AAl?$AAe?$AA?3?$AA?5?$AA?$AA@ 00533c74     LIBCMTD:dbgrptw.obj
 0003:0001ac88       ??_C@_1BE@CGCJKGHI@?$AA?6?$AAM?$AAo?$AAd?$AAu?$AAl?$AAe?$AA?3?$AA?5?$AA?$AA@ 00533c88     LIBCMTD:dbgrptw.obj
 0003:0001aca0       ??_C@_1KM@HNMIBKJH@?$AAD?$AAe?$AAb?$AAu?$AAg?$AA?5?$AA?$CF?$AAs?$AA?$CB?$AA?6?$AA?6?$AAP?$AAr?$AAo?$AAg?$AAr?$AAa?$AAm?$AA?3?$AA?5?$AA?$CF?$AAs?$AA?$CF?$AAs?$AA?$CF?$AAs?$AA?$CF?$AAs?$AA?$CF?$AAs?$AA?$CF?$AAs@ 00533ca0     LIBCMTD:dbgrptw.obj
 0003:0001ad70       ??_C@_1JI@EACPGHID@?$AAw?$AAc?$AAs?$AAc?$AAp?$AAy?$AA_?$AAs?$AA?$CI?$AAs?$AAz?$AAO?$AAu?$AAt?$AAM?$AAe?$AAs?$AAs?$AAa?$AAg?$AAe?$AA?0?$AA?5?$AA4?$AA0?$AA9?$AA6?$AA?0?$AA?5?$AAL?$AA?$CC?$AA_@ 00533d70     LIBCMTD:dbgrptw.obj
 0003:0001ae28       ??_C@_1FG@BBOLDHGF@?$AA_?$AAC?$AAr?$AAt?$AAD?$AAb?$AAg?$AAR?$AAe?$AAp?$AAo?$AAr?$AAt?$AA?3?$AA?5?$AAS?$AAt?$AAr?$AAi?$AAn?$AAg?$AA?5?$AAt?$AAo?$AAo?$AA?5?$AAl?$AAo?$AAn?$AAg?$AA?5?$AAo@ 00533e28     LIBCMTD:dbgrptw.obj
 0003:0001ae90       ??_C@_1EM@IOHICOCC@?$AAf?$AA?3?$AA?2?$AAd?$AAd?$AA?2?$AAv?$AAc?$AAt?$AAo?$AAo?$AAl?$AAs?$AA?2?$AAc?$AAr?$AAt?$AA?2?$AAc?$AAr?$AAt?$AAw?$AA3?$AA2?$AA?2?$AAd?$AAo?$AAs?$AA?2?$AAd?$AAo?$AAs@ 00533e90     LIBCMTD:dosmap.obj
 0003:0001aeec       ??_C@_1BG@KCMPBBDK@?$AA_?$AAg?$AAe?$AAt?$AA_?$AAe?$AAr?$AAr?$AAn?$AAo?$AA?$AA@ 00533eec     LIBCMTD:dosmap.obj
 0003:0001af08       ??_C@_1BM@INIPHHDD@?$AA_?$AAg?$AAe?$AAt?$AA_?$AAd?$AAo?$AAs?$AAe?$AAr?$AAr?$AAn?$AAo?$AA?$AA@ 00533f08     LIBCMTD:dosmap.obj
 0003:0001af2c       ??_C@_0CI@BIOGDJKL@f?3?2dd?2vctools?2crt?2crtw32?2lowio?2i@ 00533f2c     LIBCMTD:ioinit.obj
 0003:0001af60       ??_C@_1FC@LLDAFLML@?$AAf?$AA?3?$AA?2?$AAd?$AAd?$AA?2?$AAv?$AAc?$AAt?$AAo?$AAo?$AAl?$AAs?$AA?2?$AAc?$AAr?$AAt?$AA?2?$AAc?$AAr?$AAt?$AAw?$AA3?$AA2?$AA?2?$AAs?$AAt?$AAd?$AAi?$AAo?$AA?2?$AAv@ 00533f60     LIBCMTD:vprintf.obj
 0003:0001afc4       ??_C@_1BO@JGFPDJCP@?$AAv?$AAp?$AAr?$AAi?$AAn?$AAt?$AAf?$AA_?$AAh?$AAe?$AAl?$AAp?$AAe?$AAr?$AA?$AA@ 00533fc4     LIBCMTD:vprintf.obj
 0003:0001afe8       ??_C@_1FC@LKGACDMH@?$AAf?$AA?3?$AA?2?$AAd?$AAd?$AA?2?$AAv?$AAc?$AAt?$AAo?$AAo?$AAl?$AAs?$AA?2?$AAc?$AAr?$AAt?$AA?2?$AAc?$AAr?$AAt?$AAw?$AA3?$AA2?$AA?2?$AAs?$AAt?$AAd?$AAi?$AAo?$AA?2?$AA_@ 00533fe8     LIBCMTD:_sftbuf.obj
 0003:0001b04c       ??_C@_0CJ@KDJGPIJL@f?3?2dd?2vctools?2crt?2crtw32?2stdio?2_@ 0053404c     LIBCMTD:_sftbuf.obj
 0003:0001b080       ??_C@_1CO@KCKAACMI@?$AAf?$AAl?$AAa?$AAg?$AA?5?$AA?$DN?$AA?$DN?$AA?5?$AA0?$AA?5?$AA?$HM?$AA?$HM?$AA?5?$AAf?$AAl?$AAa?$AAg?$AA?5?$AA?$DN?$AA?$DN?$AA?5?$AA1?$AA?$AA@ 00534080     LIBCMTD:_sftbuf.obj
 0003:0001b0b8       ??_C@_06OJHGLDPL@?$CInull?$CJ?$AA@ 005340b8     LIBCMTD:output.obj
 0003:0001b0c0       ??_C@_1O@CEDCILHN@?$AA?$CI?$AAn?$AAu?$AAl?$AAl?$AA?$CJ?$AA?$AA@ 005340c0     LIBCMTD:output.obj
 0003:0001b0d0       ___lookuptable             005340d0     LIBCMTD:output.obj
 0003:0001b140       ??_C@_1FA@KMIJDCIC@?$AAf?$AA?3?$AA?2?$AAd?$AAd?$AA?2?$AAv?$AAc?$AAt?$AAo?$AAo?$AAl?$AAs?$AA?2?$AAc?$AAr?$AAt?$AA?2?$AAc?$AAr?$AAt?$AAw?$AA3?$AA2?$AA?2?$AAs?$AAt?$AAd?$AAi?$AAo?$AA?2?$AAo@ 00534140     LIBCMTD:output.obj
 0003:0001b1a0       ??_C@_1BE@IONLIDNC@?$AA_?$AAo?$AAu?$AAt?$AAp?$AAu?$AAt?$AA_?$AAl?$AA?$AA@ 005341a0     LIBCMTD:output.obj
 0003:0001b1b8       ??_C@_1CC@IFFHEMNF@?$AA?$CI?$AAc?$AAh?$AA?5?$AA?$CB?$AA?$DN?$AA?5?$AA_?$AAT?$AA?$CI?$AA?8?$AA?2?$AA0?$AA?8?$AA?$CJ?$AA?$CJ?$AA?$AA@ 005341b8     LIBCMTD:output.obj
 0003:0001b1e0       ??_C@_1EK@PNGFDECN@?$AA?$CI?$AA?$CC?$AA?8?$AAn?$AA?8?$AA?5?$AAf?$AAo?$AAr?$AAm?$AAa?$AAt?$AA?5?$AAs?$AAp?$AAe?$AAc?$AAi?$AAf?$AAi?$AAe?$AAr?$AA?5?$AAd?$AAi?$AAs?$AAa?$AAb?$AAl?$AAe?$AAd?$AA?$CC@ 005341e0     LIBCMTD:output.obj
 0003:0001b238       ??_C@_0CI@CMOPBIOD@f?3?2dd?2vctools?2crt?2crtw32?2stdio?2o@ 00534238     LIBCMTD:output.obj
 0003:0001b268       ??_C@_1FC@OBEHAONE@?$AAf?$AA?3?$AA?2?$AAd?$AAd?$AA?2?$AAv?$AAc?$AAt?$AAo?$AAo?$AAl?$AAs?$AA?2?$AAc?$AAr?$AAt?$AA?2?$AAc?$AAr?$AAt?$AAw?$AA3?$AA2?$AA?2?$AAs?$AAt?$AAd?$AAi?$AAo?$AA?2?$AA_@ 00534268     LIBCMTD:_flsbuf.obj
 0003:0001b2d0       ??_C@_1HO@MLMGPAFH@?$AA?$CI?$AA?$CC?$AAi?$AAn?$AAc?$AAo?$AAn?$AAs?$AAi?$AAs?$AAt?$AAe?$AAn?$AAt?$AA?5?$AAI?$AAO?$AAB?$AA?5?$AAf?$AAi?$AAe?$AAl?$AAd?$AAs?$AA?$CC?$AA?0?$AA?5?$AAs?$AAt?$AAr?$AAe@ 005342d0     LIBCMTD:_flsbuf.obj
 0003:0001b368       ??_C@_1FA@OFIKMJFM@?$AAf?$AA?3?$AA?2?$AAd?$AAd?$AA?2?$AAv?$AAc?$AAt?$AAo?$AAo?$AAl?$AAs?$AA?2?$AAc?$AAr?$AAt?$AA?2?$AAc?$AAr?$AAt?$AAw?$AA3?$AA2?$AA?2?$AAs?$AAt?$AAd?$AAi?$AAo?$AA?2?$AAf@ 00534368     LIBCMTD:fwrite.obj
 0003:0001b3c8       ??_C@_1O@KLNKIMAP@?$AAf?$AAw?$AAr?$AAi?$AAt?$AAe?$AA?$AA@ 005343c8     LIBCMTD:fwrite.obj
 0003:0001b3d8       ??_C@_1BO@JGPKCBCE@?$AA_?$AAf?$AAw?$AAr?$AAi?$AAt?$AAe?$AA_?$AAn?$AAo?$AAl?$AAo?$AAc?$AAk?$AA?$AA@ 005343d8     LIBCMTD:fwrite.obj
 0003:0001b3fc       ??_C@_1CC@CGFEEBMC@?$AA?$CI?$AAb?$AAu?$AAf?$AAf?$AAe?$AAr?$AA?5?$AA?$CB?$AA?$DN?$AA?5?$AAN?$AAU?$AAL?$AAL?$AA?$CJ?$AA?$AA@ 005343fc     LIBCMTD:fwrite.obj
 0003:0001b424       ??_C@_1DC@FHEPNAPF@?$AAn?$AAu?$AAm?$AA?5?$AA?$DM?$AA?$DN?$AA?5?$AA?$CI?$AAS?$AAI?$AAZ?$AAE?$AA_?$AAM?$AAA?$AAX?$AA?5?$AA?1?$AA?5?$AAs?$AAi?$AAz?$AAe?$AA?$CJ?$AA?$AA@ 00534424     LIBCMTD:fwrite.obj
 0003:0001b460       ??_C@_1LG@DCNDJCHK@?$AA?$CI?$AA?$CC?$AAI?$AAn?$AAc?$AAo?$AAn?$AAs?$AAi?$AAs?$AAt?$AAe?$AAn?$AAt?$AA?5?$AAS?$AAt?$AAr?$AAe?$AAa?$AAm?$AA?5?$AAC?$AAo?$AAu?$AAn?$AAt?$AA?4?$AA?5?$AAF?$AAl?$AAu@ 00534460     LIBCMTD:fwrite.obj
 0003:0001b540       ??_C@_1BJK@FEBNHLFF@?$AA?$CI?$AA?$CI?$AAp?$AAt?$AAl?$AAo?$AAc?$AAi?$AA?9?$AA?$DO?$AAl?$AAc?$AA_?$AAc?$AAa?$AAt?$AAe?$AAg?$AAo?$AAr?$AAy?$AA?$FL?$AAc?$AAa?$AAt?$AAe?$AAg?$AAo?$AAr?$AAy?$AA?$FN?$AA?4@ 00534540     LIBCMTD:localref.obj
 0003:0001b730       ??_C@_1FC@HINIIGNO@?$AAf?$AA?3?$AA?2?$AAd?$AAd?$AA?2?$AAv?$AAc?$AAt?$AAo?$AAo?$AAl?$AAs?$AA?2?$AAc?$AAr?$AAt?$AA?2?$AAc?$AAr?$AAt?$AAw?$AA3?$AA2?$AA?2?$AAm?$AAi?$AAs?$AAc?$AA?2?$AAl?$AAo@ 00534730     LIBCMTD:localref.obj
 0003:0001b7a8       ??_C@_1M@HPNHIDJI@?$AAj?$AAa?$AA?9?$AAJ?$AAP?$AA?$AA@ 005347a8     LIBCMTD:mbctype.obj
 0003:0001b7b8       ??_C@_1M@BIBDDEMK@?$AAz?$AAh?$AA?9?$AAC?$AAN?$AA?$AA@ 005347b8     LIBCMTD:mbctype.obj
 0003:0001b7c8       ??_C@_1M@JLOOOEGK@?$AAk?$AAo?$AA?9?$AAK?$AAR?$AA?$AA@ 005347c8     LIBCMTD:mbctype.obj
 0003:0001b7d8       ??_C@_1M@CLNBBOPM@?$AAz?$AAh?$AA?9?$AAT?$AAW?$AA?$AA@ 005347d8     LIBCMTD:mbctype.obj
 0003:0001b7e8       ??_C@_0CM@BEDCPGGG@f?3?2dd?2vctools?2crt?2crtw32?2mbstrin@ 005347e8     LIBCMTD:mbctype.obj
 0003:0001b81c       ??_C@_1CI@JELMFMDH@?$AAc?$AA?5?$AA?$DO?$AA?$DN?$AA?5?$AA?9?$AA1?$AA?5?$AA?$CG?$AA?$CG?$AA?5?$AAc?$AA?5?$AA?$DM?$AA?$DN?$AA?5?$AA2?$AA5?$AA5?$AA?$AA@ 0053481c     LIBCMTD:isctype.obj
 0003:0001b850       ??_C@_1FG@IBFIOCOE@?$AAf?$AA?3?$AA?2?$AAd?$AAd?$AA?2?$AAv?$AAc?$AAt?$AAo?$AAo?$AAl?$AAs?$AA?2?$AAc?$AAr?$AAt?$AA?2?$AAc?$AAr?$AAt?$AAw?$AA3?$AA2?$AA?2?$AAc?$AAo?$AAn?$AAv?$AAe?$AAr?$AAt@ 00534850     LIBCMTD:isctype.obj
 0003:0001b8b8       ??_C@_0CM@KPPOKOAI@f?3?2dd?2vctools?2crt?2crtw32?2startup@ 005348b8     LIBCMTD:tidtable.obj
 0003:0001b8ec       ??_C@_06OOPIFAJ@Sunday?$AA@ 005348ec     LIBCMTD:nlsdata.obj
 0003:0001b8f4       ??_C@_06JLEDEDGH@Monday?$AA@ 005348f4     LIBCMTD:nlsdata.obj
 0003:0001b8fc       ??_C@_07BAAGCFCM@Tuesday?$AA@ 005348fc     LIBCMTD:nlsdata.obj
 0003:0001b908       ??_C@_09DLIGFAKA@Wednesday?$AA@ 00534908     LIBCMTD:nlsdata.obj
 0003:0001b914       ??_C@_08HACCIKIA@Thursday?$AA@ 00534914     LIBCMTD:nlsdata.obj
 0003:0001b920       ??_C@_06JECMNKMI@Friday?$AA@ 00534920     LIBCMTD:nlsdata.obj
 0003:0001b928       ??_C@_08INBOOONO@Saturday?$AA@ 00534928     LIBCMTD:nlsdata.obj
 0003:0001b934       ??_C@_03JIHJHPIE@Jan?$AA@  00534934     LIBCMTD:nlsdata.obj
 0003:0001b938       ??_C@_03HJBDCHOM@Feb?$AA@  00534938     LIBCMTD:nlsdata.obj
 0003:0001b93c       ??_C@_03ODNJBKGA@Mar?$AA@  0053493c     LIBCMTD:nlsdata.obj
 0003:0001b940       ??_C@_03LEOLGMJP@Apr?$AA@  00534940     LIBCMTD:nlsdata.obj
 0003:0001b944       ??_C@_03CNMDKL@May?$AA@    00534944     LIBCMTD:nlsdata.obj
 0003:0001b948       ??_C@_03IDFGHECI@Jun?$AA@  00534948     LIBCMTD:nlsdata.obj
 0003:0001b94c       ??_C@_03LBGABGKK@Jul?$AA@  0053494c     LIBCMTD:nlsdata.obj
 0003:0001b950       ??_C@_03IFJFEIGA@Aug?$AA@  00534950     LIBCMTD:nlsdata.obj
 0003:0001b954       ??_C@_03GGCAPAJC@Sep?$AA@  00534954     LIBCMTD:nlsdata.obj
 0003:0001b958       ??_C@_03BMAOKBAD@Oct?$AA@  00534958     LIBCMTD:nlsdata.obj
 0003:0001b95c       ??_C@_03JPJOFNIA@Nov?$AA@  0053495c     LIBCMTD:nlsdata.obj
 0003:0001b960       ??_C@_03MKABNOCG@Dec?$AA@  00534960     LIBCMTD:nlsdata.obj
 0003:0001b964       ??_C@_07CGJPFGJA@January?$AA@ 00534964     LIBCMTD:nlsdata.obj
 0003:0001b970       ??_C@_08GNJGEPFN@February?$AA@ 00534970     LIBCMTD:nlsdata.obj
 0003:0001b97c       ??_C@_05HPCKOFNC@March?$AA@ 0053497c     LIBCMTD:nlsdata.obj
 0003:0001b984       ??_C@_05DMJDNLEJ@April?$AA@ 00534984     LIBCMTD:nlsdata.obj
 0003:0001b98c       ??_C@_04CNLMGBGM@June?$AA@ 0053498c     LIBCMTD:nlsdata.obj
 0003:0001b994       ??_C@_04MIEPOIFP@July?$AA@ 00534994     LIBCMTD:nlsdata.obj
 0003:0001b99c       ??_C@_06LBBHFDDG@August?$AA@ 0053499c     LIBCMTD:nlsdata.obj
 0003:0001b9a4       ??_C@_09BHHEALKD@September?$AA@ 005349a4     LIBCMTD:nlsdata.obj
 0003:0001b9b0       ??_C@_07JJNFCEND@October?$AA@ 005349b0     LIBCMTD:nlsdata.obj
 0003:0001b9bc       ??_C@_08HCHEGEOA@November?$AA@ 005349bc     LIBCMTD:nlsdata.obj
 0003:0001b9c8       ??_C@_08EDHMEBNP@December?$AA@ 005349c8     LIBCMTD:nlsdata.obj
 0003:0001b9d4       ??_C@_02DEDBPAFC@AM?$AA@   005349d4     LIBCMTD:nlsdata.obj
 0003:0001b9d8       ??_C@_02CJNFDJBF@PM?$AA@   005349d8     LIBCMTD:nlsdata.obj
 0003:0001b9dc       ??_C@_08BPBNCDIB@MM?1dd?1yy?$AA@ 005349dc     LIBCMTD:nlsdata.obj
 0003:0001b9e8       ??_C@_0BE@CKGJFCPC@dddd?0?5MMMM?5dd?0?5yyyy?$AA@ 005349e8     LIBCMTD:nlsdata.obj
 0003:0001ba00       ??_C@_08JCCMCCIL@HH?3mm?3ss?$AA@ 00534a00     LIBCMTD:nlsdata.obj
 0003:0001ba0c       ??_C@_17MBGCMIPB@?$AAS?$AAu?$AAn?$AA?$AA@ 00534a0c     LIBCMTD:nlsdata.obj
 0003:0001ba18       ??_C@_17KBOMKBF@?$AAM?$AAo?$AAn?$AA?$AA@ 00534a18     LIBCMTD:nlsdata.obj
 0003:0001ba24       ??_C@_17BMKGEGOJ@?$AAT?$AAu?$AAe?$AA?$AA@ 00534a24     LIBCMTD:nlsdata.obj
 0003:0001ba30       ??_C@_17CJEDCEPE@?$AAW?$AAe?$AAd?$AA?$AA@ 00534a30     LIBCMTD:nlsdata.obj
 0003:0001ba3c       ??_C@_17PDPHAADD@?$AAT?$AAh?$AAu?$AA?$AA@ 00534a3c     LIBCMTD:nlsdata.obj
 0003:0001ba48       ??_C@_17HFOLPPLP@?$AAF?$AAr?$AAi?$AA?$AA@ 00534a48     LIBCMTD:nlsdata.obj
 0003:0001ba54       ??_C@_17GGIBDPIH@?$AAS?$AAa?$AAt?$AA?$AA@ 00534a54     LIBCMTD:nlsdata.obj
 0003:0001ba60       ??_C@_1O@IHNHDHPB@?$AAS?$AAu?$AAn?$AAd?$AAa?$AAy?$AA?$AA@ 00534a60     LIBCMTD:nlsdata.obj
 0003:0001ba70       ??_C@_1O@MMNBFLIA@?$AAM?$AAo?$AAn?$AAd?$AAa?$AAy?$AA?$AA@ 00534a70     LIBCMTD:nlsdata.obj
 0003:0001ba80       ??_C@_1BA@ENFBFFEK@?$AAT?$AAu?$AAe?$AAs?$AAd?$AAa?$AAy?$AA?$AA@ 00534a80     LIBCMTD:nlsdata.obj
 0003:0001ba94       ??_C@_1BE@EBOGMDOH@?$AAW?$AAe?$AAd?$AAn?$AAe?$AAs?$AAd?$AAa?$AAy?$AA?$AA@ 00534a94     LIBCMTD:nlsdata.obj
 0003:0001baac       ??_C@_1BC@HHMNLIHE@?$AAT?$AAh?$AAu?$AAr?$AAs?$AAd?$AAa?$AAy?$AA?$AA@ 00534aac     LIBCMTD:nlsdata.obj
 0003:0001bac4       ??_C@_1O@PDICJHAG@?$AAF?$AAr?$AAi?$AAd?$AAa?$AAy?$AA?$AA@ 00534ac4     LIBCMTD:nlsdata.obj
 0003:0001bad4       ??_C@_1BC@ENMNNPAJ@?$AAS?$AAa?$AAt?$AAu?$AAr?$AAd?$AAa?$AAy?$AA?$AA@ 00534ad4     LIBCMTD:nlsdata.obj
 0003:0001baec       ??_C@_17DKNBKCHM@?$AAJ?$AAa?$AAn?$AA?$AA@ 00534aec     LIBCMTD:nlsdata.obj
 0003:0001baf8       ??_C@_17LMDJEKJN@?$AAF?$AAe?$AAb?$AA?$AA@ 00534af8     LIBCMTD:nlsdata.obj
 0003:0001bb04       ??_C@_17CKNLEDEC@?$AAM?$AAa?$AAr?$AA?$AA@ 00534b04     LIBCMTD:nlsdata.obj
 0003:0001bb10       ??_C@_17LFPOIHDD@?$AAA?$AAp?$AAr?$AA?$AA@ 00534b10     LIBCMTD:nlsdata.obj
 0003:0001bb1c       ??_C@_17PNNKMEED@?$AAM?$AAa?$AAy?$AA?$AA@ 00534b1c     LIBCMTD:nlsdata.obj
 0003:0001bb28       ??_C@_17KCJGOCPB@?$AAJ?$AAu?$AAn?$AA?$AA@ 00534b28     LIBCMTD:nlsdata.obj
 0003:0001bb34       ??_C@_17IJPCKHK@?$AAJ?$AAu?$AAl?$AA?$AA@ 00534b34     LIBCMTD:nlsdata.obj
 0003:0001bb40       ??_C@_17ICPELBCN@?$AAA?$AAu?$AAg?$AA?$AA@ 00534b40     LIBCMTD:nlsdata.obj
 0003:0001bb4c       ??_C@_17HCHCOKMG@?$AAS?$AAe?$AAp?$AA?$AA@ 00534b4c     LIBCMTD:nlsdata.obj
 0003:0001bb58       ??_C@_17FNLKOI@?$AAO?$AAc?$AAt?$AA?$AA@ 00534b58     LIBCMTD:nlsdata.obj
 0003:0001bb64       ??_C@_17BBDMLCIG@?$AAN?$AAo?$AAv?$AA?$AA@ 00534b64     LIBCMTD:nlsdata.obj
 0003:0001bb70       ??_C@_17EGKACKIF@?$AAD?$AAe?$AAc?$AA?$AA@ 00534b70     LIBCMTD:nlsdata.obj
 0003:0001bb7c       ??_C@_1BA@EFMEIEBA@?$AAJ?$AAa?$AAn?$AAu?$AAa?$AAr?$AAy?$AA?$AA@ 00534b7c     LIBCMTD:nlsdata.obj
 0003:0001bb90       ??_C@_1BC@JGDDFFAM@?$AAF?$AAe?$AAb?$AAr?$AAu?$AAa?$AAr?$AAy?$AA?$AA@ 00534b90     LIBCMTD:nlsdata.obj
 0003:0001bba8       ??_C@_1M@IKEENEDF@?$AAM?$AAa?$AAr?$AAc?$AAh?$AA?$AA@ 00534ba8     LIBCMTD:nlsdata.obj
 0003:0001bbb8       ??_C@_1M@GJNLMHFD@?$AAA?$AAp?$AAr?$AAi?$AAl?$AA?$AA@ 00534bb8     LIBCMTD:nlsdata.obj
 0003:0001bbc8       ??_C@_19EPFLPGAP@?$AAJ?$AAu?$AAn?$AAe?$AA?$AA@ 00534bc8     LIBCMTD:nlsdata.obj
 0003:0001bbd4       ??_C@_19BIFMLPCD@?$AAJ?$AAu?$AAl?$AAy?$AA?$AA@ 00534bd4     LIBCMTD:nlsdata.obj
 0003:0001bbe0       ??_C@_1O@PAHLKOAC@?$AAA?$AAu?$AAg?$AAu?$AAs?$AAt?$AA?$AA@ 00534be0     LIBCMTD:nlsdata.obj
 0003:0001bbf0       ??_C@_1BE@DKAAMBJL@?$AAS?$AAe?$AAp?$AAt?$AAe?$AAm?$AAb?$AAe?$AAr?$AA?$AA@ 00534bf0     LIBCMTD:nlsdata.obj
 0003:0001bc08       ??_C@_1BA@EPANDLNG@?$AAO?$AAc?$AAt?$AAo?$AAb?$AAe?$AAr?$AA?$AA@ 00534c08     LIBCMTD:nlsdata.obj
 0003:0001bc1c       ??_C@_1BC@BGLIFPF@?$AAN?$AAo?$AAv?$AAe?$AAm?$AAb?$AAe?$AAr?$AA?$AA@ 00534c1c     LIBCMTD:nlsdata.obj
 0003:0001bc34       ??_C@_1BC@FEMKIFH@?$AAD?$AAe?$AAc?$AAe?$AAm?$AAb?$AAe?$AAr?$AA?$AA@ 00534c34     LIBCMTD:nlsdata.obj
 0003:0001bc4c       ??_C@_15ODEHAHHF@?$AAA?$AAM?$AA?$AA@ 00534c4c     LIBCMTD:nlsdata.obj
 0003:0001bc54       ??_C@_15CLMNNGEL@?$AAP?$AAM?$AA?$AA@ 00534c54     LIBCMTD:nlsdata.obj
 0003:0001bc5c       ??_C@_1BC@IEBCMHCM@?$AAM?$AAM?$AA?1?$AAd?$AAd?$AA?1?$AAy?$AAy?$AA?$AA@ 00534c5c     LIBCMTD:nlsdata.obj
 0003:0001bc74       ??_C@_1CI@KNAKOEBC@?$AAd?$AAd?$AAd?$AAd?$AA?0?$AA?5?$AAM?$AAM?$AAM?$AAM?$AA?5?$AAd?$AAd?$AA?0?$AA?5?$AAy?$AAy?$AAy?$AAy?$AA?$AA@ 00534c74     LIBCMTD:nlsdata.obj
 0003:0001bca4       ??_C@_1BC@GDGBMEMK@?$AAH?$AAH?$AA?3?$AAm?$AAm?$AA?3?$AAs?$AAs?$AA?$AA@ 00534ca4     LIBCMTD:nlsdata.obj
 0003:0001bcbc       ??_C@_1M@BMHNFIME@?$AAe?$AAn?$AA?9?$AAU?$AAS?$AA?$AA@ 00534cbc     LIBCMTD:nlsdata.obj
 0003:0001bcd0       ___lc_category             00534cd0     LIBCMTD:wsetloca.obj
 0003:0001bd28       ??_C@_1O@GIFLHMA@?$AAL?$AAC?$AA_?$AAA?$AAL?$AAL?$AA?$AA@ 00534d28     LIBCMTD:wsetloca.obj
 0003:0001bd38       ??_C@_1BG@PPOMIBNJ@?$AAL?$AAC?$AA_?$AAC?$AAO?$AAL?$AAL?$AAA?$AAT?$AAE?$AA?$AA@ 00534d38     LIBCMTD:wsetloca.obj
 0003:0001bd54       ??_C@_1BC@FFJGAPJM@?$AAL?$AAC?$AA_?$AAC?$AAT?$AAY?$AAP?$AAE?$AA?$AA@ 00534d54     LIBCMTD:wsetloca.obj
 0003:0001bd6c       ??_C@_1BI@PCKFNJFB@?$AAL?$AAC?$AA_?$AAM?$AAO?$AAN?$AAE?$AAT?$AAA?$AAR?$AAY?$AA?$AA@ 00534d6c     LIBCMTD:wsetloca.obj
 0003:0001bd88       ??_C@_1BG@ENIEDKID@?$AAL?$AAC?$AA_?$AAN?$AAU?$AAM?$AAE?$AAR?$AAI?$AAC?$AA?$AA@ 00534d88     LIBCMTD:wsetloca.obj
 0003:0001bda4       ??_C@_1BA@HAAOMIIG@?$AAL?$AAC?$AA_?$AAT?$AAI?$AAM?$AAE?$AA?$AA@ 00534da4     LIBCMTD:wsetloca.obj
 0003:0001be50       ??_C@_1GA@LDEGDKD@?$AA?$CI?$AA?$CC?$AAI?$AAn?$AAv?$AAa?$AAl?$AAi?$AAd?$AA?5?$AAp?$AAa?$AAr?$AAa?$AAm?$AAe?$AAt?$AAe?$AAr?$AA?5?$AAf?$AAo?$AAr?$AA?5?$AA_?$AAc?$AAo?$AAn?$AAf?$AAi?$AAg?$AAt@ 00534e50     LIBCMTD:wsetloca.obj
 0003:0001bec8       ??_C@_1FC@GFIKBLFA@?$AAf?$AA?3?$AA?2?$AAd?$AAd?$AA?2?$AAv?$AAc?$AAt?$AAo?$AAo?$AAl?$AAs?$AA?2?$AAc?$AAr?$AAt?$AA?2?$AAc?$AAr?$AAt?$AAw?$AA3?$AA2?$AA?2?$AAm?$AAi?$AAs?$AAc?$AA?2?$AAw?$AAs@ 00534ec8     LIBCMTD:wsetloca.obj
 0003:0001bf2c       ??_C@_1CI@FGIONOJM@?$AA_?$AAc?$AAo?$AAn?$AAf?$AAi?$AAg?$AAt?$AAh?$AAr?$AAe?$AAa?$AAd?$AAl?$AAo?$AAc?$AAa?$AAl?$AAe?$AA?$AA@ 00534f2c     LIBCMTD:wsetloca.obj
 0003:0001bf5c       ??_C@_0CJ@MIILEBP@f?3?2dd?2vctools?2crt?2crtw32?2misc?2ws@ 00534f5c     LIBCMTD:wsetloca.obj
 0003:0001bf90       ??_C@_1FG@OHLFEKMC@?$AAL?$AAC?$AA_?$AAM?$AAI?$AAN?$AA?5?$AA?$DM?$AA?$DN?$AA?5?$AA_?$AAc?$AAa?$AAt?$AAe?$AAg?$AAo?$AAr?$AAy?$AA?5?$AA?$CG?$AA?$CG?$AA?5?$AA_?$AAc?$AAa?$AAt?$AAe?$AAg?$AAo?$AAr?$AAy@ 00534f90     LIBCMTD:wsetloca.obj
 0003:0001bff8       ??_C@_1BI@KJNPAEHL@?$AA_?$AAw?$AAs?$AAe?$AAt?$AAl?$AAo?$AAc?$AAa?$AAl?$AAe?$AA?$AA@ 00534ff8     LIBCMTD:wsetloca.obj
 0003:0001c014       ??_C@_15NBPDDFIP@?$AA?$DN?$AA?$DL?$AA?$AA@ 00535014     LIBCMTD:wsetloca.obj
 0003:0001c01c       ??_C@_13PJJBFPED@?$AA?$DL?$AA?$AA@ 0053501c     LIBCMTD:wsetloca.obj
 0003:0001c020       ??_C@_1CG@DKJCBBPP@?$AA_?$AAw?$AAs?$AAe?$AAt?$AAl?$AAo?$AAc?$AAa?$AAl?$AAe?$AA_?$AAn?$AAo?$AAl?$AAo?$AAc?$AAk?$AA?$AA@ 00535020     LIBCMTD:wsetloca.obj
 0003:0001c050       ??_C@_1IA@DGCOPCLP@?$AAw?$AAc?$AAs?$AAn?$AAc?$AAp?$AAy?$AA_?$AAs?$AA?$CI?$AAl?$AAc?$AAt?$AAe?$AAm?$AAp?$AA?0?$AA?5?$AA?$CI?$AAs?$AAi?$AAz?$AAe?$AAo?$AAf?$AA?$CI?$AAl?$AAc?$AAt?$AAe?$AAm?$AAp@ 00535050     LIBCMTD:wsetloca.obj
 0003:0001c0ec       ??_C@_1CI@ODOPEMNJ@?$AA_?$AAw?$AAs?$AAe?$AAt?$AAl?$AAo?$AAc?$AAa?$AAl?$AAe?$AA_?$AAs?$AAe?$AAt?$AA_?$AAc?$AAa?$AAt?$AA?$AA@ 005350ec     LIBCMTD:wsetloca.obj
 0003:0001c120       ??_C@_1EM@MHOCNIAA@?$AAw?$AAc?$AAs?$AAc?$AAp?$AAy?$AA_?$AAs?$AA?$CI?$AAp?$AAc?$AAh?$AA_?$AAc?$AAa?$AAt?$AA_?$AAl?$AAo?$AAc?$AAa?$AAl?$AAe?$AA?0?$AA?5?$AAc?$AAc?$AAh?$AA?0?$AA?5?$AAl?$AAc@ 00535120     LIBCMTD:wsetloca.obj
 0003:0001c17c       ??_C@_13NMPKAAJP@?$AA?$DN?$AA?$AA@ 0053517c     LIBCMTD:wsetloca.obj
 0003:0001c180       ??_C@_1CI@LKOPFFBD@?$AA_?$AAw?$AAs?$AAe?$AAt?$AAl?$AAo?$AAc?$AAa?$AAl?$AAe?$AA_?$AAg?$AAe?$AAt?$AA_?$AAa?$AAl?$AAl?$AA?$AA@ 00535180     LIBCMTD:wsetloca.obj
 0003:0001c1b0       ??_C@_1DC@HMLJMODP@?$AAw?$AAc?$AAs?$AAc?$AAa?$AAt?$AA_?$AAs?$AA?$CI?$AAp?$AAc?$AAh?$AA?0?$AA?5?$AAc?$AAc?$AAh?$AA?0?$AA?5?$AAL?$AA?$CC?$AA?$DL?$AA?$CC?$AA?$CJ?$AA?$AA@ 005351b0     LIBCMTD:wsetloca.obj
 0003:0001c1ec       ??_C@_1BM@OIIBLEFG@?$AA_?$AAe?$AAx?$AAp?$AAa?$AAn?$AAd?$AAl?$AAo?$AAc?$AAa?$AAl?$AAe?$AA?$AA@ 005351ec     LIBCMTD:wsetloca.obj
 0003:0001c210       ??_C@_1BFG@FHLOBJGM@?$AAw?$AAc?$AAs?$AAn?$AAc?$AAp?$AAy?$AA_?$AAs?$AA?$CI?$AAl?$AAo?$AAc?$AAa?$AAl?$AAe?$AAN?$AAa?$AAm?$AAe?$AAO?$AAu?$AAt?$AAp?$AAu?$AAt?$AA?0?$AA?5?$AAl?$AAo?$AAc?$AAa@ 00535210     LIBCMTD:wsetloca.obj
 0003:0001c3b0       ??_C@_1EI@OCINLCHN@?$AAw?$AAc?$AAs?$AAc?$AAp?$AAy?$AA_?$AAs?$AA?$CI?$AAo?$AAu?$AAt?$AAp?$AAu?$AAt?$AA?0?$AA?5?$AAs?$AAi?$AAz?$AAe?$AAI?$AAn?$AAC?$AAh?$AAa?$AAr?$AAs?$AA?0?$AA?5?$AAL?$AA?$CC@ 005353b0     LIBCMTD:wsetloca.obj
 0003:0001c408       ??_C@_13FHBKNHDA@?$AAC?$AA?$AA@ 00535408     LIBCMTD:wsetloca.obj
 0003:0001c410       ??_C@_1MO@NNCNEOAP@?$AAw?$AAc?$AAs?$AAn?$AAc?$AAp?$AAy?$AA_?$AAs?$AA?$CI?$AAl?$AAo?$AAc?$AAa?$AAl?$AAe?$AAN?$AAa?$AAm?$AAe?$AAO?$AAu?$AAt?$AAp?$AAu?$AAt?$AA?0?$AA?5?$AAl?$AAo?$AAc?$AAa@ 00535410     LIBCMTD:wsetloca.obj
 0003:0001c508       ??_C@_1IG@MKDIEKFD@?$AAw?$AAc?$AAs?$AAn?$AAc?$AAp?$AAy?$AA_?$AAs?$AA?$CI?$AAc?$AAa?$AAc?$AAh?$AAe?$AAo?$AAu?$AAt?$AA?0?$AA?5?$AAc?$AAa?$AAc?$AAh?$AAe?$AAo?$AAu?$AAt?$AAL?$AAe?$AAn?$AA?0@ 00535508     LIBCMTD:wsetloca.obj
 0003:0001c5a8       ??_C@_1KK@KMIFPBBC@?$AAw?$AAc?$AAs?$AAn?$AAc?$AAp?$AAy?$AA_?$AAs?$AA?$CI?$AAl?$AAo?$AAc?$AAa?$AAl?$AAe?$AAN?$AAa?$AAm?$AAe?$AAO?$AAu?$AAt?$AAp?$AAu?$AAt?$AA?0?$AA?5?$AAl?$AAo?$AAc?$AAa@ 005355a8     LIBCMTD:wsetloca.obj
 0003:0001c678       ??_C@_1BEK@OJDMMIMP@?$AAw?$AAc?$AAs?$AAn?$AAc?$AAp?$AAy?$AA_?$AAs?$AA?$CI?$AA_?$AAp?$AAs?$AAe?$AAt?$AAl?$AAo?$AAc?$AA_?$AAd?$AAa?$AAt?$AAa?$AA?9?$AA?$DO?$AA_?$AAc?$AAa?$AAc?$AAh?$AAe?$AAL@ 00535678     LIBCMTD:wsetloca.obj
 0003:0001c808       ??_C@_1BGG@FCLLNAOE@?$AAw?$AAc?$AAs?$AAn?$AAc?$AAp?$AAy?$AA_?$AAs?$AA?$CI?$AA_?$AAp?$AAs?$AAe?$AAt?$AAl?$AAo?$AAc?$AA_?$AAd?$AAa?$AAt?$AAa?$AA?9?$AA?$DO?$AA_?$AAc?$AAa?$AAc?$AAh?$AAe?$AAL@ 00535808     LIBCMTD:wsetloca.obj
 0003:0001c9b8       ??_C@_1IC@FCCDBGLL@?$AAw?$AAc?$AAs?$AAn?$AAc?$AAp?$AAy?$AA_?$AAs?$AA?$CI?$AAc?$AAa?$AAc?$AAh?$AAe?$AAi?$AAn?$AA?0?$AA?5?$AAc?$AAa?$AAc?$AAh?$AAe?$AAi?$AAn?$AAL?$AAe?$AAn?$AA?0?$AA?5?$AAe@ 005359b8     LIBCMTD:wsetloca.obj
 0003:0001ca58       ??_C@_1FA@HOOAAHFF@?$AAw?$AAc?$AAs?$AAc?$AAp?$AAy?$AA_?$AAs?$AA?$CI?$AAo?$AAu?$AAt?$AAp?$AAu?$AAt?$AA?0?$AA?5?$AAs?$AAi?$AAz?$AAe?$AAI?$AAn?$AAC?$AAh?$AAa?$AAr?$AAs?$AA?0?$AA?5?$AAc?$AAa@ 00535a58     LIBCMTD:wsetloca.obj
 0003:0001cab8       ??_C@_1BC@LEOKFFML@?$AA_?$AAw?$AAc?$AAs?$AAc?$AAa?$AAt?$AAs?$AA?$AA@ 00535ab8     LIBCMTD:wsetloca.obj
 0003:0001cad0       ??_C@_1BII@IONPPCCF@?$AAw?$AAc?$AAs?$AAc?$AAa?$AAt?$AA_?$AAs?$AA?$CI?$AAo?$AAu?$AAt?$AAs?$AAt?$AAr?$AA?0?$AA?5?$AAn?$AAu?$AAm?$AAb?$AAe?$AAr?$AAO?$AAf?$AAE?$AAl?$AAe?$AAm?$AAe?$AAn?$AAt@ 00535ad0     LIBCMTD:wsetloca.obj
 0003:0001cca8       ??_C@_1BK@GNCHCGCN@?$AA_?$AA_?$AAl?$AAc?$AA_?$AAw?$AAc?$AAs?$AAt?$AAo?$AAl?$AAc?$AA?$AA@ 00535ca8     LIBCMTD:wsetloca.obj
 0003:0001ccc8       ??_C@_1NI@NELJHJBO@?$AAw?$AAc?$AAs?$AAn?$AAc?$AAp?$AAy?$AA_?$AAs?$AA?$CI?$AAn?$AAa?$AAm?$AAe?$AAs?$AA?9?$AA?$DO?$AAs?$AAz?$AAC?$AAo?$AAd?$AAe?$AAP?$AAa?$AAg?$AAe?$AA?0?$AA?5?$AA?$CI?$AAs?$AAi@ 00535cc8     LIBCMTD:wsetloca.obj
 0003:0001cdcc       ??_C@_17MBJJLFDM@?$AA_?$AA?4?$AA?0?$AA?$AA@ 00535dcc     LIBCMTD:wsetloca.obj
 0003:0001cdd8       ??_C@_1MO@PBGOIBFL@?$AAw?$AAc?$AAs?$AAn?$AAc?$AAp?$AAy?$AA_?$AAs?$AA?$CI?$AAn?$AAa?$AAm?$AAe?$AAs?$AA?9?$AA?$DO?$AAs?$AAz?$AAL?$AAa?$AAn?$AAg?$AAu?$AAa?$AAg?$AAe?$AA?0?$AA?5?$AA?$CI?$AAs?$AAi@ 00535dd8     LIBCMTD:wsetloca.obj
 0003:0001ced0       ??_C@_1MI@CLMFNAAJ@?$AAw?$AAc?$AAs?$AAn?$AAc?$AAp?$AAy?$AA_?$AAs?$AA?$CI?$AAn?$AAa?$AAm?$AAe?$AAs?$AA?9?$AA?$DO?$AAs?$AAz?$AAC?$AAo?$AAu?$AAn?$AAt?$AAr?$AAy?$AA?0?$AA?5?$AA?$CI?$AAs?$AAi?$AAz@ 00535ed0     LIBCMTD:wsetloca.obj
 0003:0001cfc0       ??_C@_1MO@NBFBMKCB@?$AAw?$AAc?$AAs?$AAn?$AAc?$AAp?$AAy?$AA_?$AAs?$AA?$CI?$AAn?$AAa?$AAm?$AAe?$AAs?$AA?9?$AA?$DO?$AAs?$AAz?$AAC?$AAo?$AAd?$AAe?$AAP?$AAa?$AAg?$AAe?$AA?0?$AA?5?$AA?$CI?$AAs?$AAi@ 00535fc0     LIBCMTD:wsetloca.obj
 0003:0001d0b8       ??_C@_1BK@HEBMGPEK@?$AA_?$AA_?$AAl?$AAc?$AA_?$AAl?$AAc?$AAt?$AAo?$AAw?$AAc?$AAs?$AA?$AA@ 005360b8     LIBCMTD:wsetloca.obj
 0003:0001d0d8       ??_C@_1GM@FOFMGOEK@?$AAw?$AAc?$AAs?$AAc?$AAp?$AAy?$AA_?$AAs?$AA?$CI?$AAl?$AAo?$AAc?$AAa?$AAl?$AAe?$AA?0?$AA?5?$AAn?$AAu?$AAm?$AAb?$AAe?$AAr?$AAO?$AAf?$AAE?$AAl?$AAe?$AAm?$AAe?$AAn?$AAt@ 005360d8     LIBCMTD:wsetloca.obj
 0003:0001d15c       ??_C@_13ENNFDPBH@?$AA_?$AA?$AA@ 0053615c     LIBCMTD:wsetloca.obj
 0003:0001d160       ??_C@_13JOFGPIOO@?$AA?4?$AA?$AA@ 00536160     LIBCMTD:wsetloca.obj
 0003:0001d164       ??_C@_1CG@HCGEAFEA@?$AA_?$AA_?$AAc?$AAo?$AAp?$AAy?$AA_?$AAl?$AAo?$AAc?$AAa?$AAl?$AAe?$AA_?$AAn?$AAa?$AAm?$AAe?$AA?$AA@ 00536164     LIBCMTD:wsetloca.obj
 0003:0001d198       ??_C@_1GI@HBNMCKGD@?$AAw?$AAc?$AAs?$AAn?$AAc?$AAp?$AAy?$AA_?$AAs?$AA?$CI?$AAl?$AAo?$AAc?$AAa?$AAl?$AAe?$AAN?$AAa?$AAm?$AAe?$AAC?$AAo?$AAp?$AAy?$AA?0?$AA?5?$AAc?$AAc?$AAh?$AA?$CL?$AA1?$AA?0@ 00536198     LIBCMTD:wsetloca.obj
 0003:0001d218       ??_C@_1FG@COJCEIPE@?$AAf?$AA?3?$AA?2?$AAd?$AAd?$AA?2?$AAv?$AAc?$AAt?$AAo?$AAo?$AAl?$AAs?$AA?2?$AAc?$AAr?$AAt?$AA?2?$AAc?$AAr?$AAt?$AAw?$AA3?$AA2?$AA?2?$AAs?$AAt?$AAr?$AAi?$AAn?$AAg?$AA?2@ 00536218     LIBCMTD:memcpy_s.obj
 0003:0001d280       ??_C@_1BC@GKHDJMGB@?$AAm?$AAe?$AAm?$AAc?$AAp?$AAy?$AA_?$AAs?$AA?$AA@ 00536280     LIBCMTD:memcpy_s.obj
 0003:0001d298       ??_C@_1CK@DDKKOLAN@?$AAs?$AAi?$AAz?$AAe?$AAI?$AAn?$AAB?$AAy?$AAt?$AAe?$AAs?$AA?5?$AA?$DO?$AA?$DN?$AA?5?$AAc?$AAo?$AAu?$AAn?$AAt?$AA?$AA@ 00536298     LIBCMTD:memcpy_s.obj
 0003:0001d2d0       ??_C@_1FC@PFMLEHKI@?$AA?$CI?$AA?$CI?$AA_?$AAD?$AAs?$AAt?$AA?$CJ?$AA?$CJ?$AA?5?$AA?$CB?$AA?$DN?$AA?5?$AAN?$AAU?$AAL?$AAL?$AA?5?$AA?$CG?$AA?$CG?$AA?5?$AA?$CI?$AA?$CI?$AA_?$AAS?$AAi?$AAz?$AAe?$AAI?$AAn?$AAW?$AAo?$AAr@ 005362d0     LIBCMTD:wcscat_s.obj
 0003:0001d338       ??_C@_1FA@EDIAPAPE@?$AAf?$AA?3?$AA?2?$AAd?$AAd?$AA?2?$AAv?$AAc?$AAt?$AAo?$AAo?$AAl?$AAs?$AA?2?$AAc?$AAr?$AAt?$AA?2?$AAc?$AAr?$AAt?$AAw?$AA3?$AA2?$AA?2?$AAh?$AA?2?$AAt?$AAc?$AAs?$AAc?$AAa@ 00536338     LIBCMTD:wcscat_s.obj
 0003:0001d398       ??_C@_1BC@PLIEPKPJ@?$AAw?$AAc?$AAs?$AAc?$AAa?$AAt?$AA_?$AAs?$AA?$AA@ 00536398     LIBCMTD:wcscat_s.obj
 0003:0001d3b0       ??_C@_1CG@OFBJMIGJ@?$AA?$CI?$AA?$CI?$AA?$CI?$AA_?$AAS?$AAr?$AAc?$AA?$CJ?$AA?$CJ?$AA?$CJ?$AA?5?$AA?$CB?$AA?$DN?$AA?5?$AAN?$AAU?$AAL?$AAL?$AA?$AA@ 005363b0     LIBCMTD:wcscat_s.obj
 0003:0001d3e0       ??_C@_1DM@FHLMIEG@?$AAS?$AAt?$AAr?$AAi?$AAn?$AAg?$AA?5?$AAi?$AAs?$AA?5?$AAn?$AAo?$AAt?$AA?5?$AAn?$AAu?$AAl?$AAl?$AA?5?$AAt?$AAe?$AAr?$AAm?$AAi?$AAn?$AAa?$AAt?$AAe?$AAd?$AA?$AA@ 005363e0     LIBCMTD:wcscat_s.obj
 0003:0001d428       ??_C@_1FA@MJKDNFFB@?$AA?$CI?$AAL?$AA?$CC?$AAS?$AAt?$AAr?$AAi?$AAn?$AAg?$AA?5?$AAi?$AAs?$AA?5?$AAn?$AAo?$AAt?$AA?5?$AAn?$AAu?$AAl?$AAl?$AA?5?$AAt?$AAe?$AAr?$AAm?$AAi?$AAn?$AAa?$AAt?$AAe?$AAd@ 00536428     LIBCMTD:wcscat_s.obj
 0003:0001d488       ??_C@_1CI@HCPHDDLE@?$AAB?$AAu?$AAf?$AAf?$AAe?$AAr?$AA?5?$AAi?$AAs?$AA?5?$AAt?$AAo?$AAo?$AA?5?$AAs?$AAm?$AAa?$AAl?$AAl?$AA?$AA@ 00536488     LIBCMTD:wcscat_s.obj
 0003:0001d4b8       ??_C@_1DM@MADKGDLO@?$AA?$CI?$AAL?$AA?$CC?$AAB?$AAu?$AAf?$AAf?$AAe?$AAr?$AA?5?$AAi?$AAs?$AA?5?$AAt?$AAo?$AAo?$AA?5?$AAs?$AAm?$AAa?$AAl?$AAl?$AA?$CC?$AA?5?$AA?$CG?$AA?$CG?$AA?5?$AA0?$AA?$CJ?$AA?$AA@ 005364b8     LIBCMTD:wcscat_s.obj
 0003:0001d500       ??_C@_1FA@ILDLFIFE@?$AAf?$AA?3?$AA?2?$AAd?$AAd?$AA?2?$AAv?$AAc?$AAt?$AAo?$AAo?$AAl?$AAs?$AA?2?$AAc?$AAr?$AAt?$AA?2?$AAc?$AAr?$AAt?$AAw?$AA3?$AA2?$AA?2?$AAh?$AA?2?$AAt?$AAc?$AAs?$AAc?$AAp@ 00536500     LIBCMTD:wcscpy_s.obj
 0003:0001d560       ??_C@_1BC@KIONAFPO@?$AAw?$AAc?$AAs?$AAc?$AAp?$AAy?$AA_?$AAs?$AA?$AA@ 00536560     LIBCMTD:wcscpy_s.obj
 0003:0001d578       ??_C@_1FC@HNAKBBDB@?$AAf?$AA?3?$AA?2?$AAd?$AAd?$AA?2?$AAv?$AAc?$AAt?$AAo?$AAo?$AAl?$AAs?$AA?2?$AAc?$AAr?$AAt?$AA?2?$AAc?$AAr?$AAt?$AAw?$AA3?$AA2?$AA?2?$AAh?$AA?2?$AAt?$AAc?$AAs?$AAn?$AAc@ 00536578     LIBCMTD:wcsncat_s.obj
 0003:0001d5dc       ??_C@_1BE@KPKIKKCF@?$AAw?$AAc?$AAs?$AAn?$AAc?$AAa?$AAt?$AA_?$AAs?$AA?$AA@ 005365dc     LIBCMTD:wcsncat_s.obj
 0003:0001d5f4       ??_C@_1DE@BCNCAIK@?$AA?$CI?$AA?$CC?$AAI?$AAn?$AAv?$AAa?$AAl?$AAi?$AAd?$AA?5?$AAe?$AAr?$AAr?$AAo?$AAr?$AA_?$AAm?$AAo?$AAd?$AAe?$AA?$CC?$AA?0?$AA?5?$AA0?$AA?$CJ?$AA?$AA@ 005365f4     LIBCMTD:errmode.obj
 0003:0001d638       ??_C@_1FA@PBBGNIFD@?$AAf?$AA?3?$AA?2?$AAd?$AAd?$AA?2?$AAv?$AAc?$AAt?$AAo?$AAo?$AAl?$AAs?$AA?2?$AAc?$AAr?$AAt?$AA?2?$AAc?$AAr?$AAt?$AAw?$AA3?$AA2?$AA?2?$AAm?$AAi?$AAs?$AAc?$AA?2?$AAe?$AAr@ 00536638     LIBCMTD:errmode.obj
 0003:0001d698       ??_C@_1CA@LFDHAMEM@?$AA_?$AAs?$AAe?$AAt?$AA_?$AAe?$AAr?$AAr?$AAo?$AAr?$AA_?$AAm?$AAo?$AAd?$AAe?$AA?$AA@ 00536698     LIBCMTD:errmode.obj
 0003:0001d6c0       ??_C@_1BI@ICGGMGLK@?$AAb?$AAu?$AAf?$AA?5?$AA?$CB?$AA?$DN?$AA?5?$AAN?$AAU?$AAL?$AAL?$AA?$AA@ 005366c0     LIBCMTD:xtows.obj
 0003:0001d6e0       ??_C@_1FA@LEFFAILN@?$AAf?$AA?3?$AA?2?$AAd?$AAd?$AA?2?$AAv?$AAc?$AAt?$AAo?$AAo?$AAl?$AAs?$AA?2?$AAc?$AAr?$AAt?$AA?2?$AAc?$AAr?$AAt?$AAw?$AA3?$AA2?$AA?2?$AAc?$AAo?$AAn?$AAv?$AAe?$AAr?$AAt@ 005366e0     LIBCMTD:xtows.obj
 0003:0001d740       ??_C@_1O@NCBFODOE@?$AAx?$AAt?$AAo?$AAw?$AA_?$AAs?$AA?$AA@ 00536740     LIBCMTD:xtows.obj
 0003:0001d750       ??_C@_1CC@JNJFIMGE@?$AAs?$AAi?$AAz?$AAe?$AAI?$AAn?$AAT?$AAC?$AAh?$AAa?$AAr?$AAs?$AA?5?$AA?$DO?$AA?5?$AA0?$AA?$AA@ 00536750     LIBCMTD:xtows.obj
 0003:0001d778       ??_C@_1FA@MKGGAGEI@?$AAs?$AAi?$AAz?$AAe?$AAI?$AAn?$AAT?$AAC?$AAh?$AAa?$AAr?$AAs?$AA?5?$AA?$DO?$AA?5?$AA?$CI?$AAs?$AAi?$AAz?$AAe?$AA_?$AAt?$AA?$CJ?$AA?$CI?$AAi?$AAs?$AA_?$AAn?$AAe?$AAg?$AA?5?$AA?$DP@ 00536778     LIBCMTD:xtows.obj
 0003:0001d7d8       ??_C@_1DE@PCJGDBBD@?$AA2?$AA?5?$AA?$DM?$AA?$DN?$AA?5?$AAr?$AAa?$AAd?$AAi?$AAx?$AA?5?$AA?$CG?$AA?$CG?$AA?5?$AAr?$AAa?$AAd?$AAi?$AAx?$AA?5?$AA?$DM?$AA?$DN?$AA?5?$AA3?$AA6?$AA?$AA@ 005367d8     LIBCMTD:xtows.obj
 0003:0001d818       ??_C@_1CM@HABGDNLJ@?$AAl?$AAe?$AAn?$AAg?$AAt?$AAh?$AA?5?$AA?$DM?$AA?5?$AAs?$AAi?$AAz?$AAe?$AAI?$AAn?$AAT?$AAC?$AAh?$AAa?$AAr?$AAs?$AA?$AA@ 00536818     LIBCMTD:xtows.obj
 0003:0001d84c       ??_C@_1BC@HDEJCFPB@?$AAx?$AA6?$AA4?$AAt?$AAo?$AAw?$AA_?$AAs?$AA?$AA@ 0053684c     LIBCMTD:xtows.obj
 0003:0001d864       ??_C@_1BM@JMKHIAHP@?$AA?$CI?$AAs?$AAt?$AAr?$AA?5?$AA?$CB?$AA?$DN?$AA?5?$AAN?$AAU?$AAL?$AAL?$AA?$CJ?$AA?$AA@ 00536864     LIBCMTD:setvbuf.obj
 0003:0001d888       ??_C@_1FC@NDJMHBOK@?$AAf?$AA?3?$AA?2?$AAd?$AAd?$AA?2?$AAv?$AAc?$AAt?$AAo?$AAo?$AAl?$AAs?$AA?2?$AAc?$AAr?$AAt?$AA?2?$AAc?$AAr?$AAt?$AAw?$AA3?$AA2?$AA?2?$AAs?$AAt?$AAd?$AAi?$AAo?$AA?2?$AAs@ 00536888     LIBCMTD:setvbuf.obj
 0003:0001d8ec       ??_C@_1BA@OGODIODK@?$AAs?$AAe?$AAt?$AAv?$AAb?$AAu?$AAf?$AA?$AA@ 005368ec     LIBCMTD:setvbuf.obj
 0003:0001d900       ??_C@_1HC@CBFEDAGG@?$AA?$CI?$AAt?$AAy?$AAp?$AAe?$AA?5?$AA?$DN?$AA?$DN?$AA?5?$AA_?$AAI?$AAO?$AAN?$AAB?$AAF?$AA?$CJ?$AA?5?$AA?$HM?$AA?$HM?$AA?5?$AA?$CI?$AAt?$AAy?$AAp?$AAe?$AA?5?$AA?$DN?$AA?$DN?$AA?5?$AA_?$AAI?$AAO@ 00536900     LIBCMTD:setvbuf.obj
 0003:0001d988       ??_C@_1EG@IJNJIDNB@?$AA?$CI?$AA?$CI?$AA2?$AA?5?$AA?$DM?$AA?$DN?$AA?5?$AAs?$AAi?$AAz?$AAe?$AA?$CJ?$AA?5?$AA?$CG?$AA?$CG?$AA?5?$AA?$CI?$AAs?$AAi?$AAz?$AAe?$AA?5?$AA?$DM?$AA?$DN?$AA?5?$AAI?$AAN?$AAT?$AA_?$AAM?$AAA?$AAX@ 00536988     LIBCMTD:setvbuf.obj
 0003:0001d9dc       ??_C@_0CJ@IACMAHEB@f?3?2dd?2vctools?2crt?2crtw32?2stdio?2s@ 005369dc     LIBCMTD:setvbuf.obj
 0003:0001da10       ??_C@_1FE@OFLIMJDE@?$AAf?$AA?3?$AA?2?$AAd?$AAd?$AA?2?$AAv?$AAc?$AAt?$AAo?$AAo?$AAl?$AAs?$AA?2?$AAc?$AAr?$AAt?$AA?2?$AAc?$AAr?$AAt?$AAw?$AA3?$AA2?$AA?2?$AAs?$AAt?$AAd?$AAi?$AAo?$AA?2?$AAf@ 00536a10     LIBCMTD:fwprintf.obj
 0003:0001da74       ??_C@_1BC@BHLPNJBO@?$AAf?$AAw?$AAp?$AAr?$AAi?$AAn?$AAt?$AAf?$AA?$AA@ 00536a74     LIBCMTD:fwprintf.obj
 0003:0001da90       ??_C@_1FE@DHCMIOFC@?$AAf?$AA?3?$AA?2?$AAd?$AAd?$AA?2?$AAv?$AAc?$AAt?$AAo?$AAo?$AAl?$AAs?$AA?2?$AAc?$AAr?$AAt?$AA?2?$AAc?$AAr?$AAt?$AAw?$AA3?$AA2?$AA?2?$AAs?$AAt?$AAd?$AAi?$AAo?$AA?2?$AAv@ 00536a90     LIBCMTD:vswprnc.obj
 0003:0001daf4       ??_C@_1CE@IGKFIJFD@?$AA_?$AAv?$AAs?$AAw?$AAp?$AAr?$AAi?$AAn?$AAt?$AAf?$AA_?$AAh?$AAe?$AAl?$AAp?$AAe?$AAr?$AA?$AA@ 00536af4     LIBCMTD:vswprnc.obj
 0003:0001db20       ??_C@_1BO@MLMCMBKN@?$AAf?$AAo?$AAr?$AAm?$AAa?$AAt?$AA?5?$AA?$CB?$AA?$DN?$AA?5?$AAN?$AAU?$AAL?$AAL?$AA?$AA@ 00536b20     LIBCMTD:vswprnc.obj
 0003:0001db44       ??_C@_1BO@OALHJLCI@?$AA_?$AAv?$AAs?$AAw?$AAp?$AAr?$AAi?$AAn?$AAt?$AAf?$AA_?$AAs?$AA_?$AAl?$AA?$AA@ 00536b44     LIBCMTD:vswprnc.obj
 0003:0001db68       ??_C@_1EE@MPCHJFGP@?$AAs?$AAt?$AAr?$AAi?$AAn?$AAg?$AA?5?$AA?$CB?$AA?$DN?$AA?5?$AAN?$AAU?$AAL?$AAL?$AA?5?$AA?$CG?$AA?$CG?$AA?5?$AAs?$AAi?$AAz?$AAe?$AAI?$AAn?$AAW?$AAo?$AAr?$AAd?$AAs?$AA?5?$AA?$DO?$AA?5@ 00536b68     LIBCMTD:vswprnc.obj
 0003:0001dbbc       ??_C@_1DA@HPBFKMEB@?$AA?$CI?$AA?$CC?$AAB?$AAu?$AAf?$AAf?$AAe?$AAr?$AA?5?$AAt?$AAo?$AAo?$AA?5?$AAs?$AAm?$AAa?$AAl?$AAl?$AA?$CC?$AA?0?$AA?5?$AA0?$AA?$CJ?$AA?$AA@ 00536bbc     LIBCMTD:vswprnc.obj
 0003:0001dbf8       ??_C@_1CA@BKFKMJFF@?$AA_?$AAv?$AAs?$AAn?$AAw?$AAp?$AAr?$AAi?$AAn?$AAt?$AAf?$AA_?$AAs?$AA_?$AAl?$AA?$AA@ 00536bf8     LIBCMTD:vswprnc.obj
 0003:0001dc20       ??_C@_0CH@KINPIPGE@f?3?2dd?2vctools?2crt?2crtw32?2misc?2wi@ 00536c20     LIBCMTD:winsig.obj
 0003:0001dc50       ??_C@_1DO@MLNEDKGB@?$AA?$CI?$AA?$CC?$AAI?$AAn?$AAv?$AAa?$AAl?$AAi?$AAd?$AA?5?$AAs?$AAi?$AAg?$AAn?$AAa?$AAl?$AA?5?$AAo?$AAr?$AA?5?$AAe?$AAr?$AAr?$AAo?$AAr?$AA?$CC?$AA?0?$AA?5?$AA0?$AA?$CJ?$AA?$AA@ 00536c50     LIBCMTD:winsig.obj
 0003:0001dca0       ??_C@_1EO@BCKLPCCI@?$AAf?$AA?3?$AA?2?$AAd?$AAd?$AA?2?$AAv?$AAc?$AAt?$AAo?$AAo?$AAl?$AAs?$AA?2?$AAc?$AAr?$AAt?$AA?2?$AAc?$AAr?$AAt?$AAw?$AA3?$AA2?$AA?2?$AAm?$AAi?$AAs?$AAc?$AA?2?$AAw?$AAi@ 00536ca0     LIBCMTD:winsig.obj
 0003:0001dd00       ??_C@_1O@EJLDHPPL@?$AAs?$AAi?$AAg?$AAn?$AAa?$AAl?$AA?$AA@ 00536d00     LIBCMTD:winsig.obj
 0003:0001dd10       ??_C@_1M@DMJEIKHL@?$AAr?$AAa?$AAi?$AAs?$AAe?$AA?$AA@ 00536d10     LIBCMTD:winsig.obj
 0003:0001dd20       ??_C@_1BG@GOEBHBDC@?$AAU?$AAS?$AAE?$AAR?$AA3?$AA2?$AA?4?$AAD?$AAL?$AAL?$AA?$AA@ 00536d20     LIBCMTD:crtmboxw.obj
 0003:0001dd3c       ??_C@_0M@DLDCCGNP@MessageBoxW?$AA@ 00536d3c     LIBCMTD:crtmboxw.obj
 0003:0001dd4c       ??_C@_0BA@HNOPNCHB@GetActiveWindow?$AA@ 00536d4c     LIBCMTD:crtmboxw.obj
 0003:0001dd60       ??_C@_0BD@HHGDFDBJ@GetLastActivePopup?$AA@ 00536d60     LIBCMTD:crtmboxw.obj
 0003:0001dd78       ??_C@_0BK@DEKFELLI@GetUserObjectInformationW?$AA@ 00536d78     LIBCMTD:crtmboxw.obj
 0003:0001dd98       ??_C@_0BI@DFKBFLJE@GetProcessWindowStation?$AA@ 00536d98     LIBCMTD:crtmboxw.obj
 0003:0001de98       ??_C@_1FK@PGACCAFB@?$AAR?$AA6?$AA0?$AA0?$AA2?$AA?$AN?$AA?6?$AA?9?$AA?5?$AAf?$AAl?$AAo?$AAa?$AAt?$AAi?$AAn?$AAg?$AA?5?$AAp?$AAo?$AAi?$AAn?$AAt?$AA?5?$AAs?$AAu?$AAp?$AAp?$AAo?$AAr?$AAt?$AA?5@ 00536e98     LIBCMTD:crt0msg.obj
 0003:0001df08       ??_C@_1FE@LLNEDJMD@?$AAR?$AA6?$AA0?$AA0?$AA8?$AA?$AN?$AA?6?$AA?9?$AA?5?$AAn?$AAo?$AAt?$AA?5?$AAe?$AAn?$AAo?$AAu?$AAg?$AAh?$AA?5?$AAs?$AAp?$AAa?$AAc?$AAe?$AA?5?$AAf?$AAo?$AAr?$AA?5?$AAa?$AAr@ 00536f08     LIBCMTD:crt0msg.obj
 0003:0001df70       ??_C@_1FI@HONFMGBI@?$AAR?$AA6?$AA0?$AA0?$AA9?$AA?$AN?$AA?6?$AA?9?$AA?5?$AAn?$AAo?$AAt?$AA?5?$AAe?$AAn?$AAo?$AAu?$AAg?$AAh?$AA?5?$AAs?$AAp?$AAa?$AAc?$AAe?$AA?5?$AAf?$AAo?$AAr?$AA?5?$AAe?$AAn@ 00536f70     LIBCMTD:crt0msg.obj
 0003:0001dfe0       ??_C@_1EG@BEHAGFJD@?$AAR?$AA6?$AA0?$AA1?$AA0?$AA?$AN?$AA?6?$AA?9?$AA?5?$AAa?$AAb?$AAo?$AAr?$AAt?$AA?$CI?$AA?$CJ?$AA?5?$AAh?$AAa?$AAs?$AA?5?$AAb?$AAe?$AAe?$AAn?$AA?5?$AAc?$AAa?$AAl?$AAl?$AAe?$AAd@ 00536fe0     LIBCMTD:crt0msg.obj
 0003:0001e038       ??_C@_1FI@LOGNIKDM@?$AAR?$AA6?$AA0?$AA1?$AA6?$AA?$AN?$AA?6?$AA?9?$AA?5?$AAn?$AAo?$AAt?$AA?5?$AAe?$AAn?$AAo?$AAu?$AAg?$AAh?$AA?5?$AAs?$AAp?$AAa?$AAc?$AAe?$AA?5?$AAf?$AAo?$AAr?$AA?5?$AAt?$AAh@ 00537038     LIBCMTD:crt0msg.obj
 0003:0001e0a8       ??_C@_1FK@BEOGODMC@?$AAR?$AA6?$AA0?$AA1?$AA7?$AA?$AN?$AA?6?$AA?9?$AA?5?$AAu?$AAn?$AAe?$AAx?$AAp?$AAe?$AAc?$AAt?$AAe?$AAd?$AA?5?$AAm?$AAu?$AAl?$AAt?$AAi?$AAt?$AAh?$AAr?$AAe?$AAa?$AAd?$AA?5@ 005370a8     LIBCMTD:crt0msg.obj
 0003:0001e118       ??_C@_1EC@JIBHAOPH@?$AAR?$AA6?$AA0?$AA1?$AA8?$AA?$AN?$AA?6?$AA?9?$AA?5?$AAu?$AAn?$AAe?$AAx?$AAp?$AAe?$AAc?$AAt?$AAe?$AAd?$AA?5?$AAh?$AAe?$AAa?$AAp?$AA?5?$AAe?$AAr?$AAr?$AAo?$AAr?$AA?$AN?$AA?6@ 00537118     LIBCMTD:crt0msg.obj
 0003:0001e168       ??_C@_1FC@ECHBIFBC@?$AAR?$AA6?$AA0?$AA1?$AA9?$AA?$AN?$AA?6?$AA?9?$AA?5?$AAu?$AAn?$AAa?$AAb?$AAl?$AAe?$AA?5?$AAt?$AAo?$AA?5?$AAo?$AAp?$AAe?$AAn?$AA?5?$AAc?$AAo?$AAn?$AAs?$AAo?$AAl?$AAe?$AA?5@ 00537168     LIBCMTD:crt0msg.obj
 0003:0001e1d0       ??_C@_1GK@FHCKBEFA@?$AAR?$AA6?$AA0?$AA2?$AA4?$AA?$AN?$AA?6?$AA?9?$AA?5?$AAn?$AAo?$AAt?$AA?5?$AAe?$AAn?$AAo?$AAu?$AAg?$AAh?$AA?5?$AAs?$AAp?$AAa?$AAc?$AAe?$AA?5?$AAf?$AAo?$AAr?$AA?5?$AA_?$AAo@ 005371d0     LIBCMTD:crt0msg.obj
 0003:0001e250       ??_C@_1EM@MAADIHMB@?$AAR?$AA6?$AA0?$AA2?$AA5?$AA?$AN?$AA?6?$AA?9?$AA?5?$AAp?$AAu?$AAr?$AAe?$AA?5?$AAv?$AAi?$AAr?$AAt?$AAu?$AAa?$AAl?$AA?5?$AAf?$AAu?$AAn?$AAc?$AAt?$AAi?$AAo?$AAn?$AA?5?$AAc@ 00537250     LIBCMTD:crt0msg.obj
 0003:0001e2b0       ??_C@_1GK@MCAAGJMO@?$AAR?$AA6?$AA0?$AA2?$AA6?$AA?$AN?$AA?6?$AA?9?$AA?5?$AAn?$AAo?$AAt?$AA?5?$AAe?$AAn?$AAo?$AAu?$AAg?$AAh?$AA?5?$AAs?$AAp?$AAa?$AAc?$AAe?$AA?5?$AAf?$AAo?$AAr?$AA?5?$AAs?$AAt@ 005372b0     LIBCMTD:crt0msg.obj
 0003:0001e330       ??_C@_1GK@MFGOKLAG@?$AAR?$AA6?$AA0?$AA2?$AA7?$AA?$AN?$AA?6?$AA?9?$AA?5?$AAn?$AAo?$AAt?$AA?5?$AAe?$AAn?$AAo?$AAu?$AAg?$AAh?$AA?5?$AAs?$AAp?$AAa?$AAc?$AAe?$AA?5?$AAf?$AAo?$AAr?$AA?5?$AAl?$AAo@ 00537330     LIBCMTD:crt0msg.obj
 0003:0001e3b0       ??_C@_1EK@HHFLMAOL@?$AAR?$AA6?$AA0?$AA2?$AA8?$AA?$AN?$AA?6?$AA?9?$AA?5?$AAu?$AAn?$AAa?$AAb?$AAl?$AAe?$AA?5?$AAt?$AAo?$AA?5?$AAi?$AAn?$AAi?$AAt?$AAi?$AAa?$AAl?$AAi?$AAz?$AAe?$AA?5?$AAh?$AAe@ 005373b0     LIBCMTD:crt0msg.obj
 0003:0001e408       ??_C@_1DO@BMFCDCD@?$AAR?$AA6?$AA0?$AA3?$AA0?$AA?$AN?$AA?6?$AA?9?$AA?5?$AAC?$AAR?$AAT?$AA?5?$AAn?$AAo?$AAt?$AA?5?$AAi?$AAn?$AAi?$AAt?$AAi?$AAa?$AAl?$AAi?$AAz?$AAe?$AAd?$AA?$AN?$AA?6?$AA?$AA@ 00537408     LIBCMTD:crt0msg.obj
 0003:0001e458       ??_C@_1MG@ENCOOIDF@?$AAR?$AA6?$AA0?$AA3?$AA1?$AA?$AN?$AA?6?$AA?9?$AA?5?$AAA?$AAt?$AAt?$AAe?$AAm?$AAp?$AAt?$AA?5?$AAt?$AAo?$AA?5?$AAi?$AAn?$AAi?$AAt?$AAi?$AAa?$AAl?$AAi?$AAz?$AAe?$AA?5?$AAt@ 00537458     LIBCMTD:crt0msg.obj
 0003:0001e548       ??_C@_1GG@GOPILAJP@?$AAR?$AA6?$AA0?$AA3?$AA2?$AA?$AN?$AA?6?$AA?9?$AA?5?$AAn?$AAo?$AAt?$AA?5?$AAe?$AAn?$AAo?$AAu?$AAg?$AAh?$AA?5?$AAs?$AAp?$AAa?$AAc?$AAe?$AA?5?$AAf?$AAo?$AAr?$AA?5?$AAl?$AAo@ 00537548     LIBCMTD:crt0msg.obj
 0003:0001e5c8       ??_C@_1BOO@KGEDBGAJ@?$AAR?$AA6?$AA0?$AA3?$AA3?$AA?$AN?$AA?6?$AA?9?$AA?5?$AAA?$AAt?$AAt?$AAe?$AAm?$AAp?$AAt?$AA?5?$AAt?$AAo?$AA?5?$AAu?$AAs?$AAe?$AA?5?$AAM?$AAS?$AAI?$AAL?$AA?5?$AAc?$AAo?$AAd@ 005375c8     LIBCMTD:crt0msg.obj
 0003:0001e818       ??_C@_1GG@MKFPEKFO@?$AAR?$AA6?$AA0?$AA3?$AA4?$AA?$AN?$AA?6?$AA?9?$AA?5?$AAi?$AAn?$AAc?$AAo?$AAn?$AAs?$AAi?$AAs?$AAt?$AAe?$AAn?$AAt?$AA?5?$AAo?$AAn?$AAe?$AAx?$AAi?$AAt?$AA?5?$AAb?$AAe?$AAg@ 00537818     LIBCMTD:crt0msg.obj
 0003:0001e894       ??_C@_1BO@BFCDCGC@?$AAD?$AAO?$AAM?$AAA?$AAI?$AAN?$AA?5?$AAe?$AAr?$AAr?$AAo?$AAr?$AA?$AN?$AA?6?$AA?$AA@ 00537894     LIBCMTD:crt0msg.obj
 0003:0001e8b8       ??_C@_1BK@KMOMNAAI@?$AAS?$AAI?$AAN?$AAG?$AA?5?$AAe?$AAr?$AAr?$AAo?$AAr?$AA?$AN?$AA?6?$AA?$AA@ 005378b8     LIBCMTD:crt0msg.obj
 0003:0001e8d8       ??_C@_1BM@JBBEPPHI@?$AAT?$AAL?$AAO?$AAS?$AAS?$AA?5?$AAe?$AAr?$AAr?$AAo?$AAr?$AA?$AN?$AA?6?$AA?$AA@ 005378d8     LIBCMTD:crt0msg.obj
 0003:0001e8fc       ??_C@_15JNBOKNOG@?$AA?$AN?$AA?6?$AA?$AA@ 005378fc     LIBCMTD:crt0msg.obj
 0003:0001e904       ??_C@_1BO@BKOMIGKJ@?$AAr?$AAu?$AAn?$AAt?$AAi?$AAm?$AAe?$AA?5?$AAe?$AAr?$AAr?$AAo?$AAr?$AA?5?$AA?$AA@ 00537904     LIBCMTD:crt0msg.obj
 0003:0001e928       ??_C@_1FG@ILOHEEMG@?$AAf?$AA?3?$AA?2?$AAd?$AAd?$AA?2?$AAv?$AAc?$AAt?$AAo?$AAo?$AAl?$AAs?$AA?2?$AAc?$AAr?$AAt?$AA?2?$AAc?$AAr?$AAt?$AAw?$AA3?$AA2?$AA?2?$AAs?$AAt?$AAa?$AAr?$AAt?$AAu?$AAp@ 00537928     LIBCMTD:crt0msg.obj
 0003:0001e990       ??_C@_1BI@EAHMBMEC@?$AA_?$AAN?$AAM?$AAS?$AAG?$AA_?$AAW?$AAR?$AAI?$AAT?$AAE?$AA?$AA@ 00537990     LIBCMTD:crt0msg.obj
 0003:0001e9b0       ??_C@_1KO@BKLCKNFL@?$AAw?$AAc?$AAs?$AAc?$AAp?$AAy?$AA_?$AAs?$AA?$CI?$AAo?$AAu?$AAt?$AAm?$AAs?$AAg?$AA?0?$AA?5?$AA?$CI?$AAs?$AAi?$AAz?$AAe?$AAo?$AAf?$AA?$CI?$AAo?$AAu?$AAt?$AAm?$AAs?$AAg?$AA?$CJ@ 005379b0     LIBCMTD:crt0msg.obj
 0003:0001ea80       ??_C@_1DE@JNGNBFGO@?$AAR?$AAu?$AAn?$AAt?$AAi?$AAm?$AAe?$AA?5?$AAE?$AAr?$AAr?$AAo?$AAr?$AA?$CB?$AA?6?$AA?6?$AAP?$AAr?$AAo?$AAg?$AAr?$AAa?$AAm?$AA?3?$AA?5?$AA?$AA@ 00537a80     LIBCMTD:crt0msg.obj
 0003:0001eac0       ??_C@_1HK@FJJNAABO@?$AAw?$AAc?$AAs?$AAc?$AAp?$AAy?$AA_?$AAs?$AA?$CI?$AAp?$AAr?$AAo?$AAg?$AAn?$AAa?$AAm?$AAe?$AA?0?$AA?5?$AAp?$AAr?$AAo?$AAg?$AAn?$AAa?$AAm?$AAe?$AA_?$AAs?$AAi?$AAz?$AAe@ 00537ac0     LIBCMTD:crt0msg.obj
 0003:0001eb58       ??_C@_1HI@FLHKGEBE@?$AAw?$AAc?$AAs?$AAn?$AAc?$AAp?$AAy?$AA_?$AAs?$AA?$CI?$AAp?$AAc?$AAh?$AA?0?$AA?5?$AAp?$AAr?$AAo?$AAg?$AAn?$AAa?$AAm?$AAe?$AA_?$AAs?$AAi?$AAz?$AAe?$AA?5?$AA?9?$AA?5?$AA?$CI@ 00537b58     LIBCMTD:crt0msg.obj
 0003:0001ebe8       ??_C@_1IA@DCJGKHFO@?$AAw?$AAc?$AAs?$AAc?$AAa?$AAt?$AA_?$AAs?$AA?$CI?$AAo?$AAu?$AAt?$AAm?$AAs?$AAg?$AA?0?$AA?5?$AA?$CI?$AAs?$AAi?$AAz?$AAe?$AAo?$AAf?$AA?$CI?$AAo?$AAu?$AAt?$AAm?$AAs?$AAg?$AA?$CJ@ 00537be8     LIBCMTD:crt0msg.obj
 0003:0001ec88       ??_C@_1IG@NMONDPP@?$AAw?$AAc?$AAs?$AAc?$AAa?$AAt?$AA_?$AAs?$AA?$CI?$AAo?$AAu?$AAt?$AAm?$AAs?$AAg?$AA?0?$AA?5?$AA?$CI?$AAs?$AAi?$AAz?$AAe?$AAo?$AAf?$AA?$CI?$AAo?$AAu?$AAt?$AAm?$AAs?$AAg?$AA?$CJ@ 00537c88     LIBCMTD:crt0msg.obj
 0003:0001ed28       __XcptActTab               00537d28     LIBCMTD:winxfltr.obj
 0003:0001edb8       __XcptActTabCount          00537db8     LIBCMTD:winxfltr.obj
 0003:0001edbc       __XcptActTabSize           00537dbc     LIBCMTD:winxfltr.obj
 0003:0001edc0       __First_FPE_Indx           00537dc0     LIBCMTD:winxfltr.obj
 0003:0001edc4       __Num_FPE                  00537dc4     LIBCMTD:winxfltr.obj
 0003:0001ede8       ??_C@_1BC@DENNNKIM@?$AA_?$AAc?$AAr?$AAt?$AAh?$AAe?$AAa?$AAp?$AA?$AA@ 00537de8     LIBCMTD:heapinit.obj
 0003:0001ee00       ??_C@_1FC@JOHAHJGP@?$AAf?$AA?3?$AA?2?$AAd?$AAd?$AA?2?$AAv?$AAc?$AAt?$AAo?$AAo?$AAl?$AAs?$AA?2?$AAc?$AAr?$AAt?$AA?2?$AAc?$AAr?$AAt?$AAw?$AA3?$AA2?$AA?2?$AAh?$AAe?$AAa?$AAp?$AA?2?$AAh?$AAe@ 00537e00     LIBCMTD:heapinit.obj
 0003:0001ee64       ??_C@_0CL@OBKFGCKK@f?3?2dd?2vctools?2crt?2crtw32?2startup@ 00537e64     LIBCMTD:stdargv.obj
 0003:0001ee98       ??_C@_0CL@BJBFGFLH@f?3?2dd?2vctools?2crt?2crtw32?2startup@ 00537e98     LIBCMTD:stdenvp.obj
 0003:0001eed0       ??_C@_1FG@MHBLOJIO@?$AAf?$AA?3?$AA?2?$AAd?$AAd?$AA?2?$AAv?$AAc?$AAt?$AAo?$AAo?$AAl?$AAs?$AA?2?$AAc?$AAr?$AAt?$AA?2?$AAc?$AAr?$AAt?$AAw?$AA3?$AA2?$AA?2?$AAs?$AAt?$AAa?$AAr?$AAt?$AAu?$AAp@ 00537ed0     LIBCMTD:stdenvp.obj
 0003:0001ef38       ??_C@_1BC@GHMCNHHL@?$AA_?$AAs?$AAe?$AAt?$AAe?$AAn?$AAv?$AAp?$AA?$AA@ 00537f38     LIBCMTD:stdenvp.obj
 0003:0001ef50       ??_C@_1DE@MMOGFGHF@?$AAs?$AAt?$AAr?$AAc?$AAp?$AAy?$AA_?$AAs?$AA?$CI?$AA?$CK?$AAe?$AAn?$AAv?$AA?0?$AA?5?$AAc?$AAc?$AAh?$AAa?$AAr?$AAs?$AA?0?$AA?5?$AAp?$AA?$CJ?$AA?$AA@ 00537f50     LIBCMTD:stdenvp.obj
 0003:0001ef90       ??_C@_0CG@NNNNMKLF@f?3?2dd?2vctools?2crt?2crtw32?2misc?2a_@ 00537f90     LIBCMTD:a_env.obj
 0003:0001efc0       ??_C@_1BI@IGILPKD@?$AA_?$AAv?$AAs?$AAp?$AAr?$AAi?$AAn?$AAt?$AAf?$AA_?$AAl?$AA?$AA@ 00537fc0     LIBCMTD:vsprintf.obj
 0003:0001efdc       ??_C@_1CE@HMKDJHB@?$AA_?$AAv?$AAs?$AAc?$AAp?$AAr?$AAi?$AAn?$AAt?$AAf?$AA_?$AAh?$AAe?$AAl?$AAp?$AAe?$AAr?$AA?$AA@ 00537fdc     LIBCMTD:vsprintf.obj
 0003:0001f008       ??_C@_1CE@PCFPEIFI@?$AA_?$AAv?$AAs?$AAn?$AAp?$AAr?$AAi?$AAn?$AAt?$AAf?$AA_?$AAh?$AAe?$AAl?$AAp?$AAe?$AAr?$AA?$AA@ 00538008     LIBCMTD:vsnprnc.obj
 0003:0001f034       ??_C@_1BM@BLJALHEF@?$AA_?$AAv?$AAs?$AAp?$AAr?$AAi?$AAn?$AAt?$AAf?$AA_?$AAs?$AA_?$AAl?$AA?$AA@ 00538034     LIBCMTD:vsnprnc.obj
 0003:0001f058       ??_C@_1EE@OKCKIGFK@?$AAs?$AAt?$AAr?$AAi?$AAn?$AAg?$AA?5?$AA?$CB?$AA?$DN?$AA?5?$AAN?$AAU?$AAL?$AAL?$AA?5?$AA?$CG?$AA?$CG?$AA?5?$AAs?$AAi?$AAz?$AAe?$AAI?$AAn?$AAB?$AAy?$AAt?$AAe?$AAs?$AA?5?$AA?$DO?$AA?5@ 00538058     LIBCMTD:vsnprnc.obj
 0003:0001f0ac       ??_C@_1BO@MMPELNIM@?$AA_?$AAv?$AAs?$AAn?$AAp?$AAr?$AAi?$AAn?$AAt?$AAf?$AA_?$AAs?$AA_?$AAl?$AA?$AA@ 005380ac     LIBCMTD:vsnprnc.obj
 0003:0001f0d0       ??_C@_1BK@MGMFAEKH@?$AAk?$AAe?$AAr?$AAn?$AAe?$AAl?$AA3?$AA2?$AA?4?$AAd?$AAl?$AAl?$AA?$AA@ 005380d0     LIBCMTD:winapisupp.obj
 0003:0001f0f0       ??_C@_08KNHFBNJ@FlsAlloc?$AA@ 005380f0     LIBCMTD:winapisupp.obj
 0003:0001f0fc       ??_C@_07PEJMOBNF@FlsFree?$AA@ 005380fc     LIBCMTD:winapisupp.obj
 0003:0001f108       ??_C@_0M@GDNOONDI@FlsGetValue?$AA@ 00538108     LIBCMTD:winapisupp.obj
 0003:0001f118       ??_C@_0M@JCPCPOEF@FlsSetValue?$AA@ 00538118     LIBCMTD:winapisupp.obj
 0003:0001f128       ??_C@_0BM@HCFOFFN@InitializeCriticalSectionEx?$AA@ 00538128     LIBCMTD:winapisupp.obj
 0003:0001f14c       ??_C@_0P@DLHPPCNH@CreateEventExW?$AA@ 0053814c     LIBCMTD:winapisupp.obj
 0003:0001f160       ??_C@_0BD@KIEEOEEH@CreateSemaphoreExW?$AA@ 00538160     LIBCMTD:winapisupp.obj
 0003:0001f178       ??_C@_0BI@BKLFFAPO@SetThreadStackGuarantee?$AA@ 00538178     LIBCMTD:winapisupp.obj
 0003:0001f194       ??_C@_0BG@OGFAJCKC@CreateThreadpoolTimer?$AA@ 00538194     LIBCMTD:winapisupp.obj
 0003:0001f1b0       ??_C@_0BD@LPLEMMDI@SetThreadpoolTimer?$AA@ 005381b0     LIBCMTD:winapisupp.obj
 0003:0001f1c8       ??_C@_0CA@FMNJENH@WaitForThreadpoolTimerCallbacks?$AA@ 005381c8     LIBCMTD:winapisupp.obj
 0003:0001f1f0       ??_C@_0BF@DCFCCNOC@CloseThreadpoolTimer?$AA@ 005381f0     LIBCMTD:winapisupp.obj
 0003:0001f20c       ??_C@_0BF@FLABGKKM@CreateThreadpoolWait?$AA@ 0053820c     LIBCMTD:winapisupp.obj
 0003:0001f228       ??_C@_0BC@MGCOHNA@SetThreadpoolWait?$AA@ 00538228     LIBCMTD:winapisupp.obj
 0003:0001f240       ??_C@_0BE@OCIOMIMP@CloseThreadpoolWait?$AA@ 00538240     LIBCMTD:winapisupp.obj
 0003:0001f258       ??_C@_0BJ@LKGHFHBO@FlushProcessWriteBuffers?$AA@ 00538258     LIBCMTD:winapisupp.obj
 0003:0001f278       ??_C@_0BP@KALKKPMO@FreeLibraryWhenCallbackReturns?$AA@ 00538278     LIBCMTD:winapisupp.obj
 0003:0001f2a0       ??_C@_0BK@DFNBACLA@GetCurrentProcessorNumber?$AA@ 005382a0     LIBCMTD:winapisupp.obj
 0003:0001f2c0       ??_C@_0BP@KHGALBC@GetLogicalProcessorInformation?$AA@ 005382c0     LIBCMTD:winapisupp.obj
 0003:0001f2e8       ??_C@_0BE@FKKLLFLM@CreateSymbolicLinkW?$AA@ 005382e8     LIBCMTD:winapisupp.obj
 0003:0001f300       ??_C@_0BJ@OHNKDLIJ@SetDefaultDllDirectories?$AA@ 00538300     LIBCMTD:winapisupp.obj
 0003:0001f320       ??_C@_0BE@LJANKFHF@EnumSystemLocalesEx?$AA@ 00538320     LIBCMTD:winapisupp.obj
 0003:0001f338       ??_C@_0BA@IHGNDAEB@CompareStringEx?$AA@ 00538338     LIBCMTD:winapisupp.obj
 0003:0001f34c       ??_C@_0BA@EPCJIIPD@GetDateFormatEx?$AA@ 0053834c     LIBCMTD:winapisupp.obj
 0003:0001f360       ??_C@_0BA@ONOKGCMP@GetLocaleInfoEx?$AA@ 00538360     LIBCMTD:winapisupp.obj
 0003:0001f374       ??_C@_0BA@CIJJKCJJ@GetTimeFormatEx?$AA@ 00538374     LIBCMTD:winapisupp.obj
 0003:0001f388       ??_C@_0BJ@PBCCBIPI@GetUserDefaultLocaleName?$AA@ 00538388     LIBCMTD:winapisupp.obj
 0003:0001f3a8       ??_C@_0BC@CELBKLLA@IsValidLocaleName?$AA@ 005383a8     LIBCMTD:winapisupp.obj
 0003:0001f3c0       ??_C@_0O@KKBNKAPF@LCMapStringEx?$AA@ 005383c0     LIBCMTD:winapisupp.obj
 0003:0001f3d0       ??_C@_0BE@JOGNEJCI@GetCurrentPackageId?$AA@ 005383d0     LIBCMTD:winapisupp.obj
 0003:0001f3e8       ??_C@_0P@CDHHOHKP@GetTickCount64?$AA@ 005383e8     LIBCMTD:winapisupp.obj
 0003:0001f3fc       ??_C@_0BO@KPCLFDJJ@GetFileInformationByHandleExW?$AA@ 005383fc     LIBCMTD:winapisupp.obj
 0003:0001f420       ??_C@_0BM@MHIDLABK@SetFileInformationByHandleW?$AA@ 00538420     LIBCMTD:winapisupp.obj
 0003:0001f448       ??_C@_1FE@JDMNKKN@?$AAf?$AA?3?$AA?2?$AAd?$AAd?$AA?2?$AAv?$AAc?$AAt?$AAo?$AAo?$AAl?$AAs?$AA?2?$AAc?$AAr?$AAt?$AA?2?$AAc?$AAr?$AAt?$AAw?$AA3?$AA2?$AA?2?$AAc?$AAo?$AAn?$AAv?$AAe?$AAr?$AAt@ 00538448     LIBCMTD:strtoq.obj
 0003:0001f4ac       ??_C@_1BA@BMMDEPNE@?$AAs?$AAt?$AAr?$AAt?$AAo?$AAx?$AAq?$AA?$AA@ 005384ac     LIBCMTD:strtoq.obj
 0003:0001f4c0       ??_C@_1EG@OHONNKNN@?$AAf?$AA?3?$AA?2?$AAd?$AAd?$AA?2?$AAv?$AAc?$AAt?$AAo?$AAo?$AAl?$AAs?$AA?2?$AAc?$AAr?$AAt?$AA?2?$AAf?$AAp?$AAw?$AA3?$AA2?$AA?2?$AAc?$AAo?$AAn?$AAv?$AA?2?$AAc?$AAv?$AAt@ 005384c0     LIBCMTD:cvt.obj
 0003:0001f514       ??_C@_1BE@OLBNEILL@?$AA_?$AAc?$AAf?$AAt?$AAo?$AAe?$AA2?$AA_?$AAl?$AA?$AA@ 00538514     LIBCMTD:cvt.obj
 0003:0001f52c       ??_C@_1CA@CBMNPEO@?$AAs?$AAi?$AAz?$AAe?$AAI?$AAn?$AAB?$AAy?$AAt?$AAe?$AAs?$AA?5?$AA?$DO?$AA?5?$AA0?$AA?$AA@ 0053852c     LIBCMTD:cvt.obj
 0003:0001f558       ??_C@_1HE@NACBNDPP@?$AAs?$AAi?$AAz?$AAe?$AAI?$AAn?$AAB?$AAy?$AAt?$AAe?$AAs?$AA?5?$AA?$DO?$AA?5?$AA?$CI?$AAs?$AAi?$AAz?$AAe?$AA_?$AAt?$AA?$CJ?$AA?$CI?$AA3?$AA?5?$AA?$CL?$AA?5?$AA?$CI?$AAn?$AAd?$AAe?$AAc@ 00538558     LIBCMTD:cvt.obj
 0003:0001f5e8       ??_C@_1LE@EOIFGNCJ@?$AAs?$AAt?$AAr?$AAc?$AAp?$AAy?$AA_?$AAs?$AA?$CI?$AAp?$AA?0?$AA?5?$AA?$CI?$AAs?$AAi?$AAz?$AAe?$AAI?$AAn?$AAB?$AAy?$AAt?$AAe?$AAs?$AA?5?$AA?$DN?$AA?$DN?$AA?5?$AA?$CI?$AAs?$AAi?$AAz@ 005385e8     LIBCMTD:cvt.obj
 0003:0001f6c0       ??_C@_05KLBDPFGC@e?$CL000?$AA@ 005386c0     LIBCMTD:cvt.obj
 0003:0001f6c8       ??_C@_1BC@INKAPMHI@?$AA_?$AAc?$AAf?$AAt?$AAo?$AAe?$AA_?$AAl?$AA?$AA@ 005386c8     LIBCMTD:cvt.obj
 0003:0001f6e0       ??_C@_1BC@JOKPCIC@?$AA_?$AAc?$AAf?$AAt?$AAo?$AAa?$AA_?$AAl?$AA?$AA@ 005386e0     LIBCMTD:cvt.obj
 0003:0001f6f8       ??_C@_1FC@IKIMAMJB@?$AAs?$AAi?$AAz?$AAe?$AAI?$AAn?$AAB?$AAy?$AAt?$AAe?$AAs?$AA?5?$AA?$DO?$AA?5?$AA?$CI?$AAs?$AAi?$AAz?$AAe?$AA_?$AAt?$AA?$CJ?$AA?$CI?$AA1?$AA?5?$AA?$CL?$AA?5?$AA4?$AA?5?$AA?$CL?$AA?5?$AAn@ 005386f8     LIBCMTD:cvt.obj
 0003:0001f75c       ??_C@_1BE@CKPDLI@?$AA_?$AAc?$AAf?$AAt?$AAo?$AAf?$AA2?$AA_?$AAl?$AA?$AA@ 0053875c     LIBCMTD:cvt.obj
 0003:0001f774       ??_C@_1BC@DCPPLJL@?$AA_?$AAc?$AAf?$AAt?$AAo?$AAf?$AA_?$AAl?$AA?$AA@ 00538774     LIBCMTD:cvt.obj
 0003:0001f78c       ??_C@_1BC@MPIFPLAF@?$AA_?$AAc?$AAf?$AAt?$AAo?$AAg?$AA_?$AAl?$AA?$AA@ 0053878c     LIBCMTD:cvt.obj
 0003:0001f7a8       ??_C@_1FI@JJOJLGLE@?$AAf?$AA?3?$AA?2?$AAd?$AAd?$AA?2?$AAv?$AAc?$AAt?$AAo?$AAo?$AAl?$AAs?$AA?2?$AAc?$AAr?$AAt?$AA?2?$AAc?$AAr?$AAt?$AAw?$AA3?$AA2?$AA?2?$AAs?$AAt?$AAa?$AAr?$AAt?$AAu?$AAp@ 005387a8     LIBCMTD:fp8.obj
 0003:0001f814       ??_C@_1CK@JMKHCBEI@?$AA_?$AAs?$AAe?$AAt?$AAd?$AAe?$AAf?$AAa?$AAu?$AAl?$AAt?$AAp?$AAr?$AAe?$AAc?$AAi?$AAs?$AAi?$AAo?$AAn?$AA?$AA@ 00538814     LIBCMTD:fp8.obj
 0003:0001f848       ??_C@_1GE@KOCFNGPB@?$AA_?$AAc?$AAo?$AAn?$AAt?$AAr?$AAo?$AAl?$AAf?$AAp?$AA_?$AAs?$AA?$CI?$AA?$CI?$AA?$CI?$AAv?$AAo?$AAi?$AAd?$AA?5?$AA?$CK?$AA?$CJ?$AA0?$AA?$CJ?$AA?0?$AA?5?$AA0?$AAx?$AA0?$AA0?$AA0?$AA1@ 00538848     LIBCMTD:fp8.obj
 0003:00020330       __indefinite               00539330     LIBCMTD:87disp.obj
 0003:0002033a       __piby2                    0053933a     LIBCMTD:87disp.obj
 0003:00020378       __DEFAULT_CW_in_mem        00539378     LIBCMTD:common.obj
 0003:0002037a       __pi_by_2_to_61            0053937a     LIBCMTD:common.obj
 0003:0002040c       ??_C@_03KHJOGHMM@exp?$AA@  0053940c     LIBCMTD:fpexcept.obj
 0003:00020410       ??_C@_03JGHBODFD@pow?$AA@  00539410     LIBCMTD:fpexcept.obj
 0003:00020414       ??_C@_03MGHMBJCF@log?$AA@  00539414     LIBCMTD:fpexcept.obj
 0003:00020418       ??_C@_05HGHHAHAP@log10?$AA@ 00539418     LIBCMTD:fpexcept.obj
 0003:00020420       ??_C@_04COOMCNPB@sinh?$AA@ 00539420     LIBCMTD:fpexcept.obj
 0003:00020428       ??_C@_04HPJJNFIM@cosh?$AA@ 00539428     LIBCMTD:fpexcept.obj
 0003:00020430       ??_C@_04FJHINJAO@tanh?$AA@ 00539430     LIBCMTD:fpexcept.obj
 0003:00020438       ??_C@_04FIHNOPOL@asin?$AA@ 00539438     LIBCMTD:fpexcept.obj
 0003:00020440       ??_C@_04PDIFKINK@acos?$AA@ 00539440     LIBCMTD:fpexcept.obj
 0003:00020448       ??_C@_04MLLJIGOK@atan?$AA@ 00539448     LIBCMTD:fpexcept.obj
 0003:00020450       ??_C@_05KNGEOGJB@atan2?$AA@ 00539450     LIBCMTD:fpexcept.obj
 0003:00020458       ??_C@_04EIAKFFMI@sqrt?$AA@ 00539458     LIBCMTD:fpexcept.obj
 0003:00020460       ??_C@_03BLEJJJBH@sin?$AA@  00539460     LIBCMTD:fpexcept.obj
 0003:00020464       ??_C@_03LALBNOCG@cos?$AA@  00539464     LIBCMTD:fpexcept.obj
 0003:00020468       ??_C@_03IIINPABG@tan?$AA@  00539468     LIBCMTD:fpexcept.obj
 0003:0002046c       ??_C@_04GFPJNGEK@ceil?$AA@ 0053946c     LIBCMTD:fpexcept.obj
 0003:00020474       ??_C@_05PBJFFIGL@floor?$AA@ 00539474     LIBCMTD:fpexcept.obj
 0003:0002047c       ??_C@_04ODHECPBC@fabs?$AA@ 0053947c     LIBCMTD:fpexcept.obj
 0003:00020484       ??_C@_04EHEDPDJG@modf?$AA@ 00539484     LIBCMTD:fpexcept.obj
 0003:0002048c       ??_C@_05CEJMAHNP@ldexp?$AA@ 0053948c     LIBCMTD:fpexcept.obj
 0003:00020494       ??_C@_05KBKMEMPO@_cabs?$AA@ 00539494     LIBCMTD:fpexcept.obj
 0003:0002049c       ??_C@_06MEIMCGCF@_hypot?$AA@ 0053949c     LIBCMTD:fpexcept.obj
 0003:000204a4       ??_C@_04KEPJIHGP@fmod?$AA@ 005394a4     LIBCMTD:fpexcept.obj
 0003:000204ac       ??_C@_05GKKHEGJL@frexp?$AA@ 005394ac     LIBCMTD:fpexcept.obj
 0003:000204b4       ??_C@_03MJLDFKDL@_y0?$AA@  005394b4     LIBCMTD:fpexcept.obj
 0003:000204b8       ??_C@_03NAKIGLHK@_y1?$AA@  005394b8     LIBCMTD:fpexcept.obj
 0003:000204bc       ??_C@_03ONILCKOB@_yn?$AA@  005394bc     LIBCMTD:fpexcept.obj
 0003:000204c0       ??_C@_05JGDBENOH@_logb?$AA@ 005394c0     LIBCMTD:fpexcept.obj
 0003:000204c8       ??_C@_0L@KDOEJCKC@_nextafter?$AA@ 005394c8     LIBCMTD:fpexcept.obj
 0003:00020ae0       __infinity                 00539ae0     LIBCMTD:87tran.obj
 0003:00020aea       __minfinity                00539aea     LIBCMTD:87tran.obj
 0003:00020af4       __logemax                  00539af4     LIBCMTD:87tran.obj
 0003:00020b1a       __OP_EXPjmptab             00539b1a     LIBCMTD:87tran.obj
 0003:00025ad8       __real@4000000000000000    0053ead8     LIBCMTD:powhlp.obj
 0003:00025b64       ??_C@_05EOHGHCHD@exp10?$AA@ 0053eb64     LIBCMTD:libm_error.obj
 0003:0002676c       ??_C@_0CH@JPGODKFM@f?3?2dd?2vctools?2crt?2crtw32?2misc?2on@ 0053f76c     LIBCMTD:onexit.obj
 0003:0002679c       ??_C@_1BC@JLLICHIC@?$AAp?$AAn?$AAh?$AA?5?$AA?$DN?$AA?$DN?$AA?5?$AA0?$AA?$AA@ 0053f79c     LIBCMTD:handler.obj
 0003:000267b8       ??_C@_1FE@HELBPGKC@?$AAf?$AA?3?$AA?2?$AAd?$AAd?$AA?2?$AAv?$AAc?$AAt?$AAo?$AAo?$AAl?$AAs?$AA?2?$AAc?$AAr?$AAt?$AA?2?$AAc?$AAr?$AAt?$AAw?$AA3?$AA2?$AA?2?$AAh?$AAe?$AAa?$AAp?$AA?2?$AAh?$AAa@ 0053f7b8     LIBCMTD:handler.obj
 0003:0002681c       ??_C@_0CJ@PLENACMA@f?3?2dd?2vctools?2crt?2crtw32?2misc?2in@ 0053f81c     LIBCMTD:inithelp.obj
 0003:00026850       ??_C@_1FC@PPCAPEFB@?$AAf?$AA?3?$AA?2?$AAd?$AAd?$AA?2?$AAv?$AAc?$AAt?$AAo?$AAo?$AAl?$AAs?$AA?2?$AAc?$AAr?$AAt?$AA?2?$AAc?$AAr?$AAt?$AAw?$AA3?$AA2?$AA?2?$AAm?$AAi?$AAs?$AAc?$AA?2?$AAi?$AAn@ 0053f850     LIBCMTD:inithelp.obj
 0003:000268b4       ??_C@_1CA@KHHCPEI@?$AA_?$AA_?$AAg?$AAe?$AAt?$AAl?$AAo?$AAc?$AAa?$AAl?$AAe?$AAi?$AAn?$AAf?$AAo?$AA?$AA@ 0053f8b4     LIBCMTD:inithelp.obj
 0003:000268e0       ??_C@_1GO@NGIGJNHH@?$AAs?$AAt?$AAr?$AAn?$AAc?$AAp?$AAy?$AA_?$AAs?$AA?$CI?$AA?$CK?$AAs?$AAt?$AAr?$AAa?$AAd?$AAd?$AAr?$AAe?$AAs?$AAs?$AA?0?$AA?5?$AAo?$AAu?$AAt?$AAs?$AAi?$AAz?$AAe?$AA?0?$AA?5@ 0053f8e0     LIBCMTD:inithelp.obj
 0003:00026964       ??_C@_1CK@GFDNDKK@?$AA_?$AAR?$AAa?$AAn?$AAd?$AAo?$AAm?$AAV?$AAa?$AAl?$AAu?$AAe?$AA?5?$AA?$CB?$AA?$DN?$AA?5?$AAN?$AAU?$AAL?$AAL?$AA?$AA@ 0053f964     LIBCMTD:rand_s.obj
 0003:00026998       ??_C@_1EO@GANOMFFN@?$AAf?$AA?3?$AA?2?$AAd?$AAd?$AA?2?$AAv?$AAc?$AAt?$AAo?$AAo?$AAl?$AAs?$AA?2?$AAc?$AAr?$AAt?$AA?2?$AAc?$AAr?$AAt?$AAw?$AA3?$AA2?$AA?2?$AAm?$AAi?$AAs?$AAc?$AA?2?$AAr?$AAa@ 0053f998     LIBCMTD:rand_s.obj
 0003:000269f8       ??_C@_1O@IJGPPOGF@?$AAr?$AAa?$AAn?$AAd?$AA_?$AAs?$AA?$AA@ 0053f9f8     LIBCMTD:rand_s.obj
 0003:00026a08       ??_C@_1BK@GAEMIDIL@?$AAA?$AAD?$AAV?$AAA?$AAP?$AAI?$AA3?$AA2?$AA?4?$AAD?$AAL?$AAL?$AA?$AA@ 0053fa08     LIBCMTD:rand_s.obj
 0003:00026a28       ??_C@_1GA@EBEDGGGB@?$AA?$CI?$AA?$CC?$AAr?$AAa?$AAn?$AAd?$AA_?$AAs?$AA?5?$AAi?$AAs?$AA?5?$AAn?$AAo?$AAt?$AA?5?$AAa?$AAv?$AAa?$AAi?$AAl?$AAa?$AAb?$AAl?$AAe?$AA?5?$AAo?$AAn?$AA?5?$AAt?$AAh?$AAi@ 0053fa28     LIBCMTD:rand_s.obj
 0003:00026a9c       ??_C@_0BC@JEAENNKH@SystemFunction036?$AA@ 0053fa9c     LIBCMTD:rand_s.obj
 0003:00026ab8       ??_C@_1FA@HHFEGMDA@?$AAf?$AA?3?$AA?2?$AAd?$AAd?$AA?2?$AAv?$AAc?$AAt?$AAo?$AAo?$AAl?$AAs?$AA?2?$AAc?$AAr?$AAt?$AA?2?$AAc?$AAr?$AAt?$AAw?$AA3?$AA2?$AA?2?$AAs?$AAt?$AAd?$AAi?$AAo?$AA?2?$AAf@ 0053fab8     LIBCMTD:fclose.obj
 0003:00026b18       ??_C@_1O@EGMJNCOI@?$AAf?$AAc?$AAl?$AAo?$AAs?$AAe?$AA?$AA@ 0053fb18     LIBCMTD:fclose.obj
 0003:00026b28       ??_C@_1BO@JINCABEC@?$AA_?$AAf?$AAc?$AAl?$AAo?$AAs?$AAe?$AA_?$AAn?$AAo?$AAl?$AAo?$AAc?$AAk?$AA?$AA@ 0053fb28     LIBCMTD:fclose.obj
 0003:00026b50       ??_C@_1HC@KFLBHHBC@?$AA?$CI?$AAf?$AAi?$AAl?$AAe?$AAd?$AAe?$AAs?$AA?5?$AA?$DO?$AA?$DN?$AA?5?$AA0?$AA?5?$AA?$CG?$AA?$CG?$AA?5?$AA?$CI?$AAu?$AAn?$AAs?$AAi?$AAg?$AAn?$AAe?$AAd?$AA?$CJ?$AAf?$AAi?$AAl?$AAe?$AAd@ 0053fb50     LIBCMTD:commit.obj
 0003:00026bd8       ??_C@_1FA@HELGICMG@?$AAf?$AA?3?$AA?2?$AAd?$AAd?$AA?2?$AAv?$AAc?$AAt?$AAo?$AAo?$AAl?$AAs?$AA?2?$AAc?$AAr?$AAt?$AA?2?$AAc?$AAr?$AAt?$AAw?$AA3?$AA2?$AA?2?$AAl?$AAo?$AAw?$AAi?$AAo?$AA?2?$AAc@ 0053fbd8     LIBCMTD:commit.obj
 0003:00026c38       ??_C@_1BA@FLNMBBIM@?$AA_?$AAc?$AAo?$AAm?$AAm?$AAi?$AAt?$AA?$AA@ 0053fc38     LIBCMTD:commit.obj
 0003:00026c4c       ??_C@_1DG@LNNHNFHJ@?$AA?$CI?$AA_?$AAo?$AAs?$AAf?$AAi?$AAl?$AAe?$AA?$CI?$AAf?$AAi?$AAl?$AAe?$AAd?$AAe?$AAs?$AA?$CJ?$AA?5?$AA?$CG?$AA?5?$AAF?$AAO?$AAP?$AAE?$AAN?$AA?$CJ?$AA?$AA@ 0053fc4c     LIBCMTD:commit.obj
 0003:00026c90       ??_C@_1JE@ECKHFIFP@?$AA?$CI?$AA?$CC?$AAI?$AAn?$AAv?$AAa?$AAl?$AAi?$AAd?$AA?5?$AAf?$AAi?$AAl?$AAe?$AA?5?$AAd?$AAe?$AAs?$AAc?$AAr?$AAi?$AAp?$AAt?$AAo?$AAr?$AA?4?$AA?5?$AAF?$AAi?$AAl?$AAe?$AA?5@ 0053fc90     LIBCMTD:commit.obj
 0003:00026d48       ??_C@_1FO@LPCLHKGE@?$AA?$CI?$AAf?$AAh?$AA?5?$AA?$DO?$AA?$DN?$AA?5?$AA0?$AA?5?$AA?$CG?$AA?$CG?$AA?5?$AA?$CI?$AAu?$AAn?$AAs?$AAi?$AAg?$AAn?$AAe?$AAd?$AA?$CJ?$AAf?$AAh?$AA?5?$AA?$DM?$AA?5?$AA?$CI?$AAu?$AAn?$AAs?$AAi@ 0053fd48     LIBCMTD:write.obj
 0003:00026db8       ??_C@_1EO@NLGPLDCN@?$AAf?$AA?3?$AA?2?$AAd?$AAd?$AA?2?$AAv?$AAc?$AAt?$AAo?$AAo?$AAl?$AAs?$AA?2?$AAc?$AAr?$AAt?$AA?2?$AAc?$AAr?$AAt?$AAw?$AA3?$AA2?$AA?2?$AAl?$AAo?$AAw?$AAi?$AAo?$AA?2?$AAw@ 0053fdb8     LIBCMTD:write.obj
 0003:00026e18       ??_C@_1O@KOFKDHPL@?$AA_?$AAw?$AAr?$AAi?$AAt?$AAe?$AA?$AA@ 0053fe18     LIBCMTD:write.obj
 0003:00026e28       ??_C@_1CM@OKGMMMDH@?$AA?$CI?$AA_?$AAo?$AAs?$AAf?$AAi?$AAl?$AAe?$AA?$CI?$AAf?$AAh?$AA?$CJ?$AA?5?$AA?$CG?$AA?5?$AAF?$AAO?$AAP?$AAE?$AAN?$AA?$CJ?$AA?$AA@ 0053fe28     LIBCMTD:write.obj
 0003:00026e5c       ??_C@_1BM@KFJLMBPG@?$AA?$CI?$AAb?$AAu?$AAf?$AA?5?$AA?$CB?$AA?$DN?$AA?5?$AAN?$AAU?$AAL?$AAL?$AA?$CJ?$AA?$AA@ 0053fe5c     LIBCMTD:write.obj
 0003:00026e80       ??_C@_1BM@NCANHCIP@?$AA_?$AAw?$AAr?$AAi?$AAt?$AAe?$AA_?$AAn?$AAo?$AAl?$AAo?$AAc?$AAk?$AA?$AA@ 0053fe80     LIBCMTD:write.obj
 0003:00026ea4       ??_C@_1CC@EEOLPHGO@?$AA?$CI?$AA?$CI?$AAc?$AAn?$AAt?$AA?5?$AA?$CG?$AA?5?$AA1?$AA?$CJ?$AA?5?$AA?$DN?$AA?$DN?$AA?5?$AA0?$AA?$CJ?$AA?$AA@ 0053fea4     LIBCMTD:write.obj
 0003:00026ecc       ??_C@_1DI@CNMHHHLG@?$AAi?$AAs?$AAl?$AAe?$AAa?$AAd?$AAb?$AAy?$AAt?$AAe?$AA?$CI?$AA_?$AAd?$AAb?$AAc?$AAs?$AAB?$AAu?$AAf?$AAf?$AAe?$AAr?$AA?$CI?$AAf?$AAh?$AA?$CJ?$AA?$CJ?$AA?$AA@ 0053fecc     LIBCMTD:write.obj
 0003:00026f10       ??_C@_1BO@KFIJIAEA@?$AAp?$AAB?$AAl?$AAo?$AAc?$AAk?$AA?5?$AA?$CB?$AA?$DN?$AA?5?$AAN?$AAU?$AAL?$AAL?$AA?$AA@ 0053ff10     LIBCMTD:expand.obj
 0003:00026f38       ??_C@_1EO@BOMKIKJB@?$AAf?$AA?3?$AA?2?$AAd?$AAd?$AA?2?$AAv?$AAc?$AAt?$AAo?$AAo?$AAl?$AAs?$AA?2?$AAc?$AAr?$AAt?$AA?2?$AAc?$AAr?$AAt?$AAw?$AA3?$AA2?$AA?2?$AAh?$AAe?$AAa?$AAp?$AA?2?$AAe?$AAx@ 0053ff38     LIBCMTD:expand.obj
 0003:00026f98       ??_C@_1BK@JMCGJOCC@?$AA_?$AAe?$AAx?$AAp?$AAa?$AAn?$AAd?$AA_?$AAb?$AAa?$AAs?$AAe?$AA?$AA@ 0053ff98     LIBCMTD:expand.obj
 0003:00026fc8       ??_C@_03KHICJKCI@?4?4?4?$AA@ 0053ffc8     LIBCMTD:dbgrpt.obj
 0003:00026fcc       ??_C@_1CG@GNMJDMIO@?$AA_?$AAC?$AAr?$AAt?$AAS?$AAe?$AAt?$AAR?$AAe?$AAp?$AAo?$AAr?$AAt?$AAH?$AAo?$AAo?$AAk?$AA2?$AA?$AA@ 0053ffcc     LIBCMTD:dbgrpt.obj
 0003:00026ffc       ??_C@_1CI@IDOKFLAJ@?$AA_?$AA_?$AAc?$AAr?$AAt?$AAM?$AAe?$AAs?$AAs?$AAa?$AAg?$AAe?$AAW?$AAi?$AAn?$AAd?$AAo?$AAw?$AAA?$AA?$AA@ 0053fffc     LIBCMTD:dbgrpt.obj
 0003:00027030       ??_C@_1GG@DLDHOIGE@?$AAs?$AAt?$AAr?$AAc?$AAp?$AAy?$AA_?$AAs?$AA?$CI?$AAs?$AAz?$AAE?$AAx?$AAe?$AAN?$AAa?$AAm?$AAe?$AA?0?$AA?5?$AA2?$AA6?$AA0?$AA?0?$AA?5?$AA?$CC?$AA?$DM?$AAp?$AAr?$AAo?$AAg?$AAr@ 00540030     LIBCMTD:dbgrpt.obj
 0003:000270ac       ??_C@_0BH@DNAGHKFM@?$DMprogram?5name?5unknown?$DO?$AA@ 005400ac     LIBCMTD:dbgrpt.obj
 0003:000270c8       ??_C@_1LG@BEHAHJLI@?$AAD?$AAe?$AAb?$AAu?$AAg?$AA?5?$AA?$CF?$AAs?$AA?$CB?$AA?6?$AA?6?$AAP?$AAr?$AAo?$AAg?$AAr?$AAa?$AAm?$AA?3?$AA?5?$AA?$CF?$AAh?$AAs?$AA?$CF?$AAs?$AA?$CF?$AAs?$AA?$CF?$AAh?$AAs?$AA?$CF?$AAs@ 005400c8     LIBCMTD:dbgrpt.obj
 0003:000271a8       ??_C@_1EM@BALFJBIJ@?$AAf?$AA?3?$AA?2?$AAd?$AAd?$AA?2?$AAv?$AAc?$AAt?$AAo?$AAo?$AAl?$AAs?$AA?2?$AAc?$AAr?$AAt?$AA?2?$AAc?$AAr?$AAt?$AAw?$AA3?$AA2?$AA?2?$AAl?$AAo?$AAw?$AAi?$AAo?$AA?2?$AAr@ 005401a8     LIBCMTD:read.obj
 0003:00027204       ??_C@_1M@NHJOLLDM@?$AA_?$AAr?$AAe?$AAa?$AAd?$AA?$AA@ 00540204     LIBCMTD:read.obj
 0003:00027214       ??_C@_1CC@HBLPFNKH@?$AA?$CI?$AAc?$AAn?$AAt?$AA?5?$AA?$DM?$AA?$DN?$AA?5?$AAI?$AAN?$AAT?$AA_?$AAM?$AAA?$AAX?$AA?$CJ?$AA?$AA@ 00540214     LIBCMTD:read.obj
 0003:0002723c       ??_C@_1BK@JJBHNDKJ@?$AA_?$AAr?$AAe?$AAa?$AAd?$AA_?$AAn?$AAo?$AAl?$AAo?$AAc?$AAk?$AA?$AA@ 0054023c     LIBCMTD:read.obj
 0003:0002725c       ??_C@_1CG@OHLJHGGK@?$AA?$CI?$AAi?$AAn?$AAp?$AAu?$AAt?$AAb?$AAu?$AAf?$AA?5?$AA?$CB?$AA?$DN?$AA?5?$AAN?$AAU?$AAL?$AAL?$AA?$CJ?$AA?$AA@ 0054025c     LIBCMTD:read.obj
 0003:0002728c       ??_C@_0CG@JHNDLPLJ@f?3?2dd?2vctools?2crt?2crtw32?2lowio?2r@ 0054028c     LIBCMTD:read.obj
 0003:000272c0       ??_C@_1FC@LGKDBMCL@?$AAf?$AA?3?$AA?2?$AAd?$AAd?$AA?2?$AAv?$AAc?$AAt?$AAo?$AAo?$AAl?$AAs?$AA?2?$AAc?$AAr?$AAt?$AA?2?$AAc?$AAr?$AAt?$AAw?$AA3?$AA2?$AA?2?$AAs?$AAt?$AAd?$AAi?$AAo?$AA?2?$AA_@ 005402c0     LIBCMTD:_getbuf.obj
 0003:00027324       ??_C@_0CJ@NMDFOMAF@f?3?2dd?2vctools?2crt?2crtw32?2stdio?2_@ 00540324     LIBCMTD:_getbuf.obj
 0003:00027358       ??_C@_1FE@HMGHELF@?$AAf?$AA?3?$AA?2?$AAd?$AAd?$AA?2?$AAv?$AAc?$AAt?$AAo?$AAo?$AAl?$AAs?$AA?2?$AAc?$AAr?$AAt?$AA?2?$AAc?$AAr?$AAt?$AAw?$AA3?$AA2?$AA?2?$AAs?$AAt?$AAd?$AAi?$AAo?$AA?2?$AAs@ 00540358     LIBCMTD:swprintf.obj
 0003:000273bc       ??_C@_1BE@BMIJMLDD@?$AA_?$AAs?$AAw?$AAp?$AAr?$AAi?$AAn?$AAt?$AAf?$AA?$AA@ 005403bc     LIBCMTD:swprintf.obj
 0003:000273d8       ??_C@_1FA@IFFFOLDJ@?$AAn?$AAR?$AAp?$AAt?$AAT?$AAy?$AAp?$AAe?$AA?5?$AA?$DO?$AA?$DN?$AA?5?$AA0?$AA?5?$AA?$CG?$AA?$CG?$AA?5?$AAn?$AAR?$AAp?$AAt?$AAT?$AAy?$AAp?$AAe?$AA?5?$AA?$DM?$AA?5?$AA_?$AAC?$AAR?$AAT@ 005403d8     LIBCMTD:dbgrptt.obj
 0003:00027438       ??_C@_1FA@PPLJBGMP@?$AAf?$AA?3?$AA?2?$AAd?$AAd?$AA?2?$AAv?$AAc?$AAt?$AAo?$AAo?$AAl?$AAs?$AA?2?$AAc?$AAr?$AAt?$AA?2?$AAc?$AAr?$AAt?$AAw?$AA3?$AA2?$AA?2?$AAm?$AAi?$AAs?$AAc?$AA?2?$AAd?$AAb@ 00540438     LIBCMTD:dbgrptt.obj
 0003:00027498       ??_C@_1CE@FIHIECNJ@?$AA_?$AAC?$AAr?$AAt?$AAS?$AAe?$AAt?$AAR?$AAe?$AAp?$AAo?$AAr?$AAt?$AAM?$AAo?$AAd?$AAe?$AA?$AA@ 00540498     LIBCMTD:dbgrptt.obj
 0003:000274c8       ??_C@_1NK@LOFHIHFC@?$AAf?$AAM?$AAo?$AAd?$AAe?$AA?5?$AA?$DN?$AA?$DN?$AA?5?$AA_?$AAC?$AAR?$AAT?$AAD?$AAB?$AAG?$AA_?$AAR?$AAE?$AAP?$AAO?$AAR?$AAT?$AA_?$AAM?$AAO?$AAD?$AAE?$AA?5?$AA?$HM?$AA?$HM?$AA?5@ 005404c8     LIBCMTD:dbgrptt.obj
 0003:000275d0       ??_C@_1CE@IKKEDCME@?$AA_?$AAC?$AAr?$AAt?$AAS?$AAe?$AAt?$AAR?$AAe?$AAp?$AAo?$AAr?$AAt?$AAF?$AAi?$AAl?$AAe?$AA?$AA@ 005405d0     LIBCMTD:dbgrptt.obj
 0003:000275fc       ??_C@_1CA@KHJHLKA@?$AA_?$AAV?$AAC?$AAr?$AAt?$AAD?$AAb?$AAg?$AAR?$AAe?$AAp?$AAo?$AAr?$AAt?$AAA?$AA?$AA@ 005405fc     LIBCMTD:dbgrptt.obj
 0003:00027628       ??_C@_1FA@JPHJBHEM@?$AA_?$AAi?$AAt?$AAo?$AAa?$AA_?$AAs?$AA?$CI?$AAn?$AAL?$AAi?$AAn?$AAe?$AA?0?$AA?5?$AAs?$AAz?$AAL?$AAi?$AAn?$AAe?$AAM?$AAe?$AAs?$AAs?$AAa?$AAg?$AAe?$AA?0?$AA?5?$AA4?$AA0@ 00540628     LIBCMTD:dbgrptt.obj
 0003:00027688       ??_C@_0CG@BNGLOCEO@Second?5Chance?5Assertion?5Failed?3?5@ 00540688     LIBCMTD:dbgrptt.obj
 0003:000276b8       ??_C@_0P@DFJNDPOP@?$DMfile?5unknown?$DO?$AA@ 005406b8     LIBCMTD:dbgrptt.obj
 0003:000276cc       ??_C@_07BHGABMGB@?0?5Line?5?$AA@ 005406cc     LIBCMTD:dbgrptt.obj
 0003:000276d8       ??_C@_01EEMJAFIK@?6?$AA@   005406d8     LIBCMTD:dbgrptt.obj
 0003:000276e0       ??_C@_1JI@GAALPGBM@?$AAs?$AAt?$AAr?$AAc?$AAp?$AAy?$AA_?$AAs?$AA?$CI?$AAs?$AAz?$AAU?$AAs?$AAe?$AAr?$AAM?$AAe?$AAs?$AAs?$AAa?$AAg?$AAe?$AA?0?$AA?5?$AA4?$AA0?$AA9?$AA6?$AA?0?$AA?5?$AA?$CC?$AA_@ 005406e0     LIBCMTD:dbgrptt.obj
 0003:00027798       ??_C@_0CL@EACFGMNB@_CrtDbgReport?3?5String?5too?5long?5o@ 00540798     LIBCMTD:dbgrptt.obj
 0003:000277d0       ??_C@_1KK@GIGAEDMO@?$AAs?$AAt?$AAr?$AAc?$AAp?$AAy?$AA_?$AAs?$AA?$CI?$AAs?$AAz?$AAL?$AAi?$AAn?$AAe?$AAM?$AAe?$AAs?$AAs?$AAa?$AAg?$AAe?$AA?0?$AA?5?$AA4?$AA0?$AA9?$AA6?$AA?0?$AA?5?$AAs?$AAz@ 005407d0     LIBCMTD:dbgrptt.obj
 0003:0002789c       ??_C@_0BD@CAENFOHP@Assertion?5failed?3?5?$AA@ 0054089c     LIBCMTD:dbgrptt.obj
 0003:000278b4       ??_C@_0BC@LAIDCHCH@Assertion?5failed?$CB?$AA@ 005408b4     LIBCMTD:dbgrptt.obj
 0003:000278d0       ??_C@_1FK@NPGBPOFO@?$AAs?$AAt?$AAr?$AAc?$AAa?$AAt?$AA_?$AAs?$AA?$CI?$AAs?$AAz?$AAL?$AAi?$AAn?$AAe?$AAM?$AAe?$AAs?$AAs?$AAa?$AAg?$AAe?$AA?0?$AA?5?$AA4?$AA0?$AA9?$AA6?$AA?0?$AA?5?$AAs?$AAz@ 005408d0     LIBCMTD:dbgrptt.obj
 0003:00027940       ??_C@_1EI@CACDLAFK@?$AAs?$AAt?$AAr?$AAc?$AAa?$AAt?$AA_?$AAs?$AA?$CI?$AAs?$AAz?$AAL?$AAi?$AAn?$AAe?$AAM?$AAe?$AAs?$AAs?$AAa?$AAg?$AAe?$AA?0?$AA?5?$AA4?$AA0?$AA9?$AA6?$AA?0?$AA?5?$AA?$CC?$AA?2@ 00540940     LIBCMTD:dbgrptt.obj
 0003:00027998       ??_C@_01LIIJDEN@?$AN?$AA@  00540998     LIBCMTD:dbgrptt.obj
 0003:000279a0       ??_C@_1EI@LDHJEDO@?$AAs?$AAt?$AAr?$AAc?$AAa?$AAt?$AA_?$AAs?$AA?$CI?$AAs?$AAz?$AAL?$AAi?$AAn?$AAe?$AAM?$AAe?$AAs?$AAs?$AAa?$AAg?$AAe?$AA?0?$AA?5?$AA4?$AA0?$AA9?$AA6?$AA?0?$AA?5?$AA?$CC?$AA?2@ 005409a0     LIBCMTD:dbgrptt.obj
 0003:000279f8       ??_C@_0M@IPILFDFN@?$CFs?$CI?$CFd?$CJ?5?3?5?$CFs?$AA@ 005409f8     LIBCMTD:dbgrptt.obj
 0003:00027a08       ??_C@_1JG@CPKCIOEE@?$AAs?$AAt?$AAr?$AAc?$AAp?$AAy?$AA_?$AAs?$AA?$CI?$AAs?$AAz?$AAO?$AAu?$AAt?$AAM?$AAe?$AAs?$AAs?$AAa?$AAg?$AAe?$AA?0?$AA?5?$AA4?$AA0?$AA9?$AA6?$AA?0?$AA?5?$AA?$CC?$AA_?$AAC@ 00540a08     LIBCMTD:dbgrptt.obj
 0003:00027ac0       ??_C@_1FI@IBIOIHEG@?$AAs?$AAt?$AAr?$AAc?$AAp?$AAy?$AA_?$AAs?$AA?$CI?$AAs?$AAz?$AAO?$AAu?$AAt?$AAM?$AAe?$AAs?$AAs?$AAa?$AAg?$AAe?$AA?0?$AA?5?$AA4?$AA0?$AA9?$AA6?$AA?0?$AA?5?$AAs?$AAz?$AAL@ 00540ac0     LIBCMTD:dbgrptt.obj
 0003:00027b30       ??_C@_1IM@OOKIFKOH@?$AAe?$AA?5?$AA?$DN?$AA?5?$AAm?$AAb?$AAs?$AAt?$AAo?$AAw?$AAc?$AAs?$AA_?$AAs?$AA?$CI?$AA?$CG?$AAr?$AAe?$AAt?$AA?0?$AA?5?$AAs?$AAz?$AAO?$AAu?$AAt?$AAM?$AAe?$AAs?$AAs?$AAa?$AAg@ 00540b30     LIBCMTD:dbgrptt.obj
 0003:00027bd8       ??_C@_1MC@IGEECMDB@?$AAw?$AAc?$AAs?$AAc?$AAp?$AAy?$AA_?$AAs?$AA?$CI?$AAs?$AAz?$AAO?$AAu?$AAt?$AAM?$AAe?$AAs?$AAs?$AAa?$AAg?$AAe?$AA2?$AA?0?$AA?5?$AA4?$AA0?$AA9?$AA6?$AA?0?$AA?5?$AAL?$AA?$CC@ 00540bd8     LIBCMTD:dbgrptt.obj
 0003:00027cc0       ??_C@_1HO@PJOFIKFE@?$AA_?$AAC?$AAr?$AAt?$AAD?$AAb?$AAg?$AAR?$AAe?$AAp?$AAo?$AAr?$AAt?$AA?3?$AA?5?$AAS?$AAt?$AAr?$AAi?$AAn?$AAg?$AA?5?$AAt?$AAo?$AAo?$AA?5?$AAl?$AAo?$AAn?$AAg?$AA?5?$AAo@ 00540cc0     LIBCMTD:dbgrptt.obj
 0003:00027d58       ??_C@_1CA@HPALHDOD@?$AA_?$AAV?$AAC?$AAr?$AAt?$AAD?$AAb?$AAg?$AAR?$AAe?$AAp?$AAo?$AAr?$AAt?$AAW?$AA?$AA@ 00540d58     LIBCMTD:dbgrptt.obj
 0003:00027d80       ??_C@_1FA@CNLLOMHI@?$AA_?$AAi?$AAt?$AAo?$AAw?$AA_?$AAs?$AA?$CI?$AAn?$AAL?$AAi?$AAn?$AAe?$AA?0?$AA?5?$AAs?$AAz?$AAL?$AAi?$AAn?$AAe?$AAM?$AAe?$AAs?$AAs?$AAa?$AAg?$AAe?$AA?0?$AA?5?$AA4?$AA0@ 00540d80     LIBCMTD:dbgrptt.obj
 0003:00027de0       ??_C@_1EM@MJFLEDMB@?$AAS?$AAe?$AAc?$AAo?$AAn?$AAd?$AA?5?$AAC?$AAh?$AAa?$AAn?$AAc?$AAe?$AA?5?$AAA?$AAs?$AAs?$AAe?$AAr?$AAt?$AAi?$AAo?$AAn?$AA?5?$AAF?$AAa?$AAi?$AAl?$AAe?$AAd?$AA?3?$AA?5@ 00540de0     LIBCMTD:dbgrptt.obj
 0003:00027e3c       ??_C@_1BO@OCHMLCAG@?$AA?$DM?$AAf?$AAi?$AAl?$AAe?$AA?5?$AAu?$AAn?$AAk?$AAn?$AAo?$AAw?$AAn?$AA?$DO?$AA?$AA@ 00540e3c     LIBCMTD:dbgrptt.obj
 0003:00027e60       ??_C@_1BA@ELMMDCFC@?$AA?0?$AA?5?$AAL?$AAi?$AAn?$AAe?$AA?5?$AA?$AA@ 00540e60     LIBCMTD:dbgrptt.obj
 0003:00027e78       ??_C@_1JK@KHFABAEO@?$AAw?$AAc?$AAs?$AAc?$AAp?$AAy?$AA_?$AAs?$AA?$CI?$AAs?$AAz?$AAU?$AAs?$AAe?$AAr?$AAM?$AAe?$AAs?$AAs?$AAa?$AAg?$AAe?$AA?0?$AA?5?$AA4?$AA0?$AA9?$AA6?$AA?0?$AA?5?$AAL?$AA?$CC@ 00540e78     LIBCMTD:dbgrptt.obj
 0003:00027f30       ??_C@_1KO@DGAHENCH@?$AAw?$AAc?$AAs?$AAc?$AAp?$AAy?$AA_?$AAs?$AA?$CI?$AAs?$AAz?$AAL?$AAi?$AAn?$AAe?$AAM?$AAe?$AAs?$AAs?$AAa?$AAg?$AAe?$AA?0?$AA?5?$AA4?$AA0?$AA9?$AA6?$AA?0?$AA?5?$AAs?$AAz@ 00540f30     LIBCMTD:dbgrptt.obj
 0003:00028000       ??_C@_1CG@FFFGGODN@?$AAA?$AAs?$AAs?$AAe?$AAr?$AAt?$AAi?$AAo?$AAn?$AA?5?$AAf?$AAa?$AAi?$AAl?$AAe?$AAd?$AA?3?$AA?5?$AA?$AA@ 00541000     LIBCMTD:dbgrptt.obj
 0003:00028030       ??_C@_1FK@HPADHBBD@?$AAw?$AAc?$AAs?$AAc?$AAa?$AAt?$AA_?$AAs?$AA?$CI?$AAs?$AAz?$AAL?$AAi?$AAn?$AAe?$AAM?$AAe?$AAs?$AAs?$AAa?$AAg?$AAe?$AA?0?$AA?5?$AA4?$AA0?$AA9?$AA6?$AA?0?$AA?5?$AAs?$AAz@ 00541030     LIBCMTD:dbgrptt.obj
 0003:000280a0       ??_C@_1EK@NMDFGHMF@?$AAw?$AAc?$AAs?$AAc?$AAa?$AAt?$AA_?$AAs?$AA?$CI?$AAs?$AAz?$AAL?$AAi?$AAn?$AAe?$AAM?$AAe?$AAs?$AAs?$AAa?$AAg?$AAe?$AA?0?$AA?5?$AA4?$AA0?$AA9?$AA6?$AA?0?$AA?5?$AAL?$AA?$CC@ 005410a0     LIBCMTD:dbgrptt.obj
 0003:000280f8       ??_C@_13CMNBPIDO@?$AA?$AN?$AA?$AA@ 005410f8     LIBCMTD:dbgrptt.obj
 0003:00028100       ??_C@_1EK@PHCBEDKB@?$AAw?$AAc?$AAs?$AAc?$AAa?$AAt?$AA_?$AAs?$AA?$CI?$AAs?$AAz?$AAL?$AAi?$AAn?$AAe?$AAM?$AAe?$AAs?$AAs?$AAa?$AAg?$AAe?$AA?0?$AA?5?$AA4?$AA0?$AA9?$AA6?$AA?0?$AA?5?$AAL?$AA?$CC@ 00541100     LIBCMTD:dbgrptt.obj
 0003:00028158       ??_C@_1BI@JIDBEPIG@?$AA?$CF?$AAs?$AA?$CI?$AA?$CF?$AAd?$AA?$CJ?$AA?5?$AA?3?$AA?5?$AA?$CF?$AAs?$AA?$AA@ 00541158     LIBCMTD:dbgrptt.obj
 0003:00028178       ??_C@_1FI@DBAIJPJE@?$AAw?$AAc?$AAs?$AAc?$AAp?$AAy?$AA_?$AAs?$AA?$CI?$AAs?$AAz?$AAO?$AAu?$AAt?$AAM?$AAe?$AAs?$AAs?$AAa?$AAg?$AAe?$AA?0?$AA?5?$AA4?$AA0?$AA9?$AA6?$AA?0?$AA?5?$AAs?$AAz?$AAL@ 00541178     LIBCMTD:dbgrptt.obj
 0003:000281e8       ??_C@_1JC@EOAPFDLN@?$AAw?$AAc?$AAs?$AAt?$AAo?$AAm?$AAb?$AAs?$AA_?$AAs?$AA?$CI?$AA?$CI?$AA?$CI?$AAv?$AAo?$AAi?$AAd?$AA?5?$AA?$CK?$AA?$CJ?$AA0?$AA?$CJ?$AA?0?$AA?5?$AAs?$AAz?$AAO?$AAu?$AAt?$AAM?$AAe?$AAs@ 005411e8     LIBCMTD:dbgrptt.obj
 0003:00028298       ??_C@_1MA@LBAMNNOB@?$AAs?$AAt?$AAr?$AAc?$AAp?$AAy?$AA_?$AAs?$AA?$CI?$AAs?$AAz?$AAO?$AAu?$AAt?$AAM?$AAe?$AAs?$AAs?$AAa?$AAg?$AAe?$AA2?$AA?0?$AA?5?$AA4?$AA0?$AA9?$AA6?$AA?0?$AA?5?$AA?$CC?$AA_@ 00541298     LIBCMTD:dbgrptt.obj
 0003:00028380       ??_C@_0DP@GNPEPHJD@_CrtDbgReport?3?5String?5too?5long?5o@ 00541380     LIBCMTD:dbgrptt.obj
 0003:000283d0       ??_C@_1IE@CPGKIAGP@?$AAw?$AAc?$AAs?$AAt?$AAo?$AAm?$AAb?$AAs?$AA_?$AAs?$AA?$CI?$AA?$CG?$AAr?$AAe?$AAt?$AA?0?$AA?5?$AAs?$AAz?$AAa?$AAO?$AAu?$AAt?$AAM?$AAe?$AAs?$AAs?$AAa?$AAg?$AAe?$AA?0?$AA?5@ 005413d0     LIBCMTD:dbgrptt.obj
 0003:00028470       ___lookuptable_s           00541470     LIBCMTD:outputs.obj
 0003:000284dc       ??_C@_1BI@COFBLHCG@?$AA_?$AAo?$AAu?$AAt?$AAp?$AAu?$AAt?$AA_?$AAs?$AA_?$AAl?$AA?$AA@ 005414dc     LIBCMTD:outputs.obj
 0003:000284f8       ??_C@_1EE@DMAIGNBG@?$AA?$CI?$AA?$CC?$AAI?$AAn?$AAc?$AAo?$AAr?$AAr?$AAe?$AAc?$AAt?$AA?5?$AAf?$AAo?$AAr?$AAm?$AAa?$AAt?$AA?5?$AAs?$AAp?$AAe?$AAc?$AAi?$AAf?$AAi?$AAe?$AAr?$AA?$CC?$AA?0?$AA?5?$AA0@ 005414f8     LIBCMTD:outputs.obj
 0003:00028550       ??_C@_1FK@LNCFKALM@?$AA?$CI?$AA?$CI?$AAs?$AAt?$AAa?$AAt?$AAe?$AA?5?$AA?$DN?$AA?$DN?$AA?5?$AAS?$AAT?$AA_?$AAN?$AAO?$AAR?$AAM?$AAA?$AAL?$AA?$CJ?$AA?5?$AA?$HM?$AA?$HM?$AA?5?$AA?$CI?$AAs?$AAt?$AAa?$AAt?$AAe?$AA?5@ 00541550     LIBCMTD:outputs.obj
 0003:000285bc       ??_C@_1BI@KANOLAMF@?$AA_?$AAo?$AAu?$AAt?$AAp?$AAu?$AAt?$AA_?$AAp?$AA_?$AAl?$AA?$AA@ 005415bc     LIBCMTD:outputp.obj
 0003:000285d8       ??_C@_1JC@PFJNKEIO@?$AA?$CI?$AA?$CI?$AAt?$AAy?$AAp?$AAe?$AA_?$AAp?$AAo?$AAs?$AA?5?$AA?$DO?$AA?$DN?$AA?5?$AA0?$AA?$CJ?$AA?5?$AA?$CG?$AA?$CG?$AA?5?$AA?$CI?$AA?$CK?$AAe?$AAn?$AAd?$AA_?$AAp?$AAo?$AAs?$AA?5?$AA?$DN?$AA?$DN@ 005415d8     LIBCMTD:outputp.obj
 0003:00028688       ??_C@_1JE@NMBHOLFI@?$AA?$CI?$AA?$CI?$AAw?$AAi?$AAd?$AAt?$AAh?$AA_?$AAp?$AAo?$AAs?$AA?5?$AA?$DO?$AA?$DN?$AA?5?$AA0?$AA?$CJ?$AA?5?$AA?$CG?$AA?$CG?$AA?5?$AA?$CI?$AA?$CK?$AAe?$AAn?$AAd?$AA_?$AAp?$AAo?$AAs?$AA?5?$AA?$DN@ 00541688     LIBCMTD:outputp.obj
 0003:00028740       ??_C@_1II@PIPIMLPF@?$AA_?$AAt?$AAv?$AAa?$AAl?$AAi?$AAd?$AAa?$AAt?$AAe?$AA_?$AAp?$AAa?$AAr?$AAa?$AAm?$AA_?$AAr?$AAe?$AAu?$AAs?$AAe?$AA?$CI?$AA?$CG?$AAp?$AAo?$AAs?$AA_?$AAv?$AAa?$AAl?$AAu@ 00541740     LIBCMTD:outputp.obj
 0003:000287e8       ??_C@_1JG@JBJBOCFB@?$AA?$CI?$AA?$CI?$AAp?$AAr?$AAe?$AAc?$AAi?$AAs?$AA_?$AAp?$AAo?$AAs?$AA?5?$AA?$DO?$AA?$DN?$AA?5?$AA0?$AA?$CJ?$AA?5?$AA?$CG?$AA?$CG?$AA?5?$AA?$CI?$AA?$CK?$AAe?$AAn?$AAd?$AA_?$AAp?$AAo?$AAs?$AA?5@ 005417e8     LIBCMTD:outputp.obj
 0003:000288a0       ??_C@_1IK@EIEPDKHJ@?$AA_?$AAt?$AAv?$AAa?$AAl?$AAi?$AAd?$AAa?$AAt?$AAe?$AA_?$AAp?$AAa?$AAr?$AAa?$AAm?$AA_?$AAr?$AAe?$AAu?$AAs?$AAe?$AA?$CI?$AA?$CG?$AAp?$AAo?$AAs?$AA_?$AAv?$AAa?$AAl?$AAu@ 005418a0     LIBCMTD:outputp.obj
 0003:00028948       ??_C@_1EM@BNPHBBIA@?$AA?$CI?$AA?$CI?$AAt?$AAy?$AAp?$AAe?$AA_?$AAp?$AAo?$AAs?$AA?$DO?$AA?$DN?$AA0?$AA?$CJ?$AA?5?$AA?$CG?$AA?$CG?$AA?5?$AA?$CI?$AAt?$AAy?$AAp?$AAe?$AA_?$AAp?$AAo?$AAs?$AA?$DM?$AA_?$AAA?$AAR?$AAG@ 00541948     LIBCMTD:outputp.obj
 0003:000289a8       ??_C@_1IK@MHEDJAMK@?$AA_?$AAt?$AAv?$AAa?$AAl?$AAi?$AAd?$AAa?$AAt?$AAe?$AA_?$AAp?$AAa?$AAr?$AAa?$AAm?$AA_?$AAr?$AAe?$AAu?$AAs?$AAe?$AA?$CI?$AA?$CG?$AAp?$AAo?$AAs?$AA_?$AAv?$AAa?$AAl?$AAu@ 005419a8     LIBCMTD:outputp.obj
 0003:00028a50       ??_C@_1IG@FDCPLALG@?$AA_?$AAt?$AAv?$AAa?$AAl?$AAi?$AAd?$AAa?$AAt?$AAe?$AA_?$AAp?$AAa?$AAr?$AAa?$AAm?$AA_?$AAr?$AAe?$AAu?$AAs?$AAe?$AA?$CI?$AA?$CG?$AAp?$AAo?$AAs?$AA_?$AAv?$AAa?$AAl?$AAu@ 00541a50     LIBCMTD:outputp.obj
 0003:00028af0       ??_C@_1IG@HJIMKDHC@?$AA_?$AAt?$AAv?$AAa?$AAl?$AAi?$AAd?$AAa?$AAt?$AAe?$AA_?$AAp?$AAa?$AAr?$AAa?$AAm?$AA_?$AAr?$AAe?$AAu?$AAs?$AAe?$AA?$CI?$AA?$CG?$AAp?$AAo?$AAs?$AA_?$AAv?$AAa?$AAl?$AAu@ 00541af0     LIBCMTD:outputp.obj
 0003:00028b90       ??_C@_1IM@DNGHAPLB@?$AA_?$AAt?$AAv?$AAa?$AAl?$AAi?$AAd?$AAa?$AAt?$AAe?$AA_?$AAp?$AAa?$AAr?$AAa?$AAm?$AA_?$AAr?$AAe?$AAu?$AAs?$AAe?$AA?$CI?$AA?$CG?$AAp?$AAo?$AAs?$AA_?$AAv?$AAa?$AAl?$AAu@ 00541b90     LIBCMTD:outputp.obj
 0003:00028c38       ??_C@_1DG@GOHGNKHE@?$AAp?$AAa?$AAs?$AAs?$AA?5?$AA?$DN?$AA?$DN?$AA?5?$AAF?$AAO?$AAR?$AAM?$AAA?$AAT?$AA_?$AAO?$AAU?$AAT?$AAP?$AAU?$AAT?$AA_?$AAP?$AAA?$AAS?$AAS?$AA?$AA@ 00541c38     LIBCMTD:outputp.obj
 0003:00028c78       ??_C@_1IK@NBGDDCBN@?$AA_?$AAt?$AAv?$AAa?$AAl?$AAi?$AAd?$AAa?$AAt?$AAe?$AA_?$AAp?$AAa?$AAr?$AAa?$AAm?$AA_?$AAr?$AAe?$AAu?$AAs?$AAe?$AA?$CI?$AA?$CG?$AAp?$AAo?$AAs?$AA_?$AAv?$AAa?$AAl?$AAu@ 00541c78     LIBCMTD:outputp.obj
 0003:00028d20       ??_C@_1JC@OACKELNN@?$AA_?$AAt?$AAv?$AAa?$AAl?$AAi?$AAd?$AAa?$AAt?$AAe?$AA_?$AAp?$AAa?$AAr?$AAa?$AAm?$AA_?$AAr?$AAe?$AAu?$AAs?$AAe?$AA?$CI?$AA?$CG?$AAp?$AAo?$AAs?$AA_?$AAv?$AAa?$AAl?$AAu@ 00541d20     LIBCMTD:outputp.obj
 0003:00028dd0       ??_C@_1FK@BCPANIEK@?$AA?$CI?$AA?$CC?$AAM?$AAi?$AAs?$AAs?$AAi?$AAn?$AAg?$AA?5?$AAp?$AAo?$AAs?$AAi?$AAt?$AAi?$AAo?$AAn?$AA?5?$AAi?$AAn?$AA?5?$AAt?$AAh?$AAe?$AA?5?$AAf?$AAo?$AAr?$AAm?$AAa?$AAt@ 00541dd0     LIBCMTD:outputp.obj
 0003:00028e40       ??_C@_1FA@NFCHPDNG@?$AAf?$AA?3?$AA?2?$AAd?$AAd?$AA?2?$AAv?$AAc?$AAt?$AAo?$AAo?$AAl?$AAs?$AA?2?$AAc?$AAr?$AAt?$AA?2?$AAc?$AAr?$AAt?$AAw?$AA3?$AA2?$AA?2?$AAl?$AAo?$AAw?$AAi?$AAo?$AA?2?$AAi@ 00541e40     LIBCMTD:isatty.obj
 0003:00028ea0       ??_C@_1BA@LEBDGIHM@?$AA_?$AAi?$AAs?$AAa?$AAt?$AAt?$AAy?$AA?$AA@ 00541ea0     LIBCMTD:isatty.obj
 0003:00028eb4       ??_C@_1CO@HFMIILNF@?$AAs?$AAi?$AAz?$AAe?$AAI?$AAn?$AAB?$AAy?$AAt?$AAe?$AAs?$AA?5?$AA?$DM?$AA?$DN?$AA?5?$AAI?$AAN?$AAT?$AA_?$AAM?$AAA?$AAX?$AA?$AA@ 00541eb4     LIBCMTD:wctomb.obj
 0003:00028ef0       ??_C@_1FE@GKMDCPPB@?$AAf?$AA?3?$AA?2?$AAd?$AAd?$AA?2?$AAv?$AAc?$AAt?$AAo?$AAo?$AAl?$AAs?$AA?2?$AAc?$AAr?$AAt?$AA?2?$AAc?$AAr?$AAt?$AAw?$AA3?$AA2?$AA?2?$AAc?$AAo?$AAn?$AAv?$AAe?$AAr?$AAt@ 00541ef0     LIBCMTD:wctomb.obj
 0003:00028f54       ??_C@_1BI@IEADNOHF@?$AA_?$AAw?$AAc?$AAt?$AAo?$AAm?$AAb?$AA_?$AAs?$AA_?$AAl?$AA?$AA@ 00541f54     LIBCMTD:wctomb.obj
 0003:00028f70       ??_C@_1FE@NDDOFCDF@?$AAf?$AA?3?$AA?2?$AAd?$AAd?$AA?2?$AAv?$AAc?$AAt?$AAo?$AAo?$AAl?$AAs?$AA?2?$AAc?$AAr?$AAt?$AA?2?$AAc?$AAr?$AAt?$AAw?$AA3?$AA2?$AA?2?$AAl?$AAo?$AAw?$AAi?$AAo?$AA?2?$AAl@ 00541f70     LIBCMTD:lseeki64.obj
 0003:00028fd4       ??_C@_1BE@KHFBJMNM@?$AA_?$AAl?$AAs?$AAe?$AAe?$AAk?$AAi?$AA6?$AA4?$AA?$AA@ 00541fd4     LIBCMTD:lseeki64.obj
 0003:00028fec       ??_C@_0CI@NOHEOGNG@f?3?2dd?2vctools?2crt?2crtw32?2misc?2in@ 00541fec     LIBCMTD:initmon.obj
 0003:0002901c       ??_C@_1DM@GKAPAMDO@?$AAp?$AAl?$AAo?$AAc?$AAi?$AA?9?$AA?$DO?$AAl?$AAc?$AAo?$AAn?$AAv?$AA_?$AAm?$AAo?$AAn?$AA_?$AAr?$AAe?$AAf?$AAc?$AAo?$AAu?$AAn?$AAt?$AA?5?$AA?$DO?$AA?5?$AA0?$AA?$AA@ 0054201c     LIBCMTD:initmon.obj
 0003:00029068       ??_C@_1FA@CNNDGPJL@?$AAf?$AA?3?$AA?2?$AAd?$AAd?$AA?2?$AAv?$AAc?$AAt?$AAo?$AAo?$AAl?$AAs?$AA?2?$AAc?$AAr?$AAt?$AA?2?$AAc?$AAr?$AAt?$AAw?$AA3?$AA2?$AA?2?$AAm?$AAi?$AAs?$AAc?$AA?2?$AAi?$AAn@ 00542068     LIBCMTD:initmon.obj
 0003:000290c8       ??_C@_0CI@GAAFLELF@f?3?2dd?2vctools?2crt?2crtw32?2misc?2in@ 005420c8     LIBCMTD:initnum.obj
 0003:000290f8       ??_C@_1DM@IFKAINNE@?$AAp?$AAl?$AAo?$AAc?$AAi?$AA?9?$AA?$DO?$AAl?$AAc?$AAo?$AAn?$AAv?$AA_?$AAn?$AAu?$AAm?$AA_?$AAr?$AAe?$AAf?$AAc?$AAo?$AAu?$AAn?$AAt?$AA?5?$AA?$DO?$AA?5?$AA0?$AA?$AA@ 005420f8     LIBCMTD:initnum.obj
 0003:00029140       ??_C@_1FA@OEEOKLKJ@?$AAf?$AA?3?$AA?2?$AAd?$AAd?$AA?2?$AAv?$AAc?$AAt?$AAo?$AAo?$AAl?$AAs?$AA?2?$AAc?$AAr?$AAt?$AA?2?$AAc?$AAr?$AAt?$AAw?$AA3?$AA2?$AA?2?$AAm?$AAi?$AAs?$AAc?$AA?2?$AAi?$AAn@ 00542140     LIBCMTD:initnum.obj
 0003:000291a0       ??_C@_0CJ@HGFGLKBM@f?3?2dd?2vctools?2crt?2crtw32?2misc?2in@ 005421a0     LIBCMTD:inittime.obj
 0003:000291d8       ??_C@_1EE@FDHCFDHN@?$AAp?$AAl?$AAo?$AAc?$AAi?$AA?9?$AA?$DO?$AAl?$AAc?$AA_?$AAt?$AAi?$AAm?$AAe?$AA_?$AAc?$AAu?$AAr?$AAr?$AA?9?$AA?$DO?$AAr?$AAe?$AAf?$AAc?$AAo?$AAu?$AAn?$AAt?$AA?5?$AA?$DO?$AA?5@ 005421d8     LIBCMTD:inittime.obj
 0003:00029230       ??_C@_1FC@GNPEEAOA@?$AAf?$AA?3?$AA?2?$AAd?$AAd?$AA?2?$AAv?$AAc?$AAt?$AAo?$AAo?$AAl?$AAs?$AA?2?$AAc?$AAr?$AAt?$AA?2?$AAc?$AAr?$AAt?$AAw?$AA3?$AA2?$AA?2?$AAm?$AAi?$AAs?$AAc?$AA?2?$AAi?$AAn@ 00542230     LIBCMTD:inittime.obj
 0003:00029298       ??_C@_1FE@KNPCCODH@?$AA?$CI?$AA?$CC?$AAC?$AAo?$AAr?$AAr?$AAu?$AAp?$AAt?$AAe?$AAd?$AA?5?$AAp?$AAo?$AAi?$AAn?$AAt?$AAe?$AAr?$AA?5?$AAp?$AAa?$AAs?$AAs?$AAe?$AAd?$AA?5?$AAt?$AAo?$AA?5?$AA_?$AAf@ 00542298     LIBCMTD:a_map.obj
 0003:00029300       ??_C@_1EI@DKDOCKPJ@?$AAf?$AA?3?$AA?2?$AAd?$AAd?$AA?2?$AAv?$AAc?$AAt?$AAo?$AAo?$AAl?$AAs?$AA?2?$AAc?$AAr?$AAt?$AA?2?$AAc?$AAr?$AAt?$AAw?$AA3?$AA2?$AA?2?$AAh?$AA?2?$AAm?$AAa?$AAl?$AAl?$AAo@ 00542300     LIBCMTD:a_map.obj
 0003:00029358       __pDestructExceptionObject 00542358     LIBCMTD:frame.obj
 0003:0002935c       ?value@?$integral_constant@_N$0A@@std@@2_NB 0054235c     LIBCMTD:frame.obj
 0003:0002935d       ?value@?$integral_constant@_N$00@std@@2_NB 0054235d     LIBCMTD:frame.obj
 0003:00029364       ??_7bad_exception@std@@6B@ 00542364     LIBCMTD:frame.obj
 0003:00029370       ??_C@_0O@DPKOEFFH@bad?5exception?$AA@ 00542370     LIBCMTD:frame.obj
 0003:00029380       ___newctype                00542380     LIBCMTD:ctype.obj
 0003:00029680       __wctype                   00542680     LIBCMTD:ctype.obj
 0003:00029888       ___newclmap                00542888     LIBCMTD:ctype.obj
 0003:00029a08       ___newcumap                00542a08     LIBCMTD:ctype.obj
 0003:00029d24       ??_C@_0CJ@JJMAJPPG@f?3?2dd?2vctools?2crt?2crtw32?2misc?2in@ 00542d24     LIBCMTD:initctyp.obj
 0003:00029d58       ??_C@_1FC@OGCCCEID@?$AAf?$AA?3?$AA?2?$AAd?$AAd?$AA?2?$AAv?$AAc?$AAt?$AAo?$AAo?$AAl?$AAs?$AA?2?$AAc?$AAr?$AAt?$AA?2?$AAc?$AAr?$AAt?$AAw?$AA3?$AA2?$AA?2?$AAm?$AAi?$AAs?$AAc?$AA?2?$AAi?$AAn@ 00542d58     LIBCMTD:initctyp.obj
 0003:00029dbc       ??_C@_1DG@NMBGBDM@?$AAp?$AAl?$AAo?$AAc?$AAi?$AA?9?$AA?$DO?$AAc?$AAt?$AAy?$AAp?$AAe?$AA1?$AA_?$AAr?$AAe?$AAf?$AAc?$AAo?$AAu?$AAn?$AAt?$AA?5?$AA?$DO?$AA?5?$AA0?$AA?$AA@ 00542dbc     LIBCMTD:initctyp.obj
 0003:00029e00       ??_C@_1FC@LFLBLJJB@?$AAf?$AA?3?$AA?2?$AAd?$AAd?$AA?2?$AAv?$AAc?$AAt?$AAo?$AAo?$AAl?$AAs?$AA?2?$AAc?$AAr?$AAt?$AA?2?$AAc?$AAr?$AAt?$AAw?$AA3?$AA2?$AA?2?$AAh?$AA?2?$AAt?$AAc?$AAs?$AAn?$AAc@ 00542e00     LIBCMTD:wcsncpy_s.obj
 0003:00029e64       ??_C@_1BE@PMMBFFCC@?$AAw?$AAc?$AAs?$AAn?$AAc?$AAp?$AAy?$AA_?$AAs?$AA?$AA@ 00542e64     LIBCMTD:wcsncpy_s.obj
 0003:00029e80       ___rg_language             00542e80     LIBCMTD:getqloc.obj
 0003:0002a228       ??_C@_1BC@LLOKLNP@?$AAa?$AAm?$AAe?$AAr?$AAi?$AAc?$AAa?$AAn?$AA?$AA@ 00543228     LIBCMTD:getqloc.obj
 0003:0002a240       ??_C@_1CC@HEIGCDGG@?$AAa?$AAm?$AAe?$AAr?$AAi?$AAc?$AAa?$AAn?$AA?5?$AAe?$AAn?$AAg?$AAl?$AAi?$AAs?$AAh?$AA?$AA@ 00543240     LIBCMTD:getqloc.obj
 0003:0002a268       ??_C@_1CC@IHCNOMIN@?$AAa?$AAm?$AAe?$AAr?$AAi?$AAc?$AAa?$AAn?$AA?9?$AAe?$AAn?$AAg?$AAl?$AAi?$AAs?$AAh?$AA?$AA@ 00543268     LIBCMTD:getqloc.obj
 0003:0002a290       ??_C@_1BG@GKAGPCGG@?$AAa?$AAu?$AAs?$AAt?$AAr?$AAa?$AAl?$AAi?$AAa?$AAn?$AA?$AA@ 00543290     LIBCMTD:getqloc.obj
 0003:0002a2ac       ??_C@_1BA@GMENCENF@?$AAb?$AAe?$AAl?$AAg?$AAi?$AAa?$AAn?$AA?$AA@ 005432ac     LIBCMTD:getqloc.obj
 0003:0002a2c0       ??_C@_1BC@PJMIIAAN@?$AAc?$AAa?$AAn?$AAa?$AAd?$AAi?$AAa?$AAn?$AA?$AA@ 005432c0     LIBCMTD:getqloc.obj
 0003:0002a2d8       ??_C@_17NOIMNFBF@?$AAc?$AAh?$AAh?$AA?$AA@ 005432d8     LIBCMTD:getqloc.obj
 0003:0002a2e4       ??_C@_17GGDALCHA@?$AAc?$AAh?$AAi?$AA?$AA@ 005432e4     LIBCMTD:getqloc.obj
 0003:0002a2f0       ??_C@_1BA@NPNJKIBL@?$AAc?$AAh?$AAi?$AAn?$AAe?$AAs?$AAe?$AA?$AA@ 005432f0     LIBCMTD:getqloc.obj
 0003:0002a304       ??_C@_1CC@DINBAMMJ@?$AAc?$AAh?$AAi?$AAn?$AAe?$AAs?$AAe?$AA?9?$AAh?$AAo?$AAn?$AAg?$AAk?$AAo?$AAn?$AAg?$AA?$AA@ 00543304     LIBCMTD:getqloc.obj
 0003:0002a32c       ??_C@_1CG@IOBJPACO@?$AAc?$AAh?$AAi?$AAn?$AAe?$AAs?$AAe?$AA?9?$AAs?$AAi?$AAm?$AAp?$AAl?$AAi?$AAf?$AAi?$AAe?$AAd?$AA?$AA@ 0054332c     LIBCMTD:getqloc.obj
 0003:0002a35c       ??_C@_1CE@GAJNDCKG@?$AAc?$AAh?$AAi?$AAn?$AAe?$AAs?$AAe?$AA?9?$AAs?$AAi?$AAn?$AAg?$AAa?$AAp?$AAo?$AAr?$AAe?$AA?$AA@ 0054335c     LIBCMTD:getqloc.obj
 0003:0002a388       ??_C@_1CI@PAJPIOOD@?$AAc?$AAh?$AAi?$AAn?$AAe?$AAs?$AAe?$AA?9?$AAt?$AAr?$AAa?$AAd?$AAi?$AAt?$AAi?$AAo?$AAn?$AAa?$AAl?$AA?$AA@ 00543388     LIBCMTD:getqloc.obj
 0003:0002a3b8       ??_C@_1BM@NILJBMMD@?$AAd?$AAu?$AAt?$AAc?$AAh?$AA?9?$AAb?$AAe?$AAl?$AAg?$AAi?$AAa?$AAn?$AA?$AA@ 005433b8     LIBCMTD:getqloc.obj
 0003:0002a3dc       ??_C@_1CC@OOJPJNEJ@?$AAe?$AAn?$AAg?$AAl?$AAi?$AAs?$AAh?$AA?9?$AAa?$AAm?$AAe?$AAr?$AAi?$AAc?$AAa?$AAn?$AA?$AA@ 005433dc     LIBCMTD:getqloc.obj
 0003:0002a404       ??_C@_1BI@IOLFEEM@?$AAe?$AAn?$AAg?$AAl?$AAi?$AAs?$AAh?$AA?9?$AAa?$AAu?$AAs?$AA?$AA@ 00543404     LIBCMTD:getqloc.obj
 0003:0002a420       ??_C@_1BO@HFFNLENJ@?$AAe?$AAn?$AAg?$AAl?$AAi?$AAs?$AAh?$AA?9?$AAb?$AAe?$AAl?$AAi?$AAz?$AAe?$AA?$AA@ 00543420     LIBCMTD:getqloc.obj
 0003:0002a444       ??_C@_1BI@HAPKJMPO@?$AAe?$AAn?$AAg?$AAl?$AAi?$AAs?$AAh?$AA?9?$AAc?$AAa?$AAn?$AA?$AA@ 00543444     LIBCMTD:getqloc.obj
 0003:0002a460       ??_C@_1CE@HLNDMIOJ@?$AAe?$AAn?$AAg?$AAl?$AAi?$AAs?$AAh?$AA?9?$AAc?$AAa?$AAr?$AAi?$AAb?$AAb?$AAe?$AAa?$AAn?$AA?$AA@ 00543460     LIBCMTD:getqloc.obj
 0003:0002a48c       ??_C@_1BI@LDHJHHAC@?$AAe?$AAn?$AAg?$AAl?$AAi?$AAs?$AAh?$AA?9?$AAi?$AAr?$AAe?$AA?$AA@ 0054348c     LIBCMTD:getqloc.obj
 0003:0002a4a8       ??_C@_1CA@NJMMCFOC@?$AAe?$AAn?$AAg?$AAl?$AAi?$AAs?$AAh?$AA?9?$AAj?$AAa?$AAm?$AAa?$AAi?$AAc?$AAa?$AA?$AA@ 005434a8     LIBCMTD:getqloc.obj
 0003:0002a4d0       ??_C@_1BG@BHJEBBGG@?$AAe?$AAn?$AAg?$AAl?$AAi?$AAs?$AAh?$AA?9?$AAn?$AAz?$AA?$AA@ 005434d0     LIBCMTD:getqloc.obj
 0003:0002a4ec       ??_C@_1CK@FGOEJJCO@?$AAe?$AAn?$AAg?$AAl?$AAi?$AAs?$AAh?$AA?9?$AAs?$AAo?$AAu?$AAt?$AAh?$AA?5?$AAa?$AAf?$AAr?$AAi?$AAc?$AAa?$AA?$AA@ 005434ec     LIBCMTD:getqloc.obj
 0003:0002a520       ??_C@_1DE@PDBJPCJ@?$AAe?$AAn?$AAg?$AAl?$AAi?$AAs?$AAh?$AA?9?$AAt?$AAr?$AAi?$AAn?$AAi?$AAd?$AAa?$AAd?$AA?5?$AAy?$AA?5?$AAt?$AAo?$AAb?$AAa?$AAg?$AAo?$AA?$AA@ 00543520     LIBCMTD:getqloc.obj
 0003:0002a560       ??_C@_1BG@JGCANDME@?$AAe?$AAn?$AAg?$AAl?$AAi?$AAs?$AAh?$AA?9?$AAu?$AAk?$AA?$AA@ 00543560     LIBCMTD:getqloc.obj
 0003:0002a57c       ??_C@_1BG@DINKMLE@?$AAe?$AAn?$AAg?$AAl?$AAi?$AAs?$AAh?$AA?9?$AAu?$AAs?$AA?$AA@ 0054357c     LIBCMTD:getqloc.obj
 0003:0002a598       ??_C@_1BI@NMFDBHJE@?$AAe?$AAn?$AAg?$AAl?$AAi?$AAs?$AAh?$AA?9?$AAu?$AAs?$AAa?$AA?$AA@ 00543598     LIBCMTD:getqloc.obj
 0003:0002a5b4       ??_C@_1BO@OIHKJKII@?$AAf?$AAr?$AAe?$AAn?$AAc?$AAh?$AA?9?$AAb?$AAe?$AAl?$AAg?$AAi?$AAa?$AAn?$AA?$AA@ 005435b4     LIBCMTD:getqloc.obj
 0003:0002a5d8       ??_C@_1CA@NKAELJKI@?$AAf?$AAr?$AAe?$AAn?$AAc?$AAh?$AA?9?$AAc?$AAa?$AAn?$AAa?$AAd?$AAi?$AAa?$AAn?$AA?$AA@ 005435d8     LIBCMTD:getqloc.obj
 0003:0002a600       ??_C@_1CE@MGKCNLGN@?$AAf?$AAr?$AAe?$AAn?$AAc?$AAh?$AA?9?$AAl?$AAu?$AAx?$AAe?$AAm?$AAb?$AAo?$AAu?$AAr?$AAg?$AA?$AA@ 00543600     LIBCMTD:getqloc.obj
 0003:0002a62c       ??_C@_1BK@CEGEAILM@?$AAf?$AAr?$AAe?$AAn?$AAc?$AAh?$AA?9?$AAs?$AAw?$AAi?$AAs?$AAs?$AA?$AA@ 0054362c     LIBCMTD:getqloc.obj
 0003:0002a64c       ??_C@_1CA@PAFKEOCC@?$AAg?$AAe?$AAr?$AAm?$AAa?$AAn?$AA?9?$AAa?$AAu?$AAs?$AAt?$AAr?$AAi?$AAa?$AAn?$AA?$AA@ 0054364c     LIBCMTD:getqloc.obj
 0003:0002a674       ??_C@_1CI@HCFHGOFD@?$AAg?$AAe?$AAr?$AAm?$AAa?$AAn?$AA?9?$AAl?$AAi?$AAc?$AAh?$AAt?$AAe?$AAn?$AAs?$AAt?$AAe?$AAi?$AAn?$AA?$AA@ 00543674     LIBCMTD:getqloc.obj
 0003:0002a6a4       ??_C@_1CE@FEDDNPDG@?$AAg?$AAe?$AAr?$AAm?$AAa?$AAn?$AA?9?$AAl?$AAu?$AAx?$AAe?$AAm?$AAb?$AAo?$AAu?$AAr?$AAg?$AA?$AA@ 005436a4     LIBCMTD:getqloc.obj
 0003:0002a6d0       ??_C@_1BK@LIMINNMN@?$AAg?$AAe?$AAr?$AAm?$AAa?$AAn?$AA?9?$AAs?$AAw?$AAi?$AAs?$AAs?$AA?$AA@ 005436d0     LIBCMTD:getqloc.obj
 0003:0002a6f0       ??_C@_1BM@LGMDBEPD@?$AAi?$AAr?$AAi?$AAs?$AAh?$AA?9?$AAe?$AAn?$AAg?$AAl?$AAi?$AAs?$AAh?$AA?$AA@ 005436f0     LIBCMTD:getqloc.obj
 0003:0002a714       ??_C@_1BM@NNCFBAEE@?$AAi?$AAt?$AAa?$AAl?$AAi?$AAa?$AAn?$AA?9?$AAs?$AAw?$AAi?$AAs?$AAs?$AA?$AA@ 00543714     LIBCMTD:getqloc.obj
 0003:0002a738       ??_C@_1BE@FEDJNPIB@?$AAn?$AAo?$AAr?$AAw?$AAe?$AAg?$AAi?$AAa?$AAn?$AA?$AA@ 00543738     LIBCMTD:getqloc.obj
 0003:0002a750       ??_C@_1CC@CILKDEIE@?$AAn?$AAo?$AAr?$AAw?$AAe?$AAg?$AAi?$AAa?$AAn?$AA?9?$AAb?$AAo?$AAk?$AAm?$AAa?$AAl?$AA?$AA@ 00543750     LIBCMTD:getqloc.obj
 0003:0002a778       ??_C@_1CE@DHMMHEPL@?$AAn?$AAo?$AAr?$AAw?$AAe?$AAg?$AAi?$AAa?$AAn?$AA?9?$AAn?$AAy?$AAn?$AAo?$AAr?$AAs?$AAk?$AA?$AA@ 00543778     LIBCMTD:getqloc.obj
 0003:0002a7a4       ??_C@_1CK@OPNMHECD@?$AAp?$AAo?$AAr?$AAt?$AAu?$AAg?$AAu?$AAe?$AAs?$AAe?$AA?9?$AAb?$AAr?$AAa?$AAz?$AAi?$AAl?$AAi?$AAa?$AAn?$AA?$AA@ 005437a4     LIBCMTD:getqloc.obj
 0003:0002a7d8       ??_C@_1CE@KEEHCDB@?$AAs?$AAp?$AAa?$AAn?$AAi?$AAs?$AAh?$AA?9?$AAa?$AAr?$AAg?$AAe?$AAn?$AAt?$AAi?$AAn?$AAa?$AA?$AA@ 005437d8     LIBCMTD:getqloc.obj
 0003:0002a804       ??_C@_1CA@GIAOLHJD@?$AAs?$AAp?$AAa?$AAn?$AAi?$AAs?$AAh?$AA?9?$AAb?$AAo?$AAl?$AAi?$AAv?$AAi?$AAa?$AA?$AA@ 00543804     LIBCMTD:getqloc.obj
 0003:0002a82c       ??_C@_1BM@OJNDFNPD@?$AAs?$AAp?$AAa?$AAn?$AAi?$AAs?$AAh?$AA?9?$AAc?$AAh?$AAi?$AAl?$AAe?$AA?$AA@ 0054382c     LIBCMTD:getqloc.obj
 0003:0002a850       ??_C@_1CC@OCOLPALL@?$AAs?$AAp?$AAa?$AAn?$AAi?$AAs?$AAh?$AA?9?$AAc?$AAo?$AAl?$AAo?$AAm?$AAb?$AAi?$AAa?$AA?$AA@ 00543850     LIBCMTD:getqloc.obj
 0003:0002a878       ??_C@_1CG@BPOFMKBB@?$AAs?$AAp?$AAa?$AAn?$AAi?$AAs?$AAh?$AA?9?$AAc?$AAo?$AAs?$AAt?$AAa?$AA?5?$AAr?$AAi?$AAc?$AAa?$AA?$AA@ 00543878     LIBCMTD:getqloc.obj
 0003:0002a8a8       ??_C@_1DG@IGOBAPBB@?$AAs?$AAp?$AAa?$AAn?$AAi?$AAs?$AAh?$AA?9?$AAd?$AAo?$AAm?$AAi?$AAn?$AAi?$AAc?$AAa?$AAn?$AA?5?$AAr?$AAe?$AAp?$AAu?$AAb?$AAl?$AAi?$AAc?$AA?$AA@ 005438a8     LIBCMTD:getqloc.obj
 0003:0002a8e8       ??_C@_1CA@JHAPGEGI@?$AAs?$AAp?$AAa?$AAn?$AAi?$AAs?$AAh?$AA?9?$AAe?$AAc?$AAu?$AAa?$AAd?$AAo?$AAr?$AA?$AA@ 005438e8     LIBCMTD:getqloc.obj
 0003:0002a910       ??_C@_1CI@LAPALJPP@?$AAs?$AAp?$AAa?$AAn?$AAi?$AAs?$AAh?$AA?9?$AAe?$AAl?$AA?5?$AAs?$AAa?$AAl?$AAv?$AAa?$AAd?$AAo?$AAr?$AA?$AA@ 00543910     LIBCMTD:getqloc.obj
 0003:0002a940       ??_C@_1CE@PDGBOFOM@?$AAs?$AAp?$AAa?$AAn?$AAi?$AAs?$AAh?$AA?9?$AAg?$AAu?$AAa?$AAt?$AAe?$AAm?$AAa?$AAl?$AAa?$AA?$AA@ 00543940     LIBCMTD:getqloc.obj
 0003:0002a96c       ??_C@_1CC@NBEBAODI@?$AAs?$AAp?$AAa?$AAn?$AAi?$AAs?$AAh?$AA?9?$AAh?$AAo?$AAn?$AAd?$AAu?$AAr?$AAa?$AAs?$AA?$AA@ 0054396c     LIBCMTD:getqloc.obj
 0003:0002a994       ??_C@_1CA@LLKGHBMF@?$AAs?$AAp?$AAa?$AAn?$AAi?$AAs?$AAh?$AA?9?$AAm?$AAe?$AAx?$AAi?$AAc?$AAa?$AAn?$AA?$AA@ 00543994     LIBCMTD:getqloc.obj
 0003:0002a9bc       ??_C@_1BO@LKNDOIGD@?$AAs?$AAp?$AAa?$AAn?$AAi?$AAs?$AAh?$AA?9?$AAm?$AAo?$AAd?$AAe?$AAr?$AAn?$AA?$AA@ 005439bc     LIBCMTD:getqloc.obj
 0003:0002a9e0       ??_C@_1CE@NMDMOEEB@?$AAs?$AAp?$AAa?$AAn?$AAi?$AAs?$AAh?$AA?9?$AAn?$AAi?$AAc?$AAa?$AAr?$AAa?$AAg?$AAu?$AAa?$AA?$AA@ 005439e0     LIBCMTD:getqloc.obj
 0003:0002aa0c       ??_C@_1BO@LLCBEJGB@?$AAs?$AAp?$AAa?$AAn?$AAi?$AAs?$AAh?$AA?9?$AAp?$AAa?$AAn?$AAa?$AAm?$AAa?$AA?$AA@ 00543a0c     LIBCMTD:getqloc.obj
 0003:0002aa30       ??_C@_1CC@FKPGGIHO@?$AAs?$AAp?$AAa?$AAn?$AAi?$AAs?$AAh?$AA?9?$AAp?$AAa?$AAr?$AAa?$AAg?$AAu?$AAa?$AAy?$AA?$AA@ 00543a30     LIBCMTD:getqloc.obj
 0003:0002aa58       ??_C@_1BK@CDEIHOOP@?$AAs?$AAp?$AAa?$AAn?$AAi?$AAs?$AAh?$AA?9?$AAp?$AAe?$AAr?$AAu?$AA?$AA@ 00543a58     LIBCMTD:getqloc.obj
 0003:0002aa78       ??_C@_1CI@GAHAKKGP@?$AAs?$AAp?$AAa?$AAn?$AAi?$AAs?$AAh?$AA?9?$AAp?$AAu?$AAe?$AAr?$AAt?$AAo?$AA?5?$AAr?$AAi?$AAc?$AAo?$AA?$AA@ 00543a78     LIBCMTD:getqloc.obj
 0003:0002aaa8       ??_C@_1CA@NKJBCAGP@?$AAs?$AAp?$AAa?$AAn?$AAi?$AAs?$AAh?$AA?9?$AAu?$AAr?$AAu?$AAg?$AAu?$AAa?$AAy?$AA?$AA@ 00543aa8     LIBCMTD:getqloc.obj
 0003:0002aad0       ??_C@_1CE@ODILCONM@?$AAs?$AAp?$AAa?$AAn?$AAi?$AAs?$AAh?$AA?9?$AAv?$AAe?$AAn?$AAe?$AAz?$AAu?$AAe?$AAl?$AAa?$AA?$AA@ 00543ad0     LIBCMTD:getqloc.obj
 0003:0002aafc       ??_C@_1CA@OBNMCGFO@?$AAs?$AAw?$AAe?$AAd?$AAi?$AAs?$AAh?$AA?9?$AAf?$AAi?$AAn?$AAl?$AAa?$AAn?$AAd?$AA?$AA@ 00543afc     LIBCMTD:getqloc.obj
 0003:0002ab24       ??_C@_1M@PIPDDPPI@?$AAs?$AAw?$AAi?$AAs?$AAs?$AA?$AA@ 00543b24     LIBCMTD:getqloc.obj
 0003:0002ab34       ??_C@_15PJPFLCCM@?$AAu?$AAk?$AA?$AA@ 00543b34     LIBCMTD:getqloc.obj
 0003:0002ab3c       ??_C@_15GMFIMNFM@?$AAu?$AAs?$AA?$AA@ 00543b3c     LIBCMTD:getqloc.obj
 0003:0002ab44       ??_C@_17HAEBFAGL@?$AAu?$AAs?$AAa?$AA?$AA@ 00543b44     LIBCMTD:getqloc.obj
 0003:0002ab50       ___rg_country              00543b50     LIBCMTD:getqloc.obj
 0003:0002ac9c       ??_C@_1BA@DPFJEPHB@?$AAa?$AAm?$AAe?$AAr?$AAi?$AAc?$AAa?$AA?$AA@ 00543c9c     LIBCMTD:getqloc.obj
 0003:0002acb0       ??_C@_1BA@ELOGGFK@?$AAb?$AAr?$AAi?$AAt?$AAa?$AAi?$AAn?$AA?$AA@ 00543cb0     LIBCMTD:getqloc.obj
 0003:0002acc4       ??_C@_1M@GHBGIGDA@?$AAc?$AAh?$AAi?$AAn?$AAa?$AA?$AA@ 00543cc4     LIBCMTD:getqloc.obj
 0003:0002acd4       ??_C@_1M@NCHEJOPO@?$AAc?$AAz?$AAe?$AAc?$AAh?$AA?$AA@ 00543cd4     LIBCMTD:getqloc.obj
 0003:0002ace4       ??_C@_1BA@BKPAPBLA@?$AAe?$AAn?$AAg?$AAl?$AAa?$AAn?$AAd?$AA?$AA@ 00543ce4     LIBCMTD:getqloc.obj
 0003:0002acf8       ??_C@_1BM@HKBCKIPC@?$AAg?$AAr?$AAe?$AAa?$AAt?$AA?5?$AAb?$AAr?$AAi?$AAt?$AAa?$AAi?$AAn?$AA?$AA@ 00543cf8     LIBCMTD:getqloc.obj
 0003:0002ad1c       ??_C@_1BA@PPCHPGJB@?$AAh?$AAo?$AAl?$AAl?$AAa?$AAn?$AAd?$AA?$AA@ 00543d1c     LIBCMTD:getqloc.obj
 0003:0002ad30       ??_C@_1BE@JBMPEGDG@?$AAh?$AAo?$AAn?$AAg?$AA?9?$AAk?$AAo?$AAn?$AAg?$AA?$AA@ 00543d30     LIBCMTD:getqloc.obj
 0003:0002ad48       ??_C@_1BI@KOELBBPJ@?$AAn?$AAe?$AAw?$AA?9?$AAz?$AAe?$AAa?$AAl?$AAa?$AAn?$AAd?$AA?$AA@ 00543d48     LIBCMTD:getqloc.obj
 0003:0002ad64       ??_C@_15HIEBHAIO@?$AAn?$AAz?$AA?$AA@ 00543d64     LIBCMTD:getqloc.obj
 0003:0002ad6c       ??_C@_1BC@CHBCPFPI@?$AAp?$AAr?$AA?5?$AAc?$AAh?$AAi?$AAn?$AAa?$AA?$AA@ 00543d6c     LIBCMTD:getqloc.obj
 0003:0002ad84       ??_C@_1BC@JAOIIFKD@?$AAp?$AAr?$AA?9?$AAc?$AAh?$AAi?$AAn?$AAa?$AA?$AA@ 00543d84     LIBCMTD:getqloc.obj
 0003:0002ad9c       ??_C@_1BI@BEHPPHKC@?$AAp?$AAu?$AAe?$AAr?$AAt?$AAo?$AA?9?$AAr?$AAi?$AAc?$AAo?$AA?$AA@ 00543d9c     LIBCMTD:getqloc.obj
 0003:0002adb8       ??_C@_1O@PAEOFKDI@?$AAs?$AAl?$AAo?$AAv?$AAa?$AAk?$AA?$AA@ 00543db8     LIBCMTD:getqloc.obj
 0003:0002adc8       ??_C@_1BK@FIHMCKAM@?$AAs?$AAo?$AAu?$AAt?$AAh?$AA?5?$AAa?$AAf?$AAr?$AAi?$AAc?$AAa?$AA?$AA@ 00543dc8     LIBCMTD:getqloc.obj
 0003:0002ade8       ??_C@_1BI@NAEOODKB@?$AAs?$AAo?$AAu?$AAt?$AAh?$AA?5?$AAk?$AAo?$AAr?$AAe?$AAa?$AA?$AA@ 00543de8     LIBCMTD:getqloc.obj
 0003:0002ae04       ??_C@_1BK@FBDGGIFF@?$AAs?$AAo?$AAu?$AAt?$AAh?$AA?9?$AAa?$AAf?$AAr?$AAi?$AAc?$AAa?$AA?$AA@ 00543e04     LIBCMTD:getqloc.obj
 0003:0002ae24       ??_C@_1BI@GHLEJDPK@?$AAs?$AAo?$AAu?$AAt?$AAh?$AA?9?$AAk?$AAo?$AAr?$AAe?$AAa?$AA?$AA@ 00543e24     LIBCMTD:getqloc.obj
 0003:0002ae40       ??_C@_1CE@PLHLOMJF@?$AAt?$AAr?$AAi?$AAn?$AAi?$AAd?$AAa?$AAd?$AA?5?$AA?$CG?$AA?5?$AAt?$AAo?$AAb?$AAa?$AAg?$AAo?$AA?$AA@ 00543e40     LIBCMTD:getqloc.obj
 0003:0002ae6c       ??_C@_1BO@MODIMHHI@?$AAu?$AAn?$AAi?$AAt?$AAe?$AAd?$AA?9?$AAk?$AAi?$AAn?$AAg?$AAd?$AAo?$AAm?$AA?$AA@ 00543e6c     LIBCMTD:getqloc.obj
 0003:0002ae90       ??_C@_1BM@FFHJONBJ@?$AAu?$AAn?$AAi?$AAt?$AAe?$AAd?$AA?9?$AAs?$AAt?$AAa?$AAt?$AAe?$AAs?$AA?$AA@ 00543e90     LIBCMTD:getqloc.obj
 0003:0002aeb4       ___rg_language_count       00543eb4     LIBCMTD:getqloc.obj
 0003:0002aeb8       ___rg_country_count        00543eb8     LIBCMTD:getqloc.obj
 0003:0002aec0       ??_C@_1FA@KCJCBMIG@?$AAf?$AA?3?$AA?2?$AAd?$AAd?$AA?2?$AAv?$AAc?$AAt?$AAo?$AAo?$AAl?$AAs?$AA?2?$AAc?$AAr?$AAt?$AA?2?$AAc?$AAr?$AAt?$AAw?$AA3?$AA2?$AA?2?$AAm?$AAi?$AAs?$AAc?$AA?2?$AAg?$AAe@ 00543ec0     LIBCMTD:getqloc.obj
 0003:0002af20       ??_C@_1CO@NJACLALJ@?$AA_?$AA_?$AAg?$AAe?$AAt?$AA_?$AAq?$AAu?$AAa?$AAl?$AAi?$AAf?$AAi?$AAe?$AAd?$AA_?$AAl?$AAo?$AAc?$AAa?$AAl?$AAe?$AA?$AA@ 00543f20     LIBCMTD:getqloc.obj
 0003:0002af58       ??_C@_1BGM@FCCPEFDE@?$AAw?$AAc?$AAs?$AAn?$AAc?$AAp?$AAy?$AA_?$AAs?$AA?$CI?$AAl?$AAp?$AAO?$AAu?$AAt?$AAS?$AAt?$AAr?$AA?9?$AA?$DO?$AAs?$AAz?$AAL?$AAo?$AAc?$AAa?$AAl?$AAe?$AAN?$AAa?$AAm?$AAe@ 00543f58     LIBCMTD:getqloc.obj
 0003:0002b10c       ??_C@_1CM@OGEMFJNJ@?$AAL?$AAa?$AAn?$AAg?$AAC?$AAo?$AAu?$AAn?$AAt?$AAr?$AAy?$AAE?$AAn?$AAu?$AAm?$AAP?$AAr?$AAo?$AAc?$AAE?$AAx?$AA?$AA@ 0054410c     LIBCMTD:getqloc.obj
 0003:0002b140       ??_C@_1BFO@LLJKJAIC@?$AAw?$AAc?$AAs?$AAn?$AAc?$AAp?$AAy?$AA_?$AAs?$AA?$CI?$AA_?$AAp?$AAs?$AAe?$AAt?$AAl?$AAo?$AAc?$AA_?$AAd?$AAa?$AAt?$AAa?$AA?9?$AA?$DO?$AA_?$AAc?$AAa?$AAc?$AAh?$AAe?$AAL@ 00544140     LIBCMTD:getqloc.obj
 0003:0002b2e4       ??_C@_1CG@PGLLICHO@?$AAL?$AAa?$AAn?$AAg?$AAu?$AAa?$AAg?$AAe?$AAE?$AAn?$AAu?$AAm?$AAP?$AAr?$AAo?$AAc?$AAE?$AAx?$AA?$AA@ 005442e4     LIBCMTD:getqloc.obj
 0003:0002b314       ??_C@_1DC@CPKFANGP@?$AAG?$AAe?$AAt?$AAL?$AAo?$AAc?$AAa?$AAl?$AAe?$AAN?$AAa?$AAm?$AAe?$AAF?$AAr?$AAo?$AAm?$AAD?$AAe?$AAf?$AAa?$AAu?$AAl?$AAt?$AA?$AA@ 00544314     LIBCMTD:getqloc.obj
 0003:0002b350       ??_C@_1BEO@EJBNGKHB@?$AAw?$AAc?$AAs?$AAn?$AAc?$AAp?$AAy?$AA_?$AAs?$AA?$CI?$AA_?$AAp?$AAs?$AAe?$AAt?$AAl?$AAo?$AAc?$AA_?$AAd?$AAa?$AAt?$AAa?$AA?9?$AA?$DO?$AA_?$AAc?$AAa?$AAc?$AAh?$AAe?$AAL@ 00544350     LIBCMTD:getqloc.obj
 0003:0002b4e0       ??_C@_17DNCLJFIF@?$AAA?$AAC?$AAP?$AA?$AA@ 005444e0     LIBCMTD:getqloc.obj
 0003:0002b4ec       ??_C@_17CIKBIHLH@?$AAO?$AAC?$AAP?$AA?$AA@ 005444ec     LIBCMTD:getqloc.obj
 0003:0002b4f8       ___rglangidNotDefault      005444f8     LIBCMTD:getqloc_downlevel.obj
 0003:0002b510       ??_C@_15EDMHLDMO@?$AAc?$AAa?$AA?$AA@ 00544510     LIBCMTD:winapinls.obj
 0003:0002b518       ??_C@_1O@BPEAJADD@?$AAz?$AAh?$AA?9?$AAC?$AAH?$AAS?$AA?$AA@ 00544518     LIBCMTD:winapinls.obj
 0003:0002b528       ??_C@_15LJNHCMNK@?$AAc?$AAs?$AA?$AA@ 00544528     LIBCMTD:winapinls.obj
 0003:0002b530       ??_C@_15FOMCIDHG@?$AAd?$AAa?$AA?$AA@ 00544530     LIBCMTD:winapinls.obj
 0003:0002b538       ??_C@_15NBKABECB@?$AAd?$AAe?$AA?$AA@ 00544538     LIBCMTD:winapinls.obj
 0003:0002b540       ??_C@_15GHPEIIAO@?$AAe?$AAl?$AA?$AA@ 00544540     LIBCMTD:winapinls.obj
 0003:0002b548       ??_C@_15MNPNEAIF@?$AAe?$AAn?$AA?$AA@ 00544548     LIBCMTD:winapinls.obj
 0003:0002b550       ??_C@_15GPIOMPMH@?$AAe?$AAs?$AA?$AA@ 00544550     LIBCMTD:winapinls.obj
 0003:0002b558       ??_C@_15NGLOAKJC@?$AAf?$AAi?$AA?$AA@ 00544558     LIBCMTD:winapinls.obj
 0003:0002b560       ??_C@_15FBKGNKAM@?$AAf?$AAr?$AA?$AA@ 00544560     LIBCMTD:winapinls.obj
 0003:0002b568       ??_C@_15KGGCNEFK@?$AAh?$AAe?$AA?$AA@ 00544568     LIBCMTD:winapinls.obj
 0003:0002b570       ??_C@_15PGHLIDMF@?$AAh?$AAu?$AA?$AA@ 00544570     LIBCMTD:winapinls.obj
 0003:0002b578       ??_C@_15BIEMAPLM@?$AAi?$AAs?$AA?$AA@ 00544578     LIBCMTD:winapinls.obj
 0003:0002b580       ??_C@_15IFJLDHAF@?$AAi?$AAt?$AA?$AA@ 00544580     LIBCMTD:winapinls.obj
 0003:0002b588       ??_C@_15GEMIOCAG@?$AAj?$AAa?$AA?$AA@ 00544588     LIBCMTD:winapinls.obj
 0003:0002b590       ??_C@_15EPELEGJA@?$AAk?$AAo?$AA?$AA@ 00544590     LIBCMTD:winapinls.obj
 0003:0002b598       ??_C@_15NDDHIMN@?$AAn?$AAl?$AA?$AA@ 00544598     LIBCMTD:winapinls.obj
 0003:0002b5a0       ??_C@_15BPIGNHCD@?$AAn?$AAo?$AA?$AA@ 005445a0     LIBCMTD:winapinls.obj
 0003:0002b5a8       ??_C@_15DEOPBLCG@?$AAp?$AAl?$AA?$AA@ 005445a8     LIBCMTD:winapinls.obj
 0003:0002b5b0       ??_C@_15KBECGEFG@?$AAp?$AAt?$AA?$AA@ 005445b0     LIBCMTD:winapinls.obj
 0003:0002b5b8       ??_C@_15GLJCBFMD@?$AAr?$AAo?$AA?$AA@ 005445b8     LIBCMTD:winapinls.obj
 0003:0002b5c0       ??_C@_15FEDGKCDI@?$AAr?$AAu?$AA?$AA@ 005445c0     LIBCMTD:winapinls.obj
 0003:0002b5c8       ??_C@_15GLKMLLHM@?$AAh?$AAr?$AA?$AA@ 005445c8     LIBCMTD:winapinls.obj
 0003:0002b5d0       ??_C@_15CPKMFBDB@?$AAs?$AAk?$AA?$AA@ 005445d0     LIBCMTD:winapinls.obj
 0003:0002b5d8       ??_C@_15BAAIOGMK@?$AAs?$AAq?$AA?$AA@ 005445d8     LIBCMTD:winapinls.obj
 0003:0002b5e0       ??_C@_15INNPNOHD@?$AAs?$AAv?$AA?$AA@ 005445e0     LIBCMTD:winapinls.obj
 0003:0002b5e8       ??_C@_15CABMMOGH@?$AAt?$AAh?$AA?$AA@ 005445e8     LIBCMTD:winapinls.obj
 0003:0002b5f0       ??_C@_15BPLIHJJM@?$AAt?$AAr?$AA?$AA@ 005445f0     LIBCMTD:winapinls.obj
 0003:0002b5f8       ??_C@_15NEOEKKDJ@?$AAu?$AAr?$AA?$AA@ 005445f8     LIBCMTD:winapinls.obj
 0003:0002b600       ??_C@_15NFICGAJK@?$AAi?$AAd?$AA?$AA@ 00544600     LIBCMTD:winapinls.obj
 0003:0002b608       ??_C@_15HPJPHDM@?$AAb?$AAe?$AA?$AA@ 00544608     LIBCMTD:winapinls.obj
 0003:0002b610       ??_C@_15LCHLGJII@?$AAs?$AAl?$AA?$AA@ 00544610     LIBCMTD:winapinls.obj
 0003:0002b618       ??_C@_15PCFJPHHO@?$AAe?$AAt?$AA?$AA@ 00544618     LIBCMTD:winapinls.obj
 0003:0002b620       ??_C@_15HPFPGODN@?$AAl?$AAv?$AA?$AA@ 00544620     LIBCMTD:winapinls.obj
 0003:0002b628       ??_C@_15NFFGKGLG@?$AAl?$AAt?$AA?$AA@ 00544628     LIBCMTD:winapinls.obj
 0003:0002b630       ??_C@_15BDAKCCHN@?$AAf?$AAa?$AA?$AA@ 00544630     LIBCMTD:winapinls.obj
 0003:0002b638       ??_C@_15NFGIAIAJ@?$AAv?$AAi?$AA?$AA@ 00544638     LIBCMTD:winapinls.obj
 0003:0002b640       ??_C@_15LMKNDMHN@?$AAh?$AAy?$AA?$AA@ 00544640     LIBCMTD:winapinls.obj
 0003:0002b648       ??_C@_15IJBHMCFL@?$AAa?$AAz?$AA?$AA@ 00544648     LIBCMTD:winapinls.obj
 0003:0002b650       ??_C@_15EKOFJABL@?$AAe?$AAu?$AA?$AA@ 00544650     LIBCMTD:winapinls.obj
 0003:0002b658       ??_C@_15BGHADCNK@?$AAm?$AAk?$AA?$AA@ 00544658     LIBCMTD:winapinls.obj
 0003:0002b660       ??_C@_15JDNICKHM@?$AAa?$AAf?$AA?$AA@ 00544660     LIBCMTD:winapinls.obj
 0003:0002b668       ??_C@_15KPJEDBKD@?$AAk?$AAa?$AA?$AA@ 00544668     LIBCMTD:winapinls.obj
 0003:0002b670       ??_C@_15PDNFFFEO@?$AAf?$AAo?$AA?$AA@ 00544670     LIBCMTD:winapinls.obj
 0003:0002b678       ??_C@_15OMLEGLOC@?$AAh?$AAi?$AA?$AA@ 00544678     LIBCMTD:winapinls.obj
 0003:0002b680       ??_C@_15IDNNENKK@?$AAm?$AAs?$AA?$AA@ 00544680     LIBCMTD:winapinls.obj
 0003:0002b688       ??_C@_15MACJNBMH@?$AAk?$AAk?$AA?$AA@ 00544688     LIBCMTD:winapinls.obj
 0003:0002b690       ??_C@_15DKDJEOND@?$AAk?$AAy?$AA?$AA@ 00544690     LIBCMTD:winapinls.obj
 0003:0002b698       ??_C@_15DFGDLJBG@?$AAs?$AAw?$AA?$AA@ 00544698     LIBCMTD:winapinls.obj
 0003:0002b6a0       ??_C@_15BBFAICNG@?$AAu?$AAz?$AA?$AA@ 005446a0     LIBCMTD:winapinls.obj
 0003:0002b6a8       ??_C@_15DKNDCGEA@?$AAt?$AAt?$AA?$AA@ 005446a8     LIBCMTD:winapinls.obj
 0003:0002b6b0       ??_C@_15MGIFMDPL@?$AAp?$AAa?$AA?$AA@ 005446b0     LIBCMTD:winapinls.obj
 0003:0002b6b8       ??_C@_15HCNDBBA@?$AAg?$AAu?$AA?$AA@ 005446b8     LIBCMTD:winapinls.obj
 0003:0002b6c0       ??_C@_15FNBEIBON@?$AAt?$AAa?$AA?$AA@ 005446c0     LIBCMTD:winapinls.obj
 0003:0002b6c8       ??_C@_15NCHGBGLK@?$AAt?$AAe?$AA?$AA@ 005446c8     LIBCMTD:winapinls.obj
 0003:0002b6d0       ??_C@_15PHPHCBPF@?$AAk?$AAn?$AA?$AA@ 005446d0     LIBCMTD:winapinls.obj
 0003:0002b6d8       ??_C@_15DLGBCKMP@?$AAm?$AAr?$AA?$AA@ 005446d8     LIBCMTD:winapinls.obj
 0003:0002b6e0       ??_C@_15EABBLBFF@?$AAs?$AAa?$AA?$AA@ 005446e0     LIBCMTD:winapinls.obj
 0003:0002b6e8       ??_C@_15CBKOMCOI@?$AAm?$AAn?$AA?$AA@ 005446e8     LIBCMTD:winapinls.obj
 0003:0002b6f0       ??_C@_15CKDMCJAF@?$AAg?$AAl?$AA?$AA@ 005446f0     LIBCMTD:winapinls.obj
 0003:0002b6f8       ??_C@_17CNJFBPG@?$AAk?$AAo?$AAk?$AA?$AA@ 005446f8     LIBCMTD:winapinls.obj
 0003:0002b704       ??_C@_17FFBJICPL@?$AAs?$AAy?$AAr?$AA?$AA@ 00544704     LIBCMTD:winapinls.obj
 0003:0002b710       ??_C@_17KPNDCPAF@?$AAd?$AAi?$AAv?$AA?$AA@ 00544710     LIBCMTD:winapinls.obj
 0003:0002b71c       ??_C@_1M@OKAHONE@?$AAa?$AAr?$AA?9?$AAS?$AAA?$AA?$AA@ 0054471c     LIBCMTD:winapinls.obj
 0003:0002b72c       ??_C@_1M@FFFIGIGK@?$AAb?$AAg?$AA?9?$AAB?$AAG?$AA?$AA@ 0054472c     LIBCMTD:winapinls.obj
 0003:0002b73c       ??_C@_1M@BJNKEDC@?$AAc?$AAa?$AA?9?$AAE?$AAS?$AA?$AA@ 0054473c     LIBCMTD:winapinls.obj
 0003:0002b74c       ??_C@_1M@IJJHFJHA@?$AAc?$AAs?$AA?9?$AAC?$AAZ?$AA?$AA@ 0054474c     LIBCMTD:winapinls.obj
 0003:0002b75c       ??_C@_1M@CLPEOBGI@?$AAd?$AAa?$AA?9?$AAD?$AAK?$AA?$AA@ 0054475c     LIBCMTD:winapinls.obj
 0003:0002b76c       ??_C@_1M@MCMADGCB@?$AAd?$AAe?$AA?9?$AAD?$AAE?$AA?$AA@ 0054476c     LIBCMTD:winapinls.obj
 0003:0002b77c       ??_C@_1M@OOCKEMAM@?$AAe?$AAl?$AA?9?$AAG?$AAR?$AA?$AA@ 0054477c     LIBCMTD:winapinls.obj
 0003:0002b78c       ??_C@_1M@DDNJFGID@?$AAf?$AAi?$AA?9?$AAF?$AAI?$AA?$AA@ 0054478c     LIBCMTD:winapinls.obj
 0003:0002b79c       ??_C@_1M@GLIPPMAC@?$AAf?$AAr?$AA?9?$AAF?$AAR?$AA?$AA@ 0054479c     LIBCMTD:winapinls.obj
 0003:0002b7ac       ??_C@_1M@GFMCHPE@?$AAh?$AAe?$AA?9?$AAI?$AAL?$AA?$AA@ 005447ac     LIBCMTD:winapinls.obj
 0003:0002b7bc       ??_C@_1M@MHLPGNKM@?$AAh?$AAu?$AA?9?$AAH?$AAU?$AA?$AA@ 005447bc     LIBCMTD:winapinls.obj
 0003:0002b7cc       ??_C@_1M@LPDDNNPN@?$AAi?$AAs?$AA?9?$AAI?$AAS?$AA?$AA@ 005447cc     LIBCMTD:winapinls.obj
 0003:0002b7dc       ??_C@_1M@MADIPODN@?$AAi?$AAt?$AA?9?$AAI?$AAT?$AA?$AA@ 005447dc     LIBCMTD:winapinls.obj
 0003:0002b7ec       ??_C@_1M@IHBJJGG@?$AAn?$AAl?$AA?9?$AAN?$AAL?$AA?$AA@ 005447ec     LIBCMTD:winapinls.obj
 0003:0002b7fc       ??_C@_1M@EANAGDL@?$AAn?$AAb?$AA?9?$AAN?$AAO?$AA?$AA@ 005447fc     LIBCMTD:winapinls.obj
 0003:0002b80c       ??_C@_1M@NEIEMEGP@?$AAp?$AAl?$AA?9?$AAP?$AAL?$AA?$AA@ 0054480c     LIBCMTD:winapinls.obj
 0003:0002b81c       ??_C@_1M@BOCFIGEP@?$AAp?$AAt?$AA?9?$AAB?$AAR?$AA?$AA@ 0054481c     LIBCMTD:winapinls.obj
 0003:0002b82c       ??_C@_1M@IMPFOPBG@?$AAr?$AAo?$AA?9?$AAR?$AAO?$AA?$AA@ 0054482c     LIBCMTD:winapinls.obj
 0003:0002b83c       ??_C@_1M@IDNNEJMM@?$AAr?$AAu?$AA?9?$AAR?$AAU?$AA?$AA@ 0054483c     LIBCMTD:winapinls.obj
 0003:0002b84c       ??_C@_1M@LILEEOGM@?$AAh?$AAr?$AA?9?$AAH?$AAR?$AA?$AA@ 0054484c     LIBCMTD:winapinls.obj
 0003:0002b85c       ??_C@_1M@FKIFEHPB@?$AAs?$AAk?$AA?9?$AAS?$AAK?$AA?$AA@ 0054485c     LIBCMTD:winapinls.obj
 0003:0002b86c       ??_C@_1M@LJMAMNPJ@?$AAs?$AAq?$AA?9?$AAA?$AAL?$AA?$AA@ 0054486c     LIBCMTD:winapinls.obj
 0003:0002b87c       ??_C@_1M@GIAKDKJK@?$AAs?$AAv?$AA?9?$AAS?$AAE?$AA?$AA@ 0054487c     LIBCMTD:winapinls.obj
 0003:0002b88c       ??_C@_1M@MKJKIKCL@?$AAt?$AAh?$AA?9?$AAT?$AAH?$AA?$AA@ 0054488c     LIBCMTD:winapinls.obj
 0003:0002b89c       ??_C@_1M@MFLCCMPB@?$AAt?$AAr?$AA?9?$AAT?$AAR?$AA?$AA@ 0054489c     LIBCMTD:winapinls.obj
 0003:0002b8ac       ??_C@_1M@OIJHDKJN@?$AAu?$AAr?$AA?9?$AAP?$AAK?$AA?$AA@ 005448ac     LIBCMTD:winapinls.obj
 0003:0002b8bc       ??_C@_1M@LHIPCIEK@?$AAi?$AAd?$AA?9?$AAI?$AAD?$AA?$AA@ 005448bc     LIBCMTD:winapinls.obj
 0003:0002b8cc       ??_C@_1M@MFMOBGI@?$AAu?$AAk?$AA?9?$AAU?$AAA?$AA?$AA@ 005448cc     LIBCMTD:winapinls.obj
 0003:0002b8dc       ??_C@_1M@OBGLJIPL@?$AAb?$AAe?$AA?9?$AAB?$AAY?$AA?$AA@ 005448dc     LIBCMTD:winapinls.obj
 0003:0002b8ec       ??_C@_1M@BCFAJEAD@?$AAs?$AAl?$AA?9?$AAS?$AAI?$AA?$AA@ 005448ec     LIBCMTD:winapinls.obj
 0003:0002b8fc       ??_C@_1M@FKFFEDDN@?$AAe?$AAt?$AA?9?$AAE?$AAE?$AA?$AA@ 005448fc     LIBCMTD:winapinls.obj
 0003:0002b90c       ??_C@_1M@KGKKAACI@?$AAl?$AAv?$AA?9?$AAL?$AAV?$AA?$AA@ 0054490c     LIBCMTD:winapinls.obj
 0003:0002b91c       ??_C@_1M@IFGBIJO@?$AAl?$AAt?$AA?9?$AAL?$AAT?$AA?$AA@ 0054491c     LIBCMTD:winapinls.obj
 0003:0002b92c       ??_C@_1M@FGEAHEDM@?$AAf?$AAa?$AA?9?$AAI?$AAR?$AA?$AA@ 0054492c     LIBCMTD:winapinls.obj
 0003:0002b93c       ??_C@_1M@KBMAIBFN@?$AAv?$AAi?$AA?9?$AAV?$AAN?$AA?$AA@ 0054493c     LIBCMTD:winapinls.obj
 0003:0002b94c       ??_C@_1M@GPCBKDJK@?$AAh?$AAy?$AA?9?$AAA?$AAM?$AA?$AA@ 0054494c     LIBCMTD:winapinls.obj
 0003:0002b95c       ??_C@_1BG@BECMDDJB@?$AAa?$AAz?$AA?9?$AAA?$AAZ?$AA?9?$AAL?$AAa?$AAt?$AAn?$AA?$AA@ 0054495c     LIBCMTD:winapinls.obj
 0003:0002b978       ??_C@_1M@MAOFCAEA@?$AAe?$AAu?$AA?9?$AAE?$AAS?$AA?$AA@ 00544978     LIBCMTD:winapinls.obj
 0003:0002b988       ??_C@_1M@IGHABKPI@?$AAm?$AAk?$AA?9?$AAM?$AAK?$AA?$AA@ 00544988     LIBCMTD:winapinls.obj
 0003:0002b998       ??_C@_1M@IAIGNEJG@?$AAt?$AAn?$AA?9?$AAZ?$AAA?$AA?$AA@ 00544998     LIBCMTD:winapinls.obj
 0003:0002b9a8       ??_C@_1M@IIJCOJFA@?$AAx?$AAh?$AA?9?$AAZ?$AAA?$AA?$AA@ 005449a8     LIBCMTD:winapinls.obj
 0003:0002b9b8       ??_C@_1M@LGPJHNJH@?$AAz?$AAu?$AA?9?$AAZ?$AAA?$AA?$AA@ 005449b8     LIBCMTD:winapinls.obj
 0003:0002b9c8       ??_C@_1M@HOKAOIO@?$AAa?$AAf?$AA?9?$AAZ?$AAA?$AA?$AA@ 005449c8     LIBCMTD:winapinls.obj
 0003:0002b9d8       ??_C@_1M@DPCLHLIE@?$AAk?$AAa?$AA?9?$AAG?$AAE?$AA?$AA@ 005449d8     LIBCMTD:winapinls.obj
 0003:0002b9e8       ??_C@_1M@BLKMHJBI@?$AAf?$AAo?$AA?9?$AAF?$AAO?$AA?$AA@ 005449e8     LIBCMTD:winapinls.obj
 0003:0002b9f8       ??_C@_1M@LGGJAPPB@?$AAh?$AAi?$AA?9?$AAI?$AAN?$AA?$AA@ 005449f8     LIBCMTD:winapinls.obj
 0003:0002ba08       ??_C@_1M@FIKPIHFE@?$AAm?$AAt?$AA?9?$AAM?$AAT?$AA?$AA@ 00544a08     LIBCMTD:winapinls.obj
 0003:0002ba18       ??_C@_1M@HEGGPBFA@?$AAs?$AAe?$AA?9?$AAN?$AAO?$AA?$AA@ 00544a18     LIBCMTD:winapinls.obj
 0003:0002ba28       ??_C@_1M@EIBJEEPA@?$AAm?$AAs?$AA?9?$AAM?$AAY?$AA?$AA@ 00544a28     LIBCMTD:winapinls.obj
 0003:0002ba38       ??_C@_1M@FHLBGMPP@?$AAk?$AAk?$AA?9?$AAK?$AAZ?$AA?$AA@ 00544a38     LIBCMTD:winapinls.obj
 0003:0002ba48       ??_C@_1M@NGJJLCGI@?$AAk?$AAy?$AA?9?$AAK?$AAG?$AA?$AA@ 00544a48     LIBCMTD:winapinls.obj
 0003:0002ba58       ??_C@_1M@GIENNBFC@?$AAs?$AAw?$AA?9?$AAK?$AAE?$AA?$AA@ 00544a58     LIBCMTD:winapinls.obj
 0003:0002ba68       ??_C@_1BG@NDGMJIMJ@?$AAu?$AAz?$AA?9?$AAU?$AAZ?$AA?9?$AAL?$AAa?$AAt?$AAn?$AA?$AA@ 00544a68     LIBCMTD:winapinls.obj
 0003:0002ba84       ??_C@_1M@IDCCIHBC@?$AAt?$AAt?$AA?9?$AAR?$AAU?$AA?$AA@ 00544a84     LIBCMTD:winapinls.obj
 0003:0002ba94       ??_C@_1M@LOICPMOJ@?$AAb?$AAn?$AA?9?$AAI?$AAN?$AA?$AA@ 00544a94     LIBCMTD:winapinls.obj
 0003:0002baa4       ??_C@_1M@KPKKNEAH@?$AAp?$AAa?$AA?9?$AAI?$AAN?$AA?$AA@ 00544aa4     LIBCMTD:winapinls.obj
 0003:0002bab4       ??_C@_1M@PJGPPBOG@?$AAg?$AAu?$AA?9?$AAI?$AAN?$AA?$AA@ 00544ab4     LIBCMTD:winapinls.obj
 0003:0002bac4       ??_C@_1M@KMKMOPHI@?$AAt?$AAa?$AA?9?$AAI?$AAN?$AA?$AA@ 00544ac4     LIBCMTD:winapinls.obj
 0003:0002bad4       ??_C@_1M@KFEHEPAC@?$AAt?$AAe?$AA?9?$AAI?$AAN?$AA?$AA@ 00544ad4     LIBCMTD:winapinls.obj
 0003:0002bae4       ??_C@_1M@CDCLMGHI@?$AAk?$AAn?$AA?9?$AAI?$AAN?$AA?$AA@ 00544ae4     LIBCMTD:winapinls.obj
 0003:0002baf4       ??_C@_1M@MIODLDKF@?$AAm?$AAl?$AA?9?$AAI?$AAN?$AA?$AA@ 00544af4     LIBCMTD:winapinls.obj
 0003:0002bb04       ??_C@_1M@PBIEACPO@?$AAm?$AAr?$AA?9?$AAI?$AAN?$AA?$AA@ 00544b04     LIBCMTD:winapinls.obj
 0003:0002bb14       ??_C@_1M@NIDEAGPH@?$AAs?$AAa?$AA?9?$AAI?$AAN?$AA?$AA@ 00544b14     LIBCMTD:winapinls.obj
 0003:0002bb24       ??_C@_1M@FHIHCBIO@?$AAm?$AAn?$AA?9?$AAM?$AAN?$AA?$AA@ 00544b24     LIBCMTD:winapinls.obj
 0003:0002bb34       ??_C@_1M@JAIJPENP@?$AAc?$AAy?$AA?9?$AAG?$AAB?$AA?$AA@ 00544b34     LIBCMTD:winapinls.obj
 0003:0002bb44       ??_C@_1M@PHGFBEPN@?$AAg?$AAl?$AA?9?$AAE?$AAS?$AA?$AA@ 00544b44     LIBCMTD:winapinls.obj
 0003:0002bb54       ??_C@_1O@KPIPDNCP@?$AAk?$AAo?$AAk?$AA?9?$AAI?$AAN?$AA?$AA@ 00544b54     LIBCMTD:winapinls.obj
 0003:0002bb64       ??_C@_1O@KNHJLDJA@?$AAs?$AAy?$AAr?$AA?9?$AAS?$AAY?$AA?$AA@ 00544b64     LIBCMTD:winapinls.obj
 0003:0002bb74       ??_C@_1O@MKEKBLAH@?$AAd?$AAi?$AAv?$AA?9?$AAM?$AAV?$AA?$AA@ 00544b74     LIBCMTD:winapinls.obj
 0003:0002bb84       ??_C@_1O@OHDCKDDF@?$AAq?$AAu?$AAz?$AA?9?$AAB?$AAO?$AA?$AA@ 00544b84     LIBCMTD:winapinls.obj
 0003:0002bb94       ??_C@_1M@LEPJNLFD@?$AAn?$AAs?$AA?9?$AAZ?$AAA?$AA?$AA@ 00544b94     LIBCMTD:winapinls.obj
 0003:0002bba4       ??_C@_1M@OMLEIIJB@?$AAm?$AAi?$AA?9?$AAN?$AAZ?$AA?$AA@ 00544ba4     LIBCMTD:winapinls.obj
 0003:0002bbb4       ??_C@_1M@PMPEAILG@?$AAa?$AAr?$AA?9?$AAI?$AAQ?$AA?$AA@ 00544bb4     LIBCMTD:winapinls.obj
 0003:0002bbc4       ??_C@_1M@CNKPNOEE@?$AAd?$AAe?$AA?9?$AAC?$AAH?$AA?$AA@ 00544bc4     LIBCMTD:winapinls.obj
 0003:0002bbd4       ??_C@_1M@LKMGMLKO@?$AAe?$AAn?$AA?9?$AAG?$AAB?$AA?$AA@ 00544bd4     LIBCMTD:winapinls.obj
 0003:0002bbe4       ??_C@_1M@PGKJFFGL@?$AAe?$AAs?$AA?9?$AAM?$AAX?$AA?$AA@ 00544be4     LIBCMTD:winapinls.obj
 0003:0002bbf4       ??_C@_1M@DNNANBDC@?$AAf?$AAr?$AA?9?$AAB?$AAE?$AA?$AA@ 00544bf4     LIBCMTD:winapinls.obj
 0003:0002bc04       ??_C@_1M@HLGMDFHM@?$AAi?$AAt?$AA?9?$AAC?$AAH?$AA?$AA@ 00544c04     LIBCMTD:winapinls.obj
 0003:0002bc14       ??_C@_1M@CLLBGJH@?$AAn?$AAl?$AA?9?$AAB?$AAE?$AA?$AA@ 00544c14     LIBCMTD:winapinls.obj
 0003:0002bc24       ??_C@_1M@BODBOGLF@?$AAn?$AAn?$AA?9?$AAN?$AAO?$AA?$AA@ 00544c24     LIBCMTD:winapinls.obj
 0003:0002bc34       ??_C@_1M@HFFAHKAD@?$AAp?$AAt?$AA?9?$AAP?$AAT?$AA?$AA@ 00544c34     LIBCMTD:winapinls.obj
 0003:0002bc44       ??_C@_1BG@LNOAKHIE@?$AAs?$AAr?$AA?9?$AAS?$AAP?$AA?9?$AAL?$AAa?$AAt?$AAn?$AA?$AA@ 00544c44     LIBCMTD:winapinls.obj
 0003:0002bc60       ??_C@_1M@HBMHBGAK@?$AAs?$AAv?$AA?9?$AAF?$AAI?$AA?$AA@ 00544c60     LIBCMTD:winapinls.obj
 0003:0002bc70       ??_C@_1BG@DGCJGJBE@?$AAa?$AAz?$AA?9?$AAA?$AAZ?$AA?9?$AAC?$AAy?$AAr?$AAl?$AA?$AA@ 00544c70     LIBCMTD:winapinls.obj
 0003:0002bc8c       ??_C@_1M@KEJDAAHB@?$AAs?$AAe?$AA?9?$AAS?$AAE?$AA?$AA@ 00544c8c     LIBCMTD:winapinls.obj
 0003:0002bc9c       ??_C@_1M@HEIBJJAD@?$AAm?$AAs?$AA?9?$AAB?$AAN?$AA?$AA@ 00544c9c     LIBCMTD:winapinls.obj
 0003:0002bcac       ??_C@_1BG@PBGJMCEM@?$AAu?$AAz?$AA?9?$AAU?$AAZ?$AA?9?$AAC?$AAy?$AAr?$AAl?$AA?$AA@ 00544cac     LIBCMTD:winapinls.obj
 0003:0002bcc8       ??_C@_1O@LAOBCMDF@?$AAq?$AAu?$AAz?$AA?9?$AAE?$AAC?$AA?$AA@ 00544cc8     LIBCMTD:winapinls.obj
 0003:0002bcd8       ??_C@_1M@POEEMAIO@?$AAa?$AAr?$AA?9?$AAE?$AAG?$AA?$AA@ 00544cd8     LIBCMTD:winapinls.obj
 0003:0002bce8       ??_C@_1M@EFAKDEDL@?$AAz?$AAh?$AA?9?$AAH?$AAK?$AA?$AA@ 00544ce8     LIBCMTD:winapinls.obj
 0003:0002bcf8       ??_C@_1M@HKKIJHGI@?$AAd?$AAe?$AA?9?$AAA?$AAT?$AA?$AA@ 00544cf8     LIBCMTD:winapinls.obj
 0003:0002bd08       ??_C@_1M@KBFBEHJF@?$AAe?$AAn?$AA?9?$AAA?$AAU?$AA?$AA@ 00544d08     LIBCMTD:winapinls.obj
 0003:0002bd18       ??_C@_1M@MNPLFAAH@?$AAe?$AAs?$AA?9?$AAE?$AAS?$AA?$AA@ 00544d18     LIBCMTD:winapinls.obj
 0003:0002bd28       ??_C@_1M@HJOOJFMA@?$AAf?$AAr?$AA?9?$AAC?$AAA?$AA?$AA@ 00544d28     LIBCMTD:winapinls.obj
 0003:0002bd38       ??_C@_1BG@JPOFPNAB@?$AAs?$AAr?$AA?9?$AAS?$AAP?$AA?9?$AAC?$AAy?$AAr?$AAl?$AA?$AA@ 00544d38     LIBCMTD:winapinls.obj
 0003:0002bd54       ??_C@_1M@LNFOCMOB@?$AAs?$AAe?$AA?9?$AAF?$AAI?$AA?$AA@ 00544d54     LIBCMTD:winapinls.obj
 0003:0002bd64       ??_C@_1O@MGJBOAMB@?$AAq?$AAu?$AAz?$AA?9?$AAP?$AAE?$AA?$AA@ 00544d64     LIBCMTD:winapinls.obj
 0003:0002bd74       ??_C@_1M@GJINLBOK@?$AAa?$AAr?$AA?9?$AAL?$AAY?$AA?$AA@ 00544d74     LIBCMTD:winapinls.obj
 0003:0002bd84       ??_C@_1M@GGMNHJNL@?$AAz?$AAh?$AA?9?$AAS?$AAG?$AA?$AA@ 00544d84     LIBCMTD:winapinls.obj
 0003:0002bd94       ??_C@_1M@HOIKODND@?$AAd?$AAe?$AA?9?$AAL?$AAU?$AA?$AA@ 00544d94     LIBCMTD:winapinls.obj
 0003:0002bda4       ??_C@_1M@DDOCCGFG@?$AAe?$AAn?$AA?9?$AAC?$AAA?$AA?$AA@ 00544da4     LIBCMTD:winapinls.obj
 0003:0002bdb4       ??_C@_1M@BNOEMJLF@?$AAe?$AAs?$AA?9?$AAG?$AAT?$AA?$AA@ 00544db4     LIBCMTD:winapinls.obj
 0003:0002bdc4       ??_C@_1M@EOGNKEK@?$AAf?$AAr?$AA?9?$AAC?$AAH?$AA?$AA@ 00544dc4     LIBCMTD:winapinls.obj
 0003:0002bdd4       ??_C@_1M@FLIDJFHL@?$AAh?$AAr?$AA?9?$AAB?$AAA?$AA?$AA@ 00544dd4     LIBCMTD:winapinls.obj
 0003:0002bde4       ??_C@_1O@FMCELNAJ@?$AAs?$AAm?$AAj?$AA?9?$AAN?$AAO?$AA?$AA@ 00544de4     LIBCMTD:winapinls.obj
 0003:0002bdf4       ??_C@_1M@JHGLJMGJ@?$AAa?$AAr?$AA?9?$AAD?$AAZ?$AA?$AA@ 00544df4     LIBCMTD:winapinls.obj
 0003:0002be04       ??_C@_1M@JKKFDCNP@?$AAz?$AAh?$AA?9?$AAM?$AAO?$AA?$AA@ 00544e04     LIBCMTD:winapinls.obj
 0003:0002be14       ??_C@_1M@GEEFALPE@?$AAd?$AAe?$AA?9?$AAL?$AAI?$AA?$AA@ 00544e14     LIBCMTD:winapinls.obj
 0003:0002be24       ??_C@_1M@IGEOFBG@?$AAe?$AAn?$AA?9?$AAN?$AAZ?$AA?$AA@ 00544e24     LIBCMTD:winapinls.obj
 0003:0002be34       ??_C@_1M@KDBONEHP@?$AAe?$AAs?$AA?9?$AAC?$AAR?$AA?$AA@ 00544e34     LIBCMTD:winapinls.obj
 0003:0002be44       ??_C@_1M@FHMDOHNN@?$AAf?$AAr?$AA?9?$AAL?$AAU?$AA?$AA@ 00544e44     LIBCMTD:winapinls.obj
 0003:0002be54       ??_C@_1BG@NFKKMAFG@?$AAb?$AAs?$AA?9?$AAB?$AAA?$AA?9?$AAL?$AAa?$AAt?$AAn?$AA?$AA@ 00544e54     LIBCMTD:winapinls.obj
 0003:0002be70       ??_C@_1O@IMNBEMCI@?$AAs?$AAm?$AAj?$AA?9?$AAS?$AAE?$AA?$AA@ 00544e70     LIBCMTD:winapinls.obj
 0003:0002be80       ??_C@_1M@DHHMBNDP@?$AAa?$AAr?$AA?9?$AAM?$AAA?$AA?$AA@ 00544e80     LIBCMTD:winapinls.obj
 0003:0002be90       ??_C@_1M@BNBLJCGH@?$AAe?$AAn?$AA?9?$AAI?$AAE?$AA?$AA@ 00544e90     LIBCMTD:winapinls.obj
 0003:0002bea0       ??_C@_1M@GEPAFMDL@?$AAe?$AAs?$AA?9?$AAP?$AAA?$AA?$AA@ 00544ea0     LIBCMTD:winapinls.obj
 0003:0002beb0       ??_C@_1M@OJONDMDL@?$AAf?$AAr?$AA?9?$AAM?$AAC?$AA?$AA@ 00544eb0     LIBCMTD:winapinls.obj
 0003:0002bec0       ??_C@_1BG@OBCNFJB@?$AAs?$AAr?$AA?9?$AAB?$AAA?$AA?9?$AAL?$AAa?$AAt?$AAn?$AA?$AA@ 00544ec0     LIBCMTD:winapinls.obj
 0003:0002bedc       ??_C@_1O@KEMEEGPO@?$AAs?$AAm?$AAa?$AA?9?$AAN?$AAO?$AA?$AA@ 00544edc     LIBCMTD:winapinls.obj
 0003:0002beec       ??_C@_1M@ELMGFODK@?$AAa?$AAr?$AA?9?$AAT?$AAN?$AA?$AA@ 00544eec     LIBCMTD:winapinls.obj
 0003:0002befc       ??_C@_1M@BHDLHFAF@?$AAe?$AAn?$AA?9?$AAZ?$AAA?$AA?$AA@ 00544efc     LIBCMTD:winapinls.obj
 0003:0002bf0c       ??_C@_1M@BMGIGLIF@?$AAe?$AAs?$AA?9?$AAD?$AAO?$AA?$AA@ 00544f0c     LIBCMTD:winapinls.obj
 0003:0002bf1c       ??_C@_1BG@CMBHIPBE@?$AAs?$AAr?$AA?9?$AAB?$AAA?$AA?9?$AAC?$AAy?$AAr?$AAl?$AA?$AA@ 00544f1c     LIBCMTD:winapinls.obj
 0003:0002bf38       ??_C@_1O@HEDBLHNP@?$AAs?$AAm?$AAa?$AA?9?$AAS?$AAE?$AA?$AA@ 00544f38     LIBCMTD:winapinls.obj
 0003:0002bf48       ??_C@_1M@DAGCADIM@?$AAa?$AAr?$AA?9?$AAO?$AAM?$AA?$AA@ 00544f48     LIBCMTD:winapinls.obj
 0003:0002bf58       ??_C@_1M@FODLMICG@?$AAe?$AAn?$AA?9?$AAJ?$AAM?$AA?$AA@ 00544f58     LIBCMTD:winapinls.obj
 0003:0002bf68       ??_C@_1M@DNMLCIHB@?$AAe?$AAs?$AA?9?$AAV?$AAE?$AA?$AA@ 00544f68     LIBCMTD:winapinls.obj
 0003:0002bf78       ??_C@_1O@EOKHMKJK@?$AAs?$AAm?$AAs?$AA?9?$AAF?$AAI?$AA?$AA@ 00544f78     LIBCMTD:winapinls.obj
 0003:0002bf88       ??_C@_1M@CAFJMKOF@?$AAa?$AAr?$AA?9?$AAY?$AAE?$AA?$AA@ 00544f88     LIBCMTD:winapinls.obj
 0003:0002bf98       ??_C@_1M@CBFHIJLI@?$AAe?$AAn?$AA?9?$AAC?$AAB?$AA?$AA@ 00544f98     LIBCMTD:winapinls.obj
 0003:0002bfa8       ??_C@_1M@BGNFLDN@?$AAe?$AAs?$AA?9?$AAC?$AAO?$AA?$AA@ 00544fa8     LIBCMTD:winapinls.obj
 0003:0002bfb8       ??_C@_1O@JMPHMAMC@?$AAs?$AAm?$AAn?$AA?9?$AAF?$AAI?$AA?$AA@ 00544fb8     LIBCMTD:winapinls.obj
 0003:0002bfc8       ??_C@_1M@JLANABKE@?$AAa?$AAr?$AA?9?$AAS?$AAY?$AA?$AA@ 00544fc8     LIBCMTD:winapinls.obj
 0003:0002bfd8       ??_C@_1M@HPKGCFGN@?$AAe?$AAn?$AA?9?$AAB?$AAZ?$AA?$AA@ 00544fd8     LIBCMTD:winapinls.obj
 0003:0002bfe8       ??_C@_1M@OLJCMLGM@?$AAe?$AAs?$AA?9?$AAP?$AAE?$AA?$AA@ 00544fe8     LIBCMTD:winapinls.obj
 0003:0002bff8       ??_C@_1M@MKKGFKLE@?$AAa?$AAr?$AA?9?$AAJ?$AAO?$AA?$AA@ 00544ff8     LIBCMTD:winapinls.obj
 0003:0002c008       ??_C@_1M@EKPGLDNI@?$AAe?$AAn?$AA?9?$AAT?$AAT?$AA?$AA@ 00545008     LIBCMTD:winapinls.obj
 0003:0002c018       ??_C@_1M@OONGHFHE@?$AAe?$AAs?$AA?9?$AAA?$AAR?$AA?$AA@ 00545018     LIBCMTD:winapinls.obj
 0003:0002c028       ??_C@_1M@OOJFGBHE@?$AAa?$AAr?$AA?9?$AAL?$AAB?$AA?$AA@ 00545028     LIBCMTD:winapinls.obj
 0003:0002c038       ??_C@_1M@GCEJHNEG@?$AAe?$AAn?$AA?9?$AAZ?$AAW?$AA?$AA@ 00545038     LIBCMTD:winapinls.obj
 0003:0002c048       ??_C@_1M@JNOCAHJI@?$AAe?$AAs?$AA?9?$AAE?$AAC?$AA?$AA@ 00545048     LIBCMTD:winapinls.obj
 0003:0002c058       ??_C@_1M@JEFHPGGB@?$AAa?$AAr?$AA?9?$AAK?$AAW?$AA?$AA@ 00545058     LIBCMTD:winapinls.obj
 0003:0002c068       ??_C@_1M@MLKIBJOJ@?$AAe?$AAn?$AA?9?$AAP?$AAH?$AA?$AA@ 00545068     LIBCMTD:winapinls.obj
 0003:0002c078       ??_C@_1M@BDNIPEND@?$AAe?$AAs?$AA?9?$AAC?$AAL?$AA?$AA@ 00545078     LIBCMTD:winapinls.obj
 0003:0002c088       ??_C@_1M@MPNMEKBD@?$AAa?$AAr?$AA?9?$AAA?$AAE?$AA?$AA@ 00545088     LIBCMTD:winapinls.obj
 0003:0002c098       ??_C@_1M@KBJALCPI@?$AAe?$AAs?$AA?9?$AAU?$AAY?$AA?$AA@ 00545098     LIBCMTD:winapinls.obj
 0003:0002c0a8       ??_C@_1M@LLCCOAGA@?$AAa?$AAr?$AA?9?$AAB?$AAH?$AA?$AA@ 005450a8     LIBCMTD:winapinls.obj
 0003:0002c0b8       ??_C@_1M@PBFNCDEL@?$AAe?$AAs?$AA?9?$AAP?$AAY?$AA?$AA@ 005450b8     LIBCMTD:winapinls.obj
 0003:0002c0c8       ??_C@_1M@EDGINPNP@?$AAa?$AAr?$AA?9?$AAQ?$AAA?$AA?$AA@ 005450c8     LIBCMTD:winapinls.obj
 0003:0002c0d8       ??_C@_1M@MKDBIIJI@?$AAe?$AAs?$AA?9?$AAB?$AAO?$AA?$AA@ 005450d8     LIBCMTD:winapinls.obj
 0003:0002c0e8       ??_C@_1M@CPKKEBLD@?$AAe?$AAs?$AA?9?$AAS?$AAV?$AA?$AA@ 005450e8     LIBCMTD:winapinls.obj
 0003:0002c0f8       ??_C@_1M@NDBGMMJL@?$AAe?$AAs?$AA?9?$AAH?$AAN?$AA?$AA@ 005450f8     LIBCMTD:winapinls.obj
 0003:0002c108       ??_C@_1M@JIJIBHDP@?$AAe?$AAs?$AA?9?$AAN?$AAI?$AA?$AA@ 00545108     LIBCMTD:winapinls.obj
 0003:0002c118       ??_C@_1M@CGFMKEEK@?$AAe?$AAs?$AA?9?$AAP?$AAR?$AA?$AA@ 00545118     LIBCMTD:winapinls.obj
 0003:0002c128       ??_C@_1O@ICJHKIIK@?$AAz?$AAh?$AA?9?$AAC?$AAH?$AAT?$AA?$AA@ 00545128     LIBCMTD:winapinls.obj
 0003:0002c138       ??_C@_15CLNEJCE@?$AAs?$AAr?$AA?$AA@ 00545138     LIBCMTD:winapinls.obj
 0003:0002c140       _LocaleNameToIndexTable    00545140     LIBCMTD:winapinls.obj
 0003:0002c860       _LcidToLocaleNameTable     00545860     LIBCMTD:winapinls.obj
 0003:0002d25c       ??_C@_1M@KAHEKEIG@?$AAa?$AAf?$AA?9?$AAz?$AAa?$AA?$AA@ 0054625c     LIBCMTD:winapinls.obj
 0003:0002d26c       ??_C@_1M@GIECOABL@?$AAa?$AAr?$AA?9?$AAa?$AAe?$AA?$AA@ 0054626c     LIBCMTD:winapinls.obj
 0003:0002d27c       ??_C@_1M@BMLMEKGI@?$AAa?$AAr?$AA?9?$AAb?$AAh?$AA?$AA@ 0054627c     LIBCMTD:winapinls.obj
 0003:0002d28c       ??_C@_1M@DAPFDGGB@?$AAa?$AAr?$AA?9?$AAd?$AAz?$AA?$AA@ 0054628c     LIBCMTD:winapinls.obj
 0003:0002d29c       ??_C@_1M@FJNKGKIG@?$AAa?$AAr?$AA?9?$AAe?$AAg?$AA?$AA@ 0054629c     LIBCMTD:winapinls.obj
 0003:0002d2ac       ??_C@_1M@FLGKKCLO@?$AAa?$AAr?$AA?9?$AAi?$AAq?$AA?$AA@ 005462ac     LIBCMTD:winapinls.obj
 0003:0002d2bc       ??_C@_1M@GNDIPALM@?$AAa?$AAr?$AA?9?$AAj?$AAo?$AA?$AA@ 005462bc     LIBCMTD:winapinls.obj
 0003:0002d2cc       ??_C@_1M@DDMJFMGJ@?$AAa?$AAr?$AA?9?$AAk?$AAw?$AA?$AA@ 005462cc     LIBCMTD:winapinls.obj
 0003:0002d2dc       ??_C@_1M@EJALMLHM@?$AAa?$AAr?$AA?9?$AAl?$AAb?$AA?$AA@ 005462dc     LIBCMTD:winapinls.obj
 0003:0002d2ec       ??_C@_1M@MOBDBLOC@?$AAa?$AAr?$AA?9?$AAl?$AAy?$AA?$AA@ 005462ec     LIBCMTD:winapinls.obj
 0003:0002d2fc       ??_C@_1M@JAOCLHDH@?$AAa?$AAr?$AA?9?$AAm?$AAa?$AA?$AA@ 005462fc     LIBCMTD:winapinls.obj
 0003:0002d30c       ??_C@_1M@JHPMKJIE@?$AAa?$AAr?$AA?9?$AAo?$AAm?$AA?$AA@ 0054630c     LIBCMTD:winapinls.obj
 0003:0002d31c       ??_C@_1M@OEPGHFNH@?$AAa?$AAr?$AA?9?$AAq?$AAa?$AA?$AA@ 0054631c     LIBCMTD:winapinls.obj
 0003:0002d32c       ??_C@_1M@KJDONENM@?$AAa?$AAr?$AA?9?$AAs?$AAa?$AA?$AA@ 0054632c     LIBCMTD:winapinls.obj
 0003:0002d33c       ??_C@_1M@DMJDKLKM@?$AAa?$AAr?$AA?9?$AAs?$AAy?$AA?$AA@ 0054633c     LIBCMTD:winapinls.obj
 0003:0002d34c       ??_C@_1M@OMFIPEDC@?$AAa?$AAr?$AA?9?$AAt?$AAn?$AA?$AA@ 0054634c     LIBCMTD:winapinls.obj
 0003:0002d35c       ??_C@_1M@IHMHGAON@?$AAa?$AAr?$AA?9?$AAy?$AAe?$AA?$AA@ 0054635c     LIBCMTD:winapinls.obj
 0003:0002d36c       ??_C@_1BG@KDCPGJGB@?$AAa?$AAz?$AA?9?$AAa?$AAz?$AA?9?$AAc?$AAy?$AAr?$AAl?$AA?$AA@ 0054636c     LIBCMTD:winapinls.obj
 0003:0002d388       ??_C@_1BG@IBCKDDOE@?$AAa?$AAz?$AA?9?$AAa?$AAz?$AA?9?$AAl?$AAa?$AAt?$AAn?$AA?$AA@ 00546388     LIBCMTD:winapinls.obj
 0003:0002d3a4       ??_C@_1M@EGPFDCPD@?$AAb?$AAe?$AA?9?$AAb?$AAy?$AA?$AA@ 005463a4     LIBCMTD:winapinls.obj
 0003:0002d3b4       ??_C@_1M@PCMGMCGC@?$AAb?$AAg?$AA?9?$AAb?$AAg?$AA?$AA@ 005463b4     LIBCMTD:winapinls.obj
 0003:0002d3c4       ??_C@_1M@BJBMFGOB@?$AAb?$AAn?$AA?9?$AAi?$AAn?$AA?$AA@ 005463c4     LIBCMTD:winapinls.obj
 0003:0002d3d4       ??_C@_1BG@EAKMMACD@?$AAb?$AAs?$AA?9?$AAb?$AAa?$AA?9?$AAl?$AAa?$AAt?$AAn?$AA?$AA@ 005463d4     LIBCMTD:winapinls.obj
 0003:0002d3f0       ??_C@_1M@KGADAODK@?$AAc?$AAa?$AA?9?$AAe?$AAs?$AA?$AA@ 005463f0     LIBCMTD:winapinls.obj
 0003:0002d400       ??_C@_1M@COAJPDHI@?$AAc?$AAs?$AA?9?$AAc?$AAz?$AA?$AA@ 00546400     LIBCMTD:winapinls.obj
 0003:0002d410       ??_C@_1M@DHBHFONH@?$AAc?$AAy?$AA?9?$AAg?$AAb?$AA?$AA@ 00546410     LIBCMTD:winapinls.obj
 0003:0002d420       ??_C@_1M@IMGKELGA@?$AAd?$AAa?$AA?9?$AAd?$AAk?$AA?$AA@ 00546420     LIBCMTD:winapinls.obj
 0003:0002d430       ??_C@_1M@NNDGDNGA@?$AAd?$AAe?$AA?9?$AAa?$AAt?$AA?$AA@ 00546430     LIBCMTD:winapinls.obj
 0003:0002d440       ??_C@_1M@IKDBHEEM@?$AAd?$AAe?$AA?9?$AAc?$AAh?$AA?$AA@ 00546440     LIBCMTD:winapinls.obj
 0003:0002d450       ??_C@_1M@GFFOJMCJ@?$AAd?$AAe?$AA?9?$AAd?$AAe?$AA?$AA@ 00546450     LIBCMTD:winapinls.obj
 0003:0002d460       ??_C@_1M@MDNLKBPM@?$AAd?$AAe?$AA?9?$AAl?$AAi?$AA?$AA@ 00546460     LIBCMTD:winapinls.obj
 0003:0002d470       ??_C@_1M@NJBEEJNL@?$AAd?$AAe?$AA?9?$AAl?$AAu?$AA?$AA@ 00546470     LIBCMTD:winapinls.obj
 0003:0002d480       ??_C@_1O@GNNELBAP@?$AAd?$AAi?$AAv?$AA?9?$AAm?$AAv?$AA?$AA@ 00546480     LIBCMTD:winapinls.obj
 0003:0002d490       ??_C@_1M@EJLEOGAE@?$AAe?$AAl?$AA?9?$AAg?$AAr?$AA?$AA@ 00546490     LIBCMTD:winapinls.obj
 0003:0002d4a0       ??_C@_1M@GMPONJN@?$AAe?$AAn?$AA?9?$AAa?$AAu?$AA?$AA@ 005464a0     LIBCMTD:winapinls.obj
 0003:0002d4b0       ??_C@_1M@NIDIIPGF@?$AAe?$AAn?$AA?9?$AAb?$AAz?$AA?$AA@ 005464b0     LIBCMTD:winapinls.obj
 0003:0002d4c0       ??_C@_1M@JEHMIMFO@?$AAe?$AAn?$AA?9?$AAc?$AAa?$AA?$AA@ 005464c0     LIBCMTD:winapinls.obj
 0003:0002d4d0       ??_C@_1M@IGMJCDLA@?$AAe?$AAn?$AA?9?$AAc?$AAb?$AA?$AA@ 005464d0     LIBCMTD:winapinls.obj
 0003:0002d4e0       ??_C@_1M@BNFIGBKG@?$AAe?$AAn?$AA?9?$AAg?$AAb?$AA?$AA@ 005464e0     LIBCMTD:winapinls.obj
 0003:0002d4f0       ??_C@_1M@LKIFDIGP@?$AAe?$AAn?$AA?9?$AAi?$AAe?$AA?$AA@ 005464f0     LIBCMTD:winapinls.obj
 0003:0002d500       ??_C@_1M@PJKFGCCO@?$AAe?$AAn?$AA?9?$AAj?$AAm?$AA?$AA@ 00546500     LIBCMTD:winapinls.obj
 0003:0002d510       ??_C@_1M@KPPKEPBO@?$AAe?$AAn?$AA?9?$AAn?$AAz?$AA?$AA@ 00546510     LIBCMTD:winapinls.obj
 0003:0002d520       ??_C@_1M@GMDGLDOB@?$AAe?$AAn?$AA?9?$AAp?$AAh?$AA?$AA@ 00546520     LIBCMTD:winapinls.obj
 0003:0002d530       ??_C@_1M@ONGIBJNA@?$AAe?$AAn?$AA?9?$AAt?$AAt?$AA?$AA@ 00546530     LIBCMTD:winapinls.obj
 0003:0002d540       ??_C@_1M@LLODPCMM@?$AAe?$AAn?$AA?9?$AAu?$AAs?$AA?$AA@ 00546540     LIBCMTD:winapinls.obj
 0003:0002d550       ??_C@_1M@LAKFNPAN@?$AAe?$AAn?$AA?9?$AAz?$AAa?$AA?$AA@ 00546550     LIBCMTD:winapinls.obj
 0003:0002d560       ??_C@_1M@MFNHNHEO@?$AAe?$AAn?$AA?9?$AAz?$AAw?$AA?$AA@ 00546560     LIBCMTD:winapinls.obj
 0003:0002d570       ??_C@_1M@EJEINPHM@?$AAe?$AAs?$AA?9?$AAa?$AAr?$AA?$AA@ 00546570     LIBCMTD:winapinls.obj
 0003:0002d580       ??_C@_1M@GNKPCCJA@?$AAe?$AAs?$AA?9?$AAb?$AAo?$AA?$AA@ 00546580     LIBCMTD:winapinls.obj
 0003:0002d590       ??_C@_1M@LEEGFONL@?$AAe?$AAs?$AA?9?$AAc?$AAl?$AA?$AA@ 00546590     LIBCMTD:winapinls.obj
 0003:0002d5a0       ??_C@_1M@KGPDPBDF@?$AAe?$AAs?$AA?9?$AAc?$AAo?$AA?$AA@ 005465a0     LIBCMTD:winapinls.obj
 0003:0002d5b0       ??_C@_1M@EIAHOHH@?$AAe?$AAs?$AA?9?$AAc?$AAr?$AA?$AA@ 005465b0     LIBCMTD:winapinls.obj
 0003:0002d5c0       ??_C@_1M@LLPGMBIN@?$AAe?$AAs?$AA?9?$AAd?$AAo?$AA?$AA@ 005465c0     LIBCMTD:winapinls.obj
 0003:0002d5d0       ??_C@_1M@DKHMKNJA@?$AAe?$AAs?$AA?9?$AAe?$AAc?$AA?$AA@ 005465d0     LIBCMTD:winapinls.obj
 0003:0002d5e0       ??_C@_1M@GKGFPKAP@?$AAe?$AAs?$AA?9?$AAe?$AAs?$AA?$AA@ 005465e0     LIBCMTD:winapinls.obj
 0003:0002d5f0       ??_C@_1M@LKHKGDLN@?$AAe?$AAs?$AA?9?$AAg?$AAt?$AA?$AA@ 005465f0     LIBCMTD:winapinls.obj
 0003:0002d600       ??_C@_1M@HEIIGGJD@?$AAe?$AAs?$AA?9?$AAh?$AAn?$AA?$AA@ 00546600     LIBCMTD:winapinls.obj
 0003:0002d610       ??_C@_1M@FBDHPPGD@?$AAe?$AAs?$AA?9?$AAm?$AAx?$AA?$AA@ 00546610     LIBCMTD:winapinls.obj
 0003:0002d620       ??_C@_1M@DPAGLNDH@?$AAe?$AAs?$AA?9?$AAn?$AAi?$AA?$AA@ 00546620     LIBCMTD:winapinls.obj
 0003:0002d630       ??_C@_1M@MDGOPGDD@?$AAe?$AAs?$AA?9?$AAp?$AAa?$AA?$AA@ 00546630     LIBCMTD:winapinls.obj
 0003:0002d640       ??_C@_1M@EMAMGBGE@?$AAe?$AAs?$AA?9?$AAp?$AAe?$AA?$AA@ 00546640     LIBCMTD:winapinls.obj
 0003:0002d650       ??_C@_1M@IBMCAOEC@?$AAe?$AAs?$AA?9?$AAp?$AAr?$AA?$AA@ 00546650     LIBCMTD:winapinls.obj
 0003:0002d660       ??_C@_1M@FGMDIJED@?$AAe?$AAs?$AA?9?$AAp?$AAy?$AA?$AA@ 00546660     LIBCMTD:winapinls.obj
 0003:0002d670       ??_C@_1M@IIDEOLLL@?$AAe?$AAs?$AA?9?$AAs?$AAv?$AA?$AA@ 00546670     LIBCMTD:winapinls.obj
 0003:0002d680       ??_C@_1M@GAOBIPA@?$AAe?$AAs?$AA?9?$AAu?$AAy?$AA?$AA@ 00546680     LIBCMTD:winapinls.obj
 0003:0002d690       ??_C@_1M@JKFFICHJ@?$AAe?$AAs?$AA?9?$AAv?$AAe?$AA?$AA@ 00546690     LIBCMTD:winapinls.obj
 0003:0002d6a0       ??_C@_1M@PNMLOJDF@?$AAe?$AAt?$AA?9?$AAe?$AAe?$AA?$AA@ 005466a0     LIBCMTD:winapinls.obj
 0003:0002d6b0       ??_C@_1M@GHHLIKEI@?$AAe?$AAu?$AA?9?$AAe?$AAs?$AA?$AA@ 005466b0     LIBCMTD:winapinls.obj
 0003:0002d6c0       ??_C@_1M@PBNONODE@?$AAf?$AAa?$AA?9?$AAi?$AAr?$AA?$AA@ 005466c0     LIBCMTD:winapinls.obj
 0003:0002d6d0       ??_C@_1M@JEEHPMIL@?$AAf?$AAi?$AA?9?$AAf?$AAi?$AA?$AA@ 005466d0     LIBCMTD:winapinls.obj
 0003:0002d6e0       ??_C@_1M@LMDCNDBA@?$AAf?$AAo?$AA?9?$AAf?$AAo?$AA?$AA@ 005466e0     LIBCMTD:winapinls.obj
 0003:0002d6f0       ??_C@_1M@JKEOHLDK@?$AAf?$AAr?$AA?9?$AAb?$AAe?$AA?$AA@ 005466f0     LIBCMTD:winapinls.obj
 0003:0002d700       ??_C@_1M@NOHADPMI@?$AAf?$AAr?$AA?9?$AAc?$AAa?$AA?$AA@ 00546700     LIBCMTD:winapinls.obj
 0003:0002d710       ??_C@_1M@KDHIHAEC@?$AAf?$AAr?$AA?9?$AAc?$AAh?$AA?$AA@ 00546710     LIBCMTD:winapinls.obj
 0003:0002d720       ??_C@_1M@MMBBFGAK@?$AAf?$AAr?$AA?9?$AAf?$AAr?$AA?$AA@ 00546720     LIBCMTD:winapinls.obj
 0003:0002d730       ??_C@_1M@PAFNENNF@?$AAf?$AAr?$AA?9?$AAl?$AAu?$AA?$AA@ 00546730     LIBCMTD:winapinls.obj
 0003:0002d740       ??_C@_1M@EOHDJGDD@?$AAf?$AAr?$AA?9?$AAm?$AAc?$AA?$AA@ 00546740     LIBCMTD:winapinls.obj
 0003:0002d750       ??_C@_1M@FAPLLOPF@?$AAg?$AAl?$AA?9?$AAe?$AAs?$AA?$AA@ 00546750     LIBCMTD:winapinls.obj
 0003:0002d760       ??_C@_1M@FOPBFLOO@?$AAg?$AAu?$AA?9?$AAi?$AAn?$AA?$AA@ 00546760     LIBCMTD:winapinls.obj
 0003:0002d770       ??_C@_1M@KBMCINPM@?$AAh?$AAe?$AA?9?$AAi?$AAl?$AA?$AA@ 00546770     LIBCMTD:winapinls.obj
 0003:0002d780       ??_C@_1M@BBPHKFPJ@?$AAh?$AAi?$AA?9?$AAi?$AAn?$AA?$AA@ 00546780     LIBCMTD:winapinls.obj
 0003:0002d790       ??_C@_1M@PMBNDPHD@?$AAh?$AAr?$AA?9?$AAb?$AAa?$AA?$AA@ 00546790     LIBCMTD:winapinls.obj
 0003:0002d7a0       ??_C@_1M@BPCKOEGE@?$AAh?$AAr?$AA?9?$AAh?$AAr?$AA?$AA@ 005467a0     LIBCMTD:winapinls.obj
 0003:0002d7b0       ??_C@_1M@GACBMHKE@?$AAh?$AAu?$AA?9?$AAh?$AAu?$AA?$AA@ 005467b0     LIBCMTD:winapinls.obj
 0003:0002d7c0       ??_C@_1M@MILPAJJC@?$AAh?$AAy?$AA?9?$AAa?$AAm?$AA?$AA@ 005467c0     LIBCMTD:winapinls.obj
 0003:0002d7d0       ??_C@_1M@BABBICEC@?$AAi?$AAd?$AA?9?$AAi?$AAd?$AA?$AA@ 005467d0     LIBCMTD:winapinls.obj
 0003:0002d7e0       ??_C@_1M@BIKNHHPF@?$AAi?$AAs?$AA?9?$AAi?$AAs?$AA?$AA@ 005467e0     LIBCMTD:winapinls.obj
 0003:0002d7f0       ??_C@_1M@NMPCJPHE@?$AAi?$AAt?$AA?9?$AAc?$AAh?$AA?$AA@ 005467f0     LIBCMTD:winapinls.obj
 0003:0002d800       ??_C@_1M@GHKGFEDF@?$AAi?$AAt?$AA?9?$AAi?$AAt?$AA?$AA@ 00546800     LIBCMTD:winapinls.obj
 0003:0002d810       ??_C@_1M@NIEJCJJA@?$AAj?$AAa?$AA?9?$AAj?$AAp?$AA?$AA@ 00546810     LIBCMTD:winapinls.obj
 0003:0002d820       ??_C@_1M@JILFNBIM@?$AAk?$AAa?$AA?9?$AAg?$AAe?$AA?$AA@ 00546820     LIBCMTD:winapinls.obj
 0003:0002d830       ??_C@_1M@PACPMGPH@?$AAk?$AAk?$AA?9?$AAk?$AAz?$AA?$AA@ 00546830     LIBCMTD:winapinls.obj
 0003:0002d840       ??_C@_1M@IELFGMHA@?$AAk?$AAn?$AA?9?$AAi?$AAn?$AA?$AA@ 00546840     LIBCMTD:winapinls.obj
 0003:0002d850       ??_C@_1O@IBBJHCH@?$AAk?$AAo?$AAk?$AA?9?$AAi?$AAn?$AA?$AA@ 00546850     LIBCMTD:winapinls.obj
 0003:0002d860       ??_C@_1M@DMHAEOGC@?$AAk?$AAo?$AA?9?$AAk?$AAr?$AA?$AA@ 00546860     LIBCMTD:winapinls.obj
 0003:0002d870       ??_C@_1M@HBAHBIGA@?$AAk?$AAy?$AA?9?$AAk?$AAg?$AA?$AA@ 00546870     LIBCMTD:winapinls.obj
 0003:0002d880       ??_C@_1M@KPMILCJG@?$AAl?$AAt?$AA?9?$AAl?$AAt?$AA?$AA@ 00546880     LIBCMTD:winapinls.obj
 0003:0002d890       ??_C@_1M@BDEKKCA@?$AAl?$AAv?$AA?9?$AAl?$AAv?$AA?$AA@ 00546890     LIBCMTD:winapinls.obj
 0003:0002d8a0       ??_C@_1M@ELCKCCJJ@?$AAm?$AAi?$AA?9?$AAn?$AAz?$AA?$AA@ 005468a0     LIBCMTD:winapinls.obj
 0003:0002d8b0       ??_C@_1M@CBOOLAPA@?$AAm?$AAk?$AA?9?$AAm?$AAk?$AA?$AA@ 005468b0     LIBCMTD:winapinls.obj
 0003:0002d8c0       ??_C@_1M@GPHNBJKN@?$AAm?$AAl?$AA?9?$AAi?$AAn?$AA?$AA@ 005468c0     LIBCMTD:winapinls.obj
 0003:0002d8d0       ??_C@_1M@PABJILIG@?$AAm?$AAn?$AA?9?$AAm?$AAn?$AA?$AA@ 005468d0     LIBCMTD:winapinls.obj
 0003:0002d8e0       ??_C@_1M@FGBKKIPG@?$AAm?$AAr?$AA?9?$AAi?$AAn?$AA?$AA@ 005468e0     LIBCMTD:winapinls.obj
 0003:0002d8f0       ??_C@_1M@NDBPDDAL@?$AAm?$AAs?$AA?9?$AAb?$AAn?$AA?$AA@ 005468f0     LIBCMTD:winapinls.obj
 0003:0002d900       ??_C@_1M@OPIHOOPI@?$AAm?$AAs?$AA?9?$AAm?$AAy?$AA?$AA@ 00546900     LIBCMTD:winapinls.obj
 0003:0002d910       ??_C@_1M@PPDBCNFM@?$AAm?$AAt?$AA?9?$AAm?$AAt?$AA?$AA@ 00546910     LIBCMTD:winapinls.obj
 0003:0002d920       ??_C@_1M@KDJDKMDD@?$AAn?$AAb?$AA?9?$AAn?$AAo?$AA?$AA@ 00546920     LIBCMTD:winapinls.obj
 0003:0002d930       ??_C@_1M@KFCFLMJP@?$AAn?$AAl?$AA?9?$AAb?$AAe?$AA?$AA@ 00546930     LIBCMTD:winapinls.obj
 0003:0002d940       ??_C@_1M@KPOPDDGO@?$AAn?$AAl?$AA?9?$AAn?$AAl?$AA?$AA@ 00546940     LIBCMTD:winapinls.obj
 0003:0002d950       ??_C@_1M@LJKPEMLN@?$AAn?$AAn?$AA?9?$AAn?$AAo?$AA?$AA@ 00546950     LIBCMTD:winapinls.obj
 0003:0002d960       ??_C@_1M@BDGHHBFL@?$AAn?$AAs?$AA?9?$AAz?$AAa?$AA?$AA@ 00546960     LIBCMTD:winapinls.obj
 0003:0002d970       ??_C@_1M@IDEHOAP@?$AAp?$AAa?$AA?9?$AAi?$AAn?$AA?$AA@ 00546970     LIBCMTD:winapinls.obj
 0003:0002d980       ??_C@_1M@HDBKGOGH@?$AAp?$AAl?$AA?9?$AAp?$AAl?$AA?$AA@ 00546980     LIBCMTD:winapinls.obj
 0003:0002d990       ??_C@_1M@LJLLCMEH@?$AAp?$AAt?$AA?9?$AAb?$AAr?$AA?$AA@ 00546990     LIBCMTD:winapinls.obj
 0003:0002d9a0       ??_C@_1M@NCMONAAL@?$AAp?$AAt?$AA?9?$AAp?$AAt?$AA?$AA@ 005469a0     LIBCMTD:winapinls.obj
 0003:0002d9b0       ??_C@_1O@EAKMAJDN@?$AAq?$AAu?$AAz?$AA?9?$AAb?$AAo?$AA?$AA@ 005469b0     LIBCMTD:winapinls.obj
 0003:0002d9c0       ??_C@_1O@BHHPIGDN@?$AAq?$AAu?$AAz?$AA?9?$AAe?$AAc?$AA?$AA@ 005469c0     LIBCMTD:winapinls.obj
 0003:0002d9d0       ??_C@_1O@GBAPEKMJ@?$AAq?$AAu?$AAz?$AA?9?$AAp?$AAe?$AA?$AA@ 005469d0     LIBCMTD:winapinls.obj
 0003:0002d9e0       ??_C@_1M@CLGLEFBO@?$AAr?$AAo?$AA?9?$AAr?$AAo?$AA?$AA@ 005469e0     LIBCMTD:winapinls.obj
 0003:0002d9f0       ??_C@_1M@CEEDODME@?$AAr?$AAu?$AA?9?$AAr?$AAu?$AA?$AA@ 005469f0     LIBCMTD:winapinls.obj
 0003:0002da00       ??_C@_1M@HPKKKMPP@?$AAs?$AAa?$AA?9?$AAi?$AAn?$AA?$AA@ 00546a00     LIBCMTD:winapinls.obj
 0003:0002da10       ??_C@_1M@BKMAIGOJ@?$AAs?$AAe?$AA?9?$AAf?$AAi?$AA?$AA@ 00546a10     LIBCMTD:winapinls.obj
 0003:0002da20       ??_C@_1M@NDPIFLFI@?$AAs?$AAe?$AA?9?$AAn?$AAo?$AA?$AA@ 00546a20     LIBCMTD:winapinls.obj
 0003:0002da30       ??_C@_1M@DANKKHJ@?$AAs?$AAe?$AA?9?$AAs?$AAe?$AA?$AA@ 00546a30     LIBCMTD:winapinls.obj
 0003:0002da40       ??_C@_1M@PNBLONPJ@?$AAs?$AAk?$AA?9?$AAs?$AAk?$AA?$AA@ 00546a40     LIBCMTD:winapinls.obj
 0003:0002da50       ??_C@_1M@LFMODOAL@?$AAs?$AAl?$AA?9?$AAs?$AAi?$AA?$AA@ 00546a50     LIBCMTD:winapinls.obj
 0003:0002da60       ??_C@_1O@DFKOMPG@?$AAs?$AAm?$AAa?$AA?9?$AAn?$AAo?$AA?$AA@ 00546a60     LIBCMTD:winapinls.obj
 0003:0002da70       ??_C@_1O@NDKPBNNH@?$AAs?$AAm?$AAa?$AA?9?$AAs?$AAe?$AA?$AA@ 00546a70     LIBCMTD:winapinls.obj
 0003:0002da80       ??_C@_1O@PLLKBHAB@?$AAs?$AAm?$AAj?$AA?9?$AAn?$AAo?$AA?$AA@ 00546a80     LIBCMTD:winapinls.obj
 0003:0002da90       ??_C@_1O@CLEPOGCA@?$AAs?$AAm?$AAj?$AA?9?$AAs?$AAe?$AA?$AA@ 00546a90     LIBCMTD:winapinls.obj
 0003:0002daa0       ??_C@_1O@DLGJGKMK@?$AAs?$AAm?$AAn?$AA?9?$AAf?$AAi?$AA?$AA@ 00546aa0     LIBCMTD:winapinls.obj
 0003:0002dab0       ??_C@_1O@OJDJGAJC@?$AAs?$AAm?$AAs?$AA?9?$AAf?$AAi?$AA?$AA@ 00546ab0     LIBCMTD:winapinls.obj
 0003:0002dac0       ??_C@_1M@BOFOGHPB@?$AAs?$AAq?$AA?9?$AAa?$AAl?$AA?$AA@ 00546ac0     LIBCMTD:winapinls.obj
 0003:0002dad0       ??_C@_1BG@LJBBIPGB@?$AAs?$AAr?$AA?9?$AAb?$AAa?$AA?9?$AAc?$AAy?$AAr?$AAl?$AA?$AA@ 00546ad0     LIBCMTD:winapinls.obj
 0003:0002daec       ??_C@_1BG@JLBENFOE@?$AAs?$AAr?$AA?9?$AAb?$AAa?$AA?9?$AAl?$AAa?$AAt?$AAn?$AA?$AA@ 00546aec     LIBCMTD:winapinls.obj
 0003:0002db08       ??_C@_1BG@KODPNHE@?$AAs?$AAr?$AA?9?$AAs?$AAp?$AA?9?$AAc?$AAy?$AAr?$AAl?$AA?$AA@ 00546b08     LIBCMTD:winapinls.obj
 0003:0002db24       ??_C@_1BG@CIOGKHPB@?$AAs?$AAr?$AA?9?$AAs?$AAp?$AA?9?$AAl?$AAa?$AAt?$AAn?$AA?$AA@ 00546b24     LIBCMTD:winapinls.obj
 0003:0002db40       ??_C@_1M@NGFJLMAC@?$AAs?$AAv?$AA?9?$AAf?$AAi?$AA?$AA@ 00546b40     LIBCMTD:winapinls.obj
 0003:0002db50       ??_C@_1M@MPJEJAJC@?$AAs?$AAv?$AA?9?$AAs?$AAe?$AA?$AA@ 00546b50     LIBCMTD:winapinls.obj
 0003:0002db60       ??_C@_1M@MPNDHLFK@?$AAs?$AAw?$AA?9?$AAk?$AAe?$AA?$AA@ 00546b60     LIBCMTD:winapinls.obj
 0003:0002db70       ??_C@_1O@KOHBJJI@?$AAs?$AAy?$AAr?$AA?9?$AAs?$AAy?$AA?$AA@ 00546b70     LIBCMTD:winapinls.obj
 0003:0002db80       ??_C@_1M@LDCEFHA@?$AAt?$AAa?$AA?9?$AAi?$AAn?$AA?$AA@ 00546b80     LIBCMTD:winapinls.obj
 0003:0002db90       ??_C@_1M@CNJOFAK@?$AAt?$AAe?$AA?9?$AAi?$AAn?$AA?$AA@ 00546b90     LIBCMTD:winapinls.obj
 0003:0002dba0       ??_C@_1M@GNAECACD@?$AAt?$AAh?$AA?9?$AAt?$AAh?$AA?$AA@ 00546ba0     LIBCMTD:winapinls.obj
 0003:0002dbb0       ??_C@_1M@CHBIHOJO@?$AAt?$AAn?$AA?9?$AAz?$AAa?$AA?$AA@ 00546bb0     LIBCMTD:winapinls.obj
 0003:0002dbc0       ??_C@_1M@GCCMIGPJ@?$AAt?$AAr?$AA?9?$AAt?$AAr?$AA?$AA@ 00546bc0     LIBCMTD:winapinls.obj
 0003:0002dbd0       ??_C@_1M@CELMCNBK@?$AAt?$AAt?$AA?9?$AAr?$AAu?$AA?$AA@ 00546bd0     LIBCMTD:winapinls.obj
 0003:0002dbe0       ??_C@_1M@KLMCELGA@?$AAu?$AAk?$AA?9?$AAu?$AAa?$AA?$AA@ 00546be0     LIBCMTD:winapinls.obj
 0003:0002dbf0       ??_C@_1M@EPAJJAJF@?$AAu?$AAr?$AA?9?$AAp?$AAk?$AA?$AA@ 00546bf0     LIBCMTD:winapinls.obj
 0003:0002dc00       ??_C@_1BG@GEGPMCDJ@?$AAu?$AAz?$AA?9?$AAu?$AAz?$AA?9?$AAc?$AAy?$AAr?$AAl?$AA?$AA@ 00546c00     LIBCMTD:winapinls.obj
 0003:0002dc1c       ??_C@_1BG@EGGKJILM@?$AAu?$AAz?$AA?9?$AAu?$AAz?$AA?9?$AAl?$AAa?$AAt?$AAn?$AA?$AA@ 00546c1c     LIBCMTD:winapinls.obj
 0003:0002dc38       ??_C@_1M@GFOCLFF@?$AAv?$AAi?$AA?9?$AAv?$AAn?$AA?$AA@ 00546c38     LIBCMTD:winapinls.obj
 0003:0002dc48       ??_C@_1M@CPAMEDFI@?$AAx?$AAh?$AA?9?$AAz?$AAa?$AA?$AA@ 00546c48     LIBCMTD:winapinls.obj
 0003:0002dc58       ??_C@_1O@EBKIFIGN@?$AAz?$AAh?$AA?9?$AAc?$AAh?$AAs?$AA?$AA@ 00546c58     LIBCMTD:winapinls.obj
 0003:0002dc68       ??_C@_1O@NMHPGANE@?$AAz?$AAh?$AA?9?$AAc?$AAh?$AAt?$AA?$AA@ 00546c68     LIBCMTD:winapinls.obj
 0003:0002dc78       ??_C@_1M@LPINJOMC@?$AAz?$AAh?$AA?9?$AAc?$AAn?$AA?$AA@ 00546c78     LIBCMTD:winapinls.obj
 0003:0002dc88       ??_C@_1M@OCJEJODD@?$AAz?$AAh?$AA?9?$AAh?$AAk?$AA?$AA@ 00546c88     LIBCMTD:winapinls.obj
 0003:0002dc98       ??_C@_1M@DNDLJINH@?$AAz?$AAh?$AA?9?$AAm?$AAo?$AA?$AA@ 00546c98     LIBCMTD:winapinls.obj
 0003:0002dca8       ??_C@_1M@MBFDNDND@?$AAz?$AAh?$AA?9?$AAs?$AAg?$AA?$AA@ 00546ca8     LIBCMTD:winapinls.obj
 0003:0002dcb8       ??_C@_1M@IMEPLEPE@?$AAz?$AAh?$AA?9?$AAt?$AAw?$AA?$AA@ 00546cb8     LIBCMTD:winapinls.obj
 0003:0002dcc8       ??_C@_1M@BBGHNHJP@?$AAz?$AAu?$AA?9?$AAz?$AAa?$AA?$AA@ 00546cc8     LIBCMTD:winapinls.obj
 0003:0002dcd8       ??_C@_15EMKDOKLE@?$AAa?$AAr?$AA?$AA@ 00546cd8     LIBCMTD:winapinls.obj
 0003:0002dce0       ??_C@_15KNPADPLH@?$AAb?$AAg?$AA?$AA@ 00546ce0     LIBCMTD:winapinls.obj
 0003:0002dce8       ??_C@_1FE@HAPBHJIC@?$AAf?$AA?3?$AA?2?$AAd?$AAd?$AA?2?$AAv?$AAc?$AAt?$AAo?$AAo?$AAl?$AAs?$AA?2?$AAc?$AAr?$AAt?$AA?2?$AAc?$AAr?$AAt?$AAw?$AA3?$AA2?$AA?2?$AAm?$AAi?$AAs?$AAc?$AA?2?$AAw?$AAi@ 00546ce8     LIBCMTD:winapinls.obj
 0003:0002dd4c       ??_C@_1DO@MBHJDOGM@?$AA_?$AA_?$AAc?$AAr?$AAt?$AAD?$AAo?$AAw?$AAn?$AAl?$AAe?$AAv?$AAe?$AAl?$AAL?$AAC?$AAI?$AAD?$AAT?$AAo?$AAL?$AAo?$AAc?$AAa?$AAl?$AAe?$AAN?$AAa?$AAm?$AAe?$AA?$AA@ 00546d4c     LIBCMTD:winapinls.obj
 0003:0002dd98       ??_C@_1FO@LFACCMJH@?$AAw?$AAc?$AAs?$AAc?$AAp?$AAy?$AA_?$AAs?$AA?$CI?$AAo?$AAu?$AAt?$AAL?$AAo?$AAc?$AAa?$AAl?$AAe?$AAN?$AAa?$AAm?$AAe?$AA?0?$AA?5?$AAc?$AAc?$AAh?$AAL?$AAo?$AAc?$AAa?$AAl@ 00546d98     LIBCMTD:winapinls.obj
 0003:0002de08       ??_C@_1BO@KIJENGPH@?$AAs?$AAt?$AAr?$AAe?$AAa?$AAm?$AA?5?$AA?$CB?$AA?$DN?$AA?5?$AAN?$AAU?$AAL?$AAL?$AA?$AA@ 00546e08     LIBCMTD:_freebuf.obj
 0003:0002de30       ??_C@_1FE@DBCNNJOP@?$AAf?$AA?3?$AA?2?$AAd?$AAd?$AA?2?$AAv?$AAc?$AAt?$AAo?$AAo?$AAl?$AAs?$AA?2?$AAc?$AAr?$AAt?$AA?2?$AAc?$AAr?$AAt?$AAw?$AA3?$AA2?$AA?2?$AAs?$AAt?$AAd?$AAi?$AAo?$AA?2?$AA_@ 00546e30     LIBCMTD:_freebuf.obj
 0003:0002de98       ??_C@_1FE@PMGAPFGI@?$AAf?$AA?3?$AA?2?$AAd?$AAd?$AA?2?$AAv?$AAc?$AAt?$AAo?$AAo?$AAl?$AAs?$AA?2?$AAc?$AAr?$AAt?$AA?2?$AAc?$AAr?$AAt?$AAw?$AA3?$AA2?$AA?2?$AAs?$AAt?$AAd?$AAi?$AAo?$AA?2?$AAv@ 00546e98     LIBCMTD:vfwprint.obj
 0003:0002defc       ??_C@_1CC@MONNFDCM@?$AAv?$AAf?$AAw?$AAp?$AAr?$AAi?$AAn?$AAt?$AAf?$AA_?$AAh?$AAe?$AAl?$AAp?$AAe?$AAr?$AA?$AA@ 00546efc     LIBCMTD:vfwprint.obj
 0003:0002df24       ??_C@_1BG@BBCDFOMA@?$AA_?$AAw?$AAo?$AAu?$AAt?$AAp?$AAu?$AAt?$AA_?$AAl?$AA?$AA@ 00546f24     LIBCMTD:woutput.obj
 0003:0002df40       ??_C@_1BK@ONMFGLDB@?$AA_?$AAw?$AAo?$AAu?$AAt?$AAp?$AAu?$AAt?$AA_?$AAs?$AA_?$AAl?$AA?$AA@ 00546f40     LIBCMTD:woutputs.obj
 0003:0002df60       ??_C@_1BK@GDEKGMNC@?$AA_?$AAw?$AAo?$AAu?$AAt?$AAp?$AAu?$AAt?$AA_?$AAp?$AA_?$AAl?$AA?$AA@ 00546f60     LIBCMTD:woutputp.obj
 0003:0002df80       ??_C@_1FC@NCPEPIBI@?$AA?$CI?$AA?$CI?$AA_?$AAD?$AAs?$AAt?$AA?$CJ?$AA?$CJ?$AA?5?$AA?$CB?$AA?$DN?$AA?5?$AAN?$AAU?$AAL?$AAL?$AA?5?$AA?$CG?$AA?$CG?$AA?5?$AA?$CI?$AA?$CI?$AA_?$AAS?$AAi?$AAz?$AAe?$AAI?$AAn?$AAB?$AAy?$AAt@ 00546f80     LIBCMTD:strcpy_s.obj
 0003:0002dfe4       ??_C@_1BC@CFJEPFGF@?$AAs?$AAt?$AAr?$AAc?$AAp?$AAy?$AA_?$AAs?$AA?$AA@ 00546fe4     LIBCMTD:strcpy_s.obj
 0003:0002e000       ??_C@_1FE@DNGHOFOC@?$AAf?$AA?3?$AA?2?$AAd?$AAd?$AA?2?$AAv?$AAc?$AAt?$AAo?$AAo?$AAl?$AAs?$AA?2?$AAc?$AAr?$AAt?$AA?2?$AAc?$AAr?$AAt?$AAw?$AA3?$AA2?$AA?2?$AAc?$AAo?$AAn?$AAv?$AAe?$AAr?$AAt@ 00547000     LIBCMTD:strtod.obj
 0003:0002e064       ??_C@_1BE@KFBKGHJC@?$AA_?$AAs?$AAt?$AAr?$AAt?$AAo?$AAd?$AA_?$AAl?$AA?$AA@ 00547064     LIBCMTD:strtod.obj
 0003:0002e080       ??_C@_1FI@JBLIKEIM@?$AAf?$AA?3?$AA?2?$AAd?$AAd?$AA?2?$AAv?$AAc?$AAt?$AAo?$AAo?$AAl?$AAs?$AA?2?$AAc?$AAr?$AAt?$AA?2?$AAc?$AAr?$AAt?$AAw?$AA3?$AA2?$AA?2?$AAc?$AAo?$AAn?$AAv?$AAe?$AAr?$AAt@ 00547080     LIBCMTD:_fptostr.obj
 0003:0002e0ec       ??_C@_1BC@OPALLEB@?$AA_?$AAf?$AAp?$AAt?$AAo?$AAs?$AAt?$AAr?$AA?$AA@ 005470ec     LIBCMTD:_fptostr.obj
 0003:0002e108       ??_C@_1GM@CEDLGDDI@?$AAs?$AAi?$AAz?$AAe?$AAI?$AAn?$AAB?$AAy?$AAt?$AAe?$AAs?$AA?5?$AA?$DO?$AA?5?$AA?$CI?$AAs?$AAi?$AAz?$AAe?$AA_?$AAt?$AA?$CJ?$AA?$CI?$AA?$CI?$AAd?$AAi?$AAg?$AAi?$AAt?$AAs?$AA?5?$AA?$DO@ 00547108     LIBCMTD:_fptostr.obj
 0003:0002e18c       ??_C@_1BK@CLIEHFDF@?$AAp?$AAf?$AAl?$AAt?$AA?5?$AA?$CB?$AA?$DN?$AA?5?$AAN?$AAU?$AAL?$AAL?$AA?$AA@ 0054718c     LIBCMTD:_fptostr.obj
 0003:0002e1b0       ??_C@_1EK@LJBJCHGA@?$AAf?$AA?3?$AA?2?$AAd?$AAd?$AA?2?$AAv?$AAc?$AAt?$AAo?$AAo?$AAl?$AAs?$AA?2?$AAc?$AAr?$AAt?$AA?2?$AAf?$AAp?$AAw?$AA3?$AA2?$AA?2?$AAc?$AAo?$AAn?$AAv?$AA?2?$AAc?$AAf?$AAo@ 005471b0     LIBCMTD:cfout.obj
 0003:0002e208       ??_C@_1BC@BPMMEHLK@?$AA_?$AAf?$AAl?$AAt?$AAo?$AAu?$AAt?$AA2?$AA?$AA@ 00547208     LIBCMTD:cfout.obj
 0003:0002e220       ??_C@_1FK@KODCOBKF@?$AAs?$AAt?$AAr?$AAc?$AAp?$AAy?$AA_?$AAs?$AA?$CI?$AAr?$AAe?$AAs?$AAu?$AAl?$AAt?$AAs?$AAt?$AAr?$AA?0?$AA?5?$AAr?$AAe?$AAs?$AAu?$AAl?$AAt?$AAs?$AAi?$AAz?$AAe?$AA?0?$AA?5@ 00547220     LIBCMTD:cfout.obj
 0003:0002e290       ??_C@_1EM@EGEEBJLG@?$AA?$CI?$AAo?$AAp?$AAt?$AAi?$AAo?$AAn?$AAs?$AA?5?$AA?$CG?$AA?5?$AA?$HO?$AA_?$AAT?$AAW?$AAO?$AA_?$AAD?$AAI?$AAG?$AAI?$AAT?$AA_?$AAE?$AAX?$AAP?$AAO?$AAN?$AAE?$AAN?$AAT?$AA?$CJ@ 00547290     LIBCMTD:outputformat.obj
 0003:0002e2f0       ??_C@_1FM@FBHCILLE@?$AAf?$AA?3?$AA?2?$AAd?$AAd?$AA?2?$AAv?$AAc?$AAt?$AAo?$AAo?$AAl?$AAs?$AA?2?$AAc?$AAr?$AAt?$AA?2?$AAc?$AAr?$AAt?$AAw?$AA3?$AA2?$AA?2?$AAs?$AAt?$AAd?$AAi?$AAo?$AA?2?$AAo@ 005472f0     LIBCMTD:outputformat.obj
 0003:0002e360       ??_C@_1CG@EBJECAJM@?$AA_?$AAs?$AAe?$AAt?$AA_?$AAo?$AAu?$AAt?$AAp?$AAu?$AAt?$AA_?$AAf?$AAo?$AAr?$AAm?$AAa?$AAt?$AA?$AA@ 00547360     LIBCMTD:outputformat.obj
 0003:0002e390       ??_C@_1DG@JNDMIEJL@?$AA?$CI?$AA?$CC?$AAI?$AAn?$AAv?$AAa?$AAl?$AAi?$AAd?$AA?5?$AAi?$AAn?$AAp?$AAu?$AAt?$AA?5?$AAv?$AAa?$AAl?$AAu?$AAe?$AA?$CC?$AA?0?$AA?5?$AA0?$AA?$CJ?$AA?$AA@ 00547390     LIBCMTD:contrlfp.obj
 0003:0002e3d0       ??_C@_1FA@IJLDLDMO@?$AAf?$AA?3?$AA?2?$AAd?$AAd?$AA?2?$AAv?$AAc?$AAt?$AAo?$AAo?$AAl?$AAs?$AA?2?$AAc?$AAr?$AAt?$AA?2?$AAf?$AAp?$AAw?$AA3?$AA2?$AA?2?$AAt?$AAr?$AAa?$AAn?$AA?2?$AAc?$AAo?$AAn@ 005473d0     LIBCMTD:contrlfp.obj
 0003:0002e430       ??_C@_1BK@CDOALEA@?$AA_?$AAc?$AAo?$AAn?$AAt?$AAr?$AAo?$AAl?$AAf?$AAp?$AA_?$AAs?$AA?$AA@ 00547430     LIBCMTD:contrlfp.obj
 0003:0002e450       __atan_table               00547450     LIBCMTD:atan_table.obj
 0003:00030130       ??_C@_1BE@NDMJHJJG@?$AAs?$AAt?$AAr?$AAn?$AAc?$AAp?$AAy?$AA_?$AAs?$AA?$AA@ 00549130     LIBCMTD:strncpy_s.obj
 0003:00030148       ??_C@_1EO@EJLBBGEB@?$AAf?$AA?3?$AA?2?$AAd?$AAd?$AA?2?$AAv?$AAc?$AAt?$AAo?$AAo?$AAl?$AAs?$AA?2?$AAc?$AAr?$AAt?$AA?2?$AAc?$AAr?$AAt?$AAw?$AA3?$AA2?$AA?2?$AAl?$AAo?$AAw?$AAi?$AAo?$AA?2?$AAc@ 00549148     LIBCMTD:close.obj
 0003:000301a8       ??_C@_1O@EDEJGJBM@?$AA_?$AAc?$AAl?$AAo?$AAs?$AAe?$AA?$AA@ 005491a8     LIBCMTD:close.obj
 0003:000301b8       ??_C@_0CJ@IGOJMKM@f?3?2dd?2vctools?2crt?2crtw32?2lowio?2o@ 005491b8     LIBCMTD:osfinfo.obj
 0003:000301f0       ??_C@_1FC@BEKMGBFL@?$AAf?$AA?3?$AA?2?$AAd?$AAd?$AA?2?$AAv?$AAc?$AAt?$AAo?$AAo?$AAl?$AAs?$AA?2?$AAc?$AAr?$AAt?$AA?2?$AAc?$AAr?$AAt?$AAw?$AA3?$AA2?$AA?2?$AAl?$AAo?$AAw?$AAi?$AAo?$AA?2?$AAo@ 005491f0     LIBCMTD:osfinfo.obj
 0003:00030254       ??_C@_1BO@EMBOBGKE@?$AA_?$AAg?$AAe?$AAt?$AA_?$AAo?$AAs?$AAf?$AAh?$AAa?$AAn?$AAd?$AAl?$AAe?$AA?$AA@ 00549254     LIBCMTD:osfinfo.obj
 0003:00030278       ??_C@_1NC@EINCOKCO@?$AA_?$AAl?$AAo?$AAc?$AA_?$AAu?$AAp?$AAd?$AAa?$AAt?$AAe?$AA?4?$AAG?$AAe?$AAt?$AAL?$AAo?$AAc?$AAa?$AAl?$AAe?$AAT?$AA?$CI?$AA?$CJ?$AA?9?$AA?$DO?$AAl?$AAo?$AAc?$AAi?$AAn?$AAf@ 00549278     LIBCMTD:mbtowc.obj
 0003:00030378       ??_C@_1FE@EKLDGEI@?$AAf?$AA?3?$AA?2?$AAd?$AAd?$AA?2?$AAv?$AAc?$AAt?$AAo?$AAo?$AAl?$AAs?$AA?2?$AAc?$AAr?$AAt?$AA?2?$AAc?$AAr?$AAt?$AAw?$AA3?$AA2?$AA?2?$AAc?$AAo?$AAn?$AAv?$AAe?$AAr?$AAt@ 00549378     LIBCMTD:mbtowc.obj
 0003:000303dc       ??_C@_1BK@EPLNBKAK@?$AA_?$AAv?$AAs?$AAw?$AAp?$AAr?$AAi?$AAn?$AAt?$AAf?$AA_?$AAl?$AA?$AA@ 005493dc     LIBCMTD:vswprint.obj
 0003:000303fc       ??_C@_1CG@IMMIEPNA@?$AA_?$AAv?$AAs?$AAc?$AAw?$AAp?$AAr?$AAi?$AAn?$AAt?$AAf?$AA_?$AAh?$AAe?$AAl?$AAp?$AAe?$AAr?$AA?$AA@ 005493fc     LIBCMTD:vswprint.obj
 0003:0003042c       ??_C@_1BC@HGPNAKGC@?$AAs?$AAt?$AAr?$AAc?$AAa?$AAt?$AA_?$AAs?$AA?$AA@ 0054942c     LIBCMTD:strcat_s.obj
 0003:00030444       ??_C@_1O@GIMBNLEI@?$AAx?$AAt?$AAo?$AAa?$AA_?$AAs?$AA?$AA@ 00549444     LIBCMTD:xtoas.obj
 0003:00030454       ??_C@_1BC@MJJNBNFN@?$AAx?$AA6?$AA4?$AAt?$AAo?$AAa?$AA_?$AAs?$AA?$AA@ 00549454     LIBCMTD:xtoas.obj
 0003:0003046c       ??_C@_1BE@EEKACIGI@?$AAs?$AA?5?$AA?$CB?$AA?$DN?$AA?5?$AAN?$AAU?$AAL?$AAL?$AA?$AA@ 0054946c     LIBCMTD:mbstowcs.obj
 0003:00030488       ??_C@_1FI@DADFCCMF@?$AAf?$AA?3?$AA?2?$AAd?$AAd?$AA?2?$AAv?$AAc?$AAt?$AAo?$AAo?$AAl?$AAs?$AA?2?$AAc?$AAr?$AAt?$AA?2?$AAc?$AAr?$AAt?$AAw?$AA3?$AA2?$AA?2?$AAc?$AAo?$AAn?$AAv?$AAe?$AAr?$AAt@ 00549488     LIBCMTD:mbstowcs.obj
 0003:000304f4       ??_C@_1CG@JEHFHLNG@?$AA_?$AAm?$AAb?$AAs?$AAt?$AAo?$AAw?$AAc?$AAs?$AA_?$AAl?$AA_?$AAh?$AAe?$AAl?$AAp?$AAe?$AAr?$AA?$AA@ 005494f4     LIBCMTD:mbstowcs.obj
 0003:00030528       ??_C@_1JA@JKDFMOPO@?$AA?$CI?$AAp?$AAw?$AAc?$AAs?$AA?5?$AA?$DN?$AA?$DN?$AA?5?$AAN?$AAU?$AAL?$AAL?$AA?5?$AA?$CG?$AA?$CG?$AA?5?$AAs?$AAi?$AAz?$AAe?$AAI?$AAn?$AAW?$AAo?$AAr?$AAd?$AAs?$AA?5?$AA?$DN?$AA?$DN?$AA?5@ 00549528     LIBCMTD:mbstowcs.obj
 0003:000305d4       ??_C@_1BM@PHENIGHD@?$AA_?$AAm?$AAb?$AAs?$AAt?$AAo?$AAw?$AAc?$AAs?$AA_?$AAs?$AA_?$AAl?$AA?$AA@ 005495d4     LIBCMTD:mbstowcs.obj
 0003:000305f8       ??_C@_1CM@LLECFMFH@?$AAb?$AAu?$AAf?$AAf?$AAe?$AAr?$AAS?$AAi?$AAz?$AAe?$AA?5?$AA?$DM?$AA?$DN?$AA?5?$AAI?$AAN?$AAT?$AA_?$AAM?$AAA?$AAX?$AA?$AA@ 005495f8     LIBCMTD:mbstowcs.obj
 0003:0003062c       ??_C@_1CO@JNPEPJAL@?$AAr?$AAe?$AAt?$AAs?$AAi?$AAz?$AAe?$AA?5?$AA?$DM?$AA?$DN?$AA?5?$AAs?$AAi?$AAz?$AAe?$AAI?$AAn?$AAW?$AAo?$AAr?$AAd?$AAs?$AA?$AA@ 0054962c     LIBCMTD:mbstowcs.obj
 0003:00030664       ??_C@_1BK@OIBENBPM@?$AAp?$AAw?$AAc?$AAs?$AA?5?$AA?$CB?$AA?$DN?$AA?5?$AAN?$AAU?$AAL?$AAL?$AA?$AA@ 00549664     LIBCMTD:wcstombs.obj
 0003:00030688       ??_C@_1FI@GCFLNCOB@?$AAf?$AA?3?$AA?2?$AAd?$AAd?$AA?2?$AAv?$AAc?$AAt?$AAo?$AAo?$AAl?$AAs?$AA?2?$AAc?$AAr?$AAt?$AA?2?$AAc?$AAr?$AAt?$AAw?$AA3?$AA2?$AA?2?$AAc?$AAo?$AAn?$AAv?$AAe?$AAr?$AAt@ 00549688     LIBCMTD:wcstombs.obj
 0003:000306f4       ??_C@_1CG@LLJCAOHF@?$AA_?$AAw?$AAc?$AAs?$AAt?$AAo?$AAm?$AAb?$AAs?$AA_?$AAl?$AA_?$AAh?$AAe?$AAl?$AAp?$AAe?$AAr?$AA?$AA@ 005496f4     LIBCMTD:wcstombs.obj
 0003:00030728       ??_C@_1IM@MFGKHGBP@?$AA?$CI?$AAd?$AAs?$AAt?$AA?5?$AA?$CB?$AA?$DN?$AA?5?$AAN?$AAU?$AAL?$AAL?$AA?5?$AA?$CG?$AA?$CG?$AA?5?$AAs?$AAi?$AAz?$AAe?$AAI?$AAn?$AAB?$AAy?$AAt?$AAe?$AAs?$AA?5?$AA?$DO?$AA?5?$AA0?$AA?$CJ@ 00549728     LIBCMTD:wcstombs.obj
 0003:000307d0       ??_C@_1BM@BDMCLLDL@?$AA_?$AAw?$AAc?$AAs?$AAt?$AAo?$AAm?$AAb?$AAs?$AA_?$AAs?$AA_?$AAl?$AA?$AA@ 005497d0     LIBCMTD:wcstombs.obj
 0003:000307f4       ??_C@_1CM@KEOGBFLI@?$AAs?$AAi?$AAz?$AAe?$AAI?$AAn?$AAB?$AAy?$AAt?$AAe?$AAs?$AA?5?$AA?$DO?$AA?5?$AAr?$AAe?$AAt?$AAs?$AAi?$AAz?$AAe?$AA?$AA@ 005497f4     LIBCMTD:wcstombs.obj
 0003:00030828       ??_C@_1FC@BHNGAOAE@?$AAf?$AA?3?$AA?2?$AAd?$AAd?$AA?2?$AAv?$AAc?$AAt?$AAo?$AAo?$AAl?$AAs?$AA?2?$AAc?$AAr?$AAt?$AA?2?$AAc?$AAr?$AAt?$AAw?$AA3?$AA2?$AA?2?$AAm?$AAi?$AAs?$AAc?$AA?2?$AAd?$AAb@ 00549828     LIBCMTD:dbgdel.obj
 0003:00030890       ??_7type_info@@6B@         00549890     LIBCMTD:typinfo.obj
 0003:0003089c       ??_7exception@std@@6B@     0054989c     LIBCMTD:stdexcpt.obj
 0003:000308a8       ??_C@_0BC@EOODALEL@Unknown?5exception?$AA@ 005498a8     LIBCMTD:stdexcpt.obj
 0003:000308c4       ??_7bad_cast@std@@6B@      005498c4     LIBCMTD:stdexcpt.obj
 0003:000308d4       ??_7bad_typeid@std@@6B@    005498d4     LIBCMTD:stdexcpt.obj
 0003:000308e4       ??_7__non_rtti_object@std@@6B@ 005498e4     LIBCMTD:stdexcpt.obj
 0003:00030918       ??_C@_1FE@NDFDLJMJ@?$AAf?$AA?3?$AA?2?$AAd?$AAd?$AA?2?$AAv?$AAc?$AAt?$AAo?$AAo?$AAl?$AAs?$AA?2?$AAc?$AAr?$AAt?$AA?2?$AAc?$AAr?$AAt?$AAw?$AA3?$AA2?$AA?2?$AAs?$AAt?$AAr?$AAi?$AAn?$AAg?$AA?2@ 00549918     LIBCMTD:wcsicmp.obj
 0003:0003097c       ??_C@_1BG@EELGPCPD@?$AA_?$AAw?$AAc?$AAs?$AAi?$AAc?$AAm?$AAp?$AA_?$AAl?$AA?$AA@ 0054997c     LIBCMTD:wcsicmp.obj
 0003:00030998       ??_C@_1BC@NHIBDOMC@?$AA_?$AAw?$AAc?$AAs?$AAi?$AAc?$AAm?$AAp?$AA?$AA@ 00549998     LIBCMTD:wcsicmp.obj
 0003:000309b0       ??_C@_1BM@CBACDFHA@?$AAf?$AAi?$AAr?$AAs?$AAt?$AA?5?$AA?$CB?$AA?$DN?$AA?5?$AAN?$AAU?$AAL?$AAL?$AA?$AA@ 005499b0     LIBCMTD:wcsnicmp.obj
 0003:000309d8       ??_C@_1FG@GGNDOPHP@?$AAf?$AA?3?$AA?2?$AAd?$AAd?$AA?2?$AAv?$AAc?$AAt?$AAo?$AAo?$AAl?$AAs?$AA?2?$AAc?$AAr?$AAt?$AA?2?$AAc?$AAr?$AAt?$AAw?$AA3?$AA2?$AA?2?$AAs?$AAt?$AAr?$AAi?$AAn?$AAg?$AA?2@ 005499d8     LIBCMTD:wcsnicmp.obj
 0003:00030a40       ??_C@_1BI@KLMFNDBC@?$AA_?$AAw?$AAc?$AAs?$AAn?$AAi?$AAc?$AAm?$AAp?$AA_?$AAl?$AA?$AA@ 00549a40     LIBCMTD:wcsnicmp.obj
 0003:00030a5c       ??_C@_1BK@LKBOPAFJ@?$AAl?$AAa?$AAs?$AAt?$AA?5?$AA?$CB?$AA?$DN?$AA?5?$AAN?$AAU?$AAL?$AAL?$AA?$AA@ 00549a5c     LIBCMTD:wcsnicmp.obj
 0003:00030a7c       ??_C@_1BE@JKOKKFEL@?$AA_?$AAw?$AAc?$AAs?$AAn?$AAi?$AAc?$AAm?$AAp?$AA?$AA@ 00549a7c     LIBCMTD:wcsnicmp.obj
 0003:00030a98       ??_C@_1FA@MCFBMFHP@?$AAf?$AA?3?$AA?2?$AAd?$AAd?$AA?2?$AAv?$AAc?$AAt?$AAo?$AAo?$AAl?$AAs?$AA?2?$AAc?$AAr?$AAt?$AA?2?$AAc?$AAr?$AAt?$AAw?$AA3?$AA2?$AA?2?$AAs?$AAt?$AAd?$AAi?$AAo?$AA?2?$AAf@ 00549a98     LIBCMTD:fputwc.obj
 0003:00030af8       ??_C@_1O@HJNPHHHB@?$AAf?$AAp?$AAu?$AAt?$AAw?$AAc?$AA?$AA@ 00549af8     LIBCMTD:fputwc.obj
 0003:00030b08       ??_C@_1FE@GDPLAOMM@?$AAf?$AA?3?$AA?2?$AAd?$AAd?$AA?2?$AAv?$AAc?$AAt?$AAo?$AAo?$AAl?$AAs?$AA?2?$AAc?$AAr?$AAt?$AA?2?$AAc?$AAr?$AAt?$AAw?$AA3?$AA2?$AA?2?$AAc?$AAo?$AAn?$AAv?$AAe?$AAr?$AAt@ 00549b08     LIBCMTD:wcstol.obj
 0003:00030b6c       ??_C@_1BA@PCFLFGNC@?$AAw?$AAc?$AAs?$AAt?$AAo?$AAx?$AAl?$AA?$AA@ 00549b6c     LIBCMTD:wcstol.obj
 0003:00030b80       ??_C@_1CA@MBDBOHIB@?$AA_?$AAL?$AAo?$AAc?$AAa?$AAl?$AAe?$AA?5?$AA?$CB?$AA?$DN?$AA?5?$AAN?$AAU?$AAL?$AAL?$AA?$AA@ 00549b80     LIBCMTD:strgtold.obj
 0003:00030ba8       ??_C@_1FO@OFJNJPKB@?$AAf?$AA?3?$AA?2?$AAd?$AAd?$AA?2?$AAv?$AAc?$AAt?$AAo?$AAo?$AAl?$AAs?$AA?2?$AAc?$AAr?$AAt?$AA?2?$AAf?$AAp?$AAw?$AA3?$AA2?$AA?2?$AAi?$AAn?$AAc?$AAl?$AAu?$AAd?$AAe?$AA?2@ 00549ba8     LIBCMTD:strgtold.obj
 0003:00030c18       ??_C@_1BO@IHLJHOPI@?$AA_?$AA_?$AAs?$AAt?$AAr?$AAg?$AAt?$AAo?$AAl?$AAd?$AA1?$AA2?$AA_?$AAl?$AA?$AA@ 00549c18     LIBCMTD:strgtold.obj
 0003:00030c40       ??_C@_1EO@IKHIJFCK@?$AAf?$AA?3?$AA?2?$AAd?$AAd?$AA?2?$AAv?$AAc?$AAt?$AAo?$AAo?$AAl?$AAs?$AA?2?$AAc?$AAr?$AAt?$AA?2?$AAf?$AAp?$AAw?$AA3?$AA2?$AA?2?$AAc?$AAo?$AAn?$AAv?$AA?2?$AAx?$AA1?$AA0@ 00549c40     LIBCMTD:x10fout.obj
 0003:00030ca0       ??_C@_1BI@ELMAAFLN@?$AA$?$AAI?$AA1?$AA0?$AA_?$AAO?$AAU?$AAT?$AAP?$AAU?$AAT?$AA?$AA@ 00549ca0     LIBCMTD:x10fout.obj
 0003:00030cc0       ??_C@_1EG@CDDBFNOB@?$AAs?$AAt?$AAr?$AAc?$AAp?$AAy?$AA_?$AAs?$AA?$CI?$AAf?$AAo?$AAs?$AA?9?$AA?$DO?$AAm?$AAa?$AAn?$AA?0?$AA?5?$AA2?$AA1?$AA?$CL?$AA1?$AA?0?$AA?5?$AA?$CC?$AA1?$AA?$CD?$AAS?$AAN?$AAA?$AAN@ 00549cc0     LIBCMTD:x10fout.obj
 0003:00030d14       ??_C@_06PGGFOGJG@1?$CDSNAN?$AA@ 00549d14     LIBCMTD:x10fout.obj
 0003:00030d20       ??_C@_1EE@MADEBIHF@?$AAs?$AAt?$AAr?$AAc?$AAp?$AAy?$AA_?$AAs?$AA?$CI?$AAf?$AAo?$AAs?$AA?9?$AA?$DO?$AAm?$AAa?$AAn?$AA?0?$AA?5?$AA2?$AA1?$AA?$CL?$AA1?$AA?0?$AA?5?$AA?$CC?$AA1?$AA?$CD?$AAI?$AAN?$AAD?$AA?$CC@ 00549d20     LIBCMTD:x10fout.obj
 0003:00030d74       ??_C@_05PHHOCPM@1?$CDIND?$AA@ 00549d74     LIBCMTD:x10fout.obj
 0003:00030d80       ??_C@_1EE@ICBBBPAI@?$AAs?$AAt?$AAr?$AAc?$AAp?$AAy?$AA_?$AAs?$AA?$CI?$AAf?$AAo?$AAs?$AA?9?$AA?$DO?$AAm?$AAa?$AAn?$AA?0?$AA?5?$AA2?$AA1?$AA?$CL?$AA1?$AA?0?$AA?5?$AA?$CC?$AA1?$AA?$CD?$AAI?$AAN?$AAF?$AA?$CC@ 00549d80     LIBCMTD:x10fout.obj
 0003:00030dd4       ??_C@_05DNEBIAHO@1?$CDINF?$AA@ 00549dd4     LIBCMTD:x10fout.obj
 0003:00030de0       ??_C@_1EG@MCFPJJEM@?$AAs?$AAt?$AAr?$AAc?$AAp?$AAy?$AA_?$AAs?$AA?$CI?$AAf?$AAo?$AAs?$AA?9?$AA?$DO?$AAm?$AAa?$AAn?$AA?0?$AA?5?$AA2?$AA1?$AA?$CL?$AA1?$AA?0?$AA?5?$AA?$CC?$AA1?$AA?$CD?$AAQ?$AAN?$AAA?$AAN@ 00549de0     LIBCMTD:x10fout.obj
 0003:00030e34       ??_C@_06IMKFLFPG@1?$CDQNAN?$AA@ 00549e34     LIBCMTD:x10fout.obj
 0003:00030e3c       ?commonFlags@?1??_control87@@9@9 00549e3c     LIBCMTD:ieee87.obj
 0003:00030e40       ??_C@_1FG@DINMPAPJ@?$AAf?$AA?3?$AA?2?$AAd?$AAd?$AA?2?$AAv?$AAc?$AAt?$AAo?$AAo?$AAl?$AAs?$AA?2?$AAc?$AAr?$AAt?$AA?2?$AAf?$AAp?$AAw?$AA3?$AA2?$AA?2?$AAt?$AAr?$AAa?$AAn?$AA?2?$AAi?$AA3?$AA8@ 00549e40     LIBCMTD:ieee87.obj
 0003:00030ea8       ??_C@_1BO@OFDNCLL@?$AA_?$AAs?$AAe?$AAt?$AA_?$AAc?$AAo?$AAn?$AAt?$AAr?$AAo?$AAl?$AAf?$AAp?$AA?$AA@ 00549ea8     LIBCMTD:ieee87.obj
 0003:00030ed0       ??_C@_1GO@OKJGOMCB@?$AA_?$AAc?$AAo?$AAn?$AAt?$AAr?$AAo?$AAl?$AAf?$AAp?$AA_?$AAs?$AA?$CI?$AA?$CI?$AA?$CI?$AAv?$AAo?$AAi?$AAd?$AA?5?$AA?$CK?$AA?$CJ?$AA0?$AA?$CJ?$AA?0?$AA?5?$AAn?$AAe?$AAw?$AAc?$AAt?$AAr@ 00549ed0     LIBCMTD:ieee87.obj
 0003:00030f54       ??_C@_1BA@BALFACEM@?$AAC?$AAO?$AAN?$AAO?$AAU?$AAT?$AA$?$AA?$AA@ 00549f54     LIBCMTD:initcon.obj
 0003:00030f68       ??_C@_1CK@GELGGBDK@?$AAp?$AAN?$AAo?$AAd?$AAe?$AA?9?$AA?$DO?$AA_?$AAN?$AAe?$AAx?$AAt?$AA?5?$AA?$CB?$AA?$DN?$AA?5?$AAN?$AAU?$AAL?$AAL?$AA?$AA@ 00549f68     LIBCMTD:typname.obj
 0003:00030fa0       ??_C@_1FA@KAJOMDBA@?$AAf?$AA?3?$AA?2?$AAd?$AAd?$AA?2?$AAv?$AAc?$AAt?$AAo?$AAo?$AAl?$AAs?$AA?2?$AAc?$AAr?$AAt?$AA?2?$AAc?$AAr?$AAt?$AAw?$AA3?$AA2?$AA?2?$AAe?$AAh?$AA?2?$AAt?$AAy?$AAp?$AAn@ 00549fa0     LIBCMTD:typname.obj
 0003:00031000       ??_C@_1CM@OOICDMK@?$AAt?$AAy?$AAp?$AAe?$AA_?$AAi?$AAn?$AAf?$AAo?$AA?3?$AA?3?$AA_?$AAN?$AAa?$AAm?$AAe?$AA_?$AAb?$AAa?$AAs?$AAe?$AA?$AA@ 0054a000     LIBCMTD:typname.obj
 0003:00031038       ??_C@_1JK@NAFNEPGC@?$AAs?$AAt?$AAr?$AAc?$AAp?$AAy?$AA_?$AAs?$AA?5?$AA?$CI?$AA?$CI?$AAc?$AAh?$AAa?$AAr?$AA?5?$AA?$CK?$AA?$CJ?$AA?$CI?$AA?$CI?$AAt?$AAy?$AAp?$AAe?$AA_?$AAi?$AAn?$AAf?$AAo?$AA?5?$AA?$CK?$AA?$CJ@ 0054a038     LIBCMTD:typname.obj
 0003:000310f0       ??_C@_1DO@OJJLFJPE@?$AAt?$AAy?$AAp?$AAe?$AA_?$AAi?$AAn?$AAf?$AAo?$AA?3?$AA?3?$AA_?$AAN?$AAa?$AAm?$AAe?$AA_?$AAb?$AAa?$AAs?$AAe?$AA_?$AAi?$AAn?$AAt?$AAe?$AAr?$AAn?$AAa?$AAl?$AA?$AA@ 0054a0f0     LIBCMTD:typname.obj
 0003:00031140       ??_C@_1GI@EAJKJPED@?$AAs?$AAt?$AAr?$AAc?$AAp?$AAy?$AA_?$AAs?$AA?5?$AA?$CI?$AAp?$AAT?$AAm?$AAp?$AAT?$AAy?$AAp?$AAe?$AAN?$AAa?$AAm?$AAe?$AA?0?$AA?5?$AAl?$AAe?$AAn?$AA?$CL?$AA2?$AA?0?$AA?5?$AA?$CI@ 0054a140     LIBCMTD:typname.obj
 0003:000311c0       ??_C@_1FE@IEEFCKDG@?$AAf?$AA?3?$AA?2?$AAd?$AAd?$AA?2?$AAv?$AAc?$AAt?$AAo?$AAo?$AAl?$AAs?$AA?2?$AAc?$AAr?$AAt?$AA?2?$AAc?$AAr?$AAt?$AAw?$AA3?$AA2?$AA?2?$AAc?$AAo?$AAn?$AAv?$AAe?$AAr?$AAt@ 0054a1c0     LIBCMTD:wcstoq.obj
 0003:00031224       ??_C@_1BA@FACINJJA@?$AAw?$AAc?$AAs?$AAt?$AAo?$AAx?$AAq?$AA?$AA@ 0054a224     LIBCMTD:wcstoq.obj
 0003:00031238       ??_C@_0CK@CEJCOKEF@f?3?2dd?2vctools?2crt?2crtw32?2convert@ 0054a238     LIBCMTD:wcstoq.obj
 0003:0003144c       ??_C@_08EHJDFFNH@__based?$CI?$AA@ 0054a44c     LIBCMTD:undname.obj
 0003:00031458       ??_C@_07KOLFKCDI@__cdecl?$AA@ 0054a458     LIBCMTD:undname.obj
 0003:00031464       ??_C@_08GHMPAG@__pascal?$AA@ 0054a464     LIBCMTD:undname.obj
 0003:00031470       ??_C@_09IFJBGAPI@__stdcall?$AA@ 0054a470     LIBCMTD:undname.obj
 0003:0003147c       ??_C@_0L@NPHFGOKO@__thiscall?$AA@ 0054a47c     LIBCMTD:undname.obj
 0003:0003148c       ??_C@_0L@JMKHOMEK@__fastcall?$AA@ 0054a48c     LIBCMTD:undname.obj
 0003:0003149c       ??_C@_0N@BCKKPABJ@__vectorcall?$AA@ 0054a49c     LIBCMTD:undname.obj
 0003:000314ac       ??_C@_09HIJEGCPM@__clrcall?$AA@ 0054a4ac     LIBCMTD:undname.obj
 0003:000314b8       ??_C@_06GHPCKEAG@__eabi?$AA@ 0054a4b8     LIBCMTD:undname.obj
 0003:000314c0       ??_C@_07JOMMBBKO@__ptr64?$AA@ 0054a4c0     LIBCMTD:undname.obj
 0003:000314cc       ??_C@_0L@PILCLIHE@__restrict?$AA@ 0054a4cc     LIBCMTD:undname.obj
 0003:000314dc       ??_C@_0M@GFIIJFMG@__unaligned?$AA@ 0054a4dc     LIBCMTD:undname.obj
 0003:000314ec       ??_C@_09DHDLOLLB@restrict?$CI?$AA@ 0054a4ec     LIBCMTD:undname.obj
 0003:000314f8       ??_C@_04NIHEBCM@?5new?$AA@ 0054a4f8     LIBCMTD:undname.obj
 0003:00031500       ??_C@_07FPCDHGMM@?5delete?$AA@ 0054a500     LIBCMTD:undname.obj
 0003:0003150c       ??_C@_01NEMOKFLO@?$DN?$AA@ 0054a50c     LIBCMTD:undname.obj
 0003:00031510       ??_C@_02GPIOPFAK@?$DO?$DO?$AA@ 0054a510     LIBCMTD:undname.obj
 0003:00031514       ??_C@_02FODMEDOG@?$DM?$DM?$AA@ 0054a514     LIBCMTD:undname.obj
 0003:00031518       ??_C@_01DCLJPIOD@?$CB?$AA@ 0054a518     LIBCMTD:undname.obj
 0003:0003151c       ??_C@_02EGOFBIJA@?$DN?$DN?$AA@ 0054a51c     LIBCMTD:undname.obj
 0003:00031520       ??_C@_02FDNJECIE@?$CB?$DN?$AA@ 0054a520     LIBCMTD:undname.obj
 0003:00031524       ??_C@_02GPECMEKF@?$FL?$FN?$AA@ 0054a524     LIBCMTD:undname.obj
 0003:00031528       ??_C@_08LHJFAFGD@operator?$AA@ 0054a528     LIBCMTD:undname.obj
 0003:00031534       ??_C@_02HBOOOICD@?9?$DO?$AA@ 0054a534     LIBCMTD:undname.obj
 0003:00031538       ??_C@_01NBENCBCI@?$CK?$AA@ 0054a538     LIBCMTD:undname.obj
 0003:0003153c       ??_C@_02ECNGHCIF@?$CL?$CL?$AA@ 0054a53c     LIBCMTD:undname.obj
 0003:00031540       ??_C@_01MIFGBAGJ@?$CL?$AA@ 0054a540     LIBCMTD:undname.obj
 0003:00031544       ??_C@_01HNPIGOCE@?$CG?$AA@ 0054a544     LIBCMTD:undname.obj
 0003:00031548       ??_C@_03MNHNFDLC@?9?$DO?$CK?$AA@ 0054a548     LIBCMTD:undname.obj
 0003:0003154c       ??_C@_01FGNFDNOH@?$CF?$AA@ 0054a54c     LIBCMTD:undname.obj
 0003:00031550       ??_C@_01MNNFJEPP@?$DM?$AA@ 0054a550     LIBCMTD:undname.obj
 0003:00031554       ??_C@_02EHCHHCKH@?$DM?$DN?$AA@ 0054a554     LIBCMTD:undname.obj
 0003:00031558       ??_C@_01PPODPGHN@?$DO?$AA@ 0054a558     LIBCMTD:undname.obj
 0003:0003155c       ??_C@_02EEKDKGMJ@?$DO?$DN?$AA@ 0054a55c     LIBCMTD:undname.obj
 0003:00031560       ??_C@_01IHBHIGKO@?0?$AA@   0054a560     LIBCMTD:undname.obj
 0003:00031564       ??_C@_02HCKGKOFO@?$CI?$CJ?$AA@ 0054a564     LIBCMTD:undname.obj
 0003:00031568       ??_C@_01PJKLJHI@?$HO?$AA@  0054a568     LIBCMTD:undname.obj
 0003:0003156c       ??_C@_01JKBOJNNK@?$FO?$AA@ 0054a56c     LIBCMTD:undname.obj
 0003:00031570       ??_C@_01DNKMNLPK@?$HM?$AA@ 0054a570     LIBCMTD:undname.obj
 0003:00031574       ??_C@_02PPKAJPJL@?$CG?$CG?$AA@ 0054a574     LIBCMTD:undname.obj
 0003:00031578       ??_C@_02NONPIBCD@?$HM?$HM?$AA@ 0054a578     LIBCMTD:undname.obj
 0003:0003157c       ??_C@_02FPIMKNGF@?$CK?$DN?$AA@ 0054a57c     LIBCMTD:undname.obj
 0003:00031580       ??_C@_02FOEOMHFC@?$CL?$DN?$AA@ 0054a580     LIBCMTD:undname.obj
 0003:00031584       ??_C@_02FKMDLLOA@?9?$DN?$AA@ 0054a584     LIBCMTD:undname.obj
 0003:00031588       ??_C@_02FJEHGPIO@?1?$DN?$AA@ 0054a588     LIBCMTD:undname.obj
 0003:0003158c       ??_C@_02FENAOKFI@?$CF?$DN?$AA@ 0054a58c     LIBCMTD:undname.obj
 0003:00031590       ??_C@_03IKFCCPFF@?$DO?$DO?$DN?$AA@ 0054a590     LIBCMTD:undname.obj
 0003:00031594       ??_C@_03CDNPDDLA@?$DM?$DM?$DN?$AA@ 0054a594     LIBCMTD:undname.obj
 0003:00031598       ??_C@_02FGJGFEAB@?$CG?$DN?$AA@ 0054a598     LIBCMTD:undname.obj
 0003:0003159c       ??_C@_02DHLNPPGH@?$HM?$DN?$AA@ 0054a59c     LIBCMTD:undname.obj
 0003:000315a0       ??_C@_02MHEGNOJ@?$FO?$DN?$AA@ 0054a5a0     LIBCMTD:undname.obj
 0003:000315a4       ??_C@_09IFPLHPGF@?$GAvftable?8?$AA@ 0054a5a4     LIBCMTD:undname.obj
 0003:000315b0       ??_C@_09BLBHBJP@?$GAvbtable?8?$AA@ 0054a5b0     LIBCMTD:undname.obj
 0003:000315bc       ??_C@_07FEEIOKP@?$GAvcall?8?$AA@ 0054a5bc     LIBCMTD:undname.obj
 0003:000315c8       ??_C@_08LLFFHHDJ@?$GAtypeof?8?$AA@ 0054a5c8     LIBCMTD:undname.obj
 0003:000315d4       ??_C@_0BF@KDPPACIK@?$GAlocal?5static?5guard?8?$AA@ 0054a5d4     LIBCMTD:undname.obj
 0003:000315f0       ??_C@_08OBABFOLI@?$GAstring?8?$AA@ 0054a5f0     LIBCMTD:undname.obj
 0003:000315fc       ??_C@_0BD@JDLKDPAB@?$GAvbase?5destructor?8?$AA@ 0054a5fc     LIBCMTD:undname.obj
 0003:00031614       ??_C@_0BN@DEGPLNFK@?$GAvector?5deleting?5destructor?8?$AA@ 0054a614     LIBCMTD:undname.obj
 0003:00031638       ??_C@_0BO@OBMKPJIG@?$GAdefault?5constructor?5closure?8?$AA@ 0054a638     LIBCMTD:undname.obj
 0003:0003165c       ??_C@_0BN@IMDCHIKM@?$GAscalar?5deleting?5destructor?8?$AA@ 0054a65c     LIBCMTD:undname.obj
 0003:00031680       ??_C@_0BO@PFGOCPJJ@?$GAvector?5constructor?5iterator?8?$AA@ 0054a680     LIBCMTD:undname.obj
 0003:000316a4       ??_C@_0BN@LFPFMEDL@?$GAvector?5destructor?5iterator?8?$AA@ 0054a6a4     LIBCMTD:undname.obj
 0003:000316c8       ??_C@_0CE@IKBNEHA@?$GAvector?5vbase?5constructor?5iterat@ 0054a6c8     LIBCMTD:undname.obj
 0003:000316f4       ??_C@_0BL@NILFHHPC@?$GAvirtual?5displacement?5map?8?$AA@ 0054a6f4     LIBCMTD:undname.obj
 0003:00031714       ??_C@_0CB@JONCMFFK@?$GAeh?5vector?5constructor?5iterator?8@ 0054a714     LIBCMTD:undname.obj
 0003:0003173c       ??_C@_0CA@GCEOPDGL@?$GAeh?5vector?5destructor?5iterator?8?$AA@ 0054a73c     LIBCMTD:undname.obj
 0003:00031764       ??_C@_0CH@OOJPLCPH@?$GAeh?5vector?5vbase?5constructor?5ite@ 0054a764     LIBCMTD:undname.obj
 0003:00031794       ??_C@_0BL@LLKPOHJI@?$GAcopy?5constructor?5closure?8?$AA@ 0054a794     LIBCMTD:undname.obj
 0003:000317b4       ??_C@_0BA@KBCDOMBN@?$GAudt?5returning?8?$AA@ 0054a7b4     LIBCMTD:undname.obj
 0003:000317c8       ??_C@_03KLGMFNMG@?$GAEH?$AA@ 0054a7c8     LIBCMTD:undname.obj
 0003:000317cc       ??_C@_05KHLCHHI@?$GARTTI?$AA@ 0054a7cc     LIBCMTD:undname.obj
 0003:000317d4       ??_C@_0BA@KKLDJDLB@?$GAlocal?5vftable?8?$AA@ 0054a7d4     LIBCMTD:undname.obj
 0003:000317e8       ??_C@_0CE@IIHCMGGL@?$GAlocal?5vftable?5constructor?5closu@ 0054a7e8     LIBCMTD:undname.obj
 0003:00031814       ??_C@_06FHBGPFGH@?5new?$FL?$FN?$AA@ 0054a814     LIBCMTD:undname.obj
 0003:0003181c       ??_C@_09LBNFPBCA@?5delete?$FL?$FN?$AA@ 0054a81c     LIBCMTD:undname.obj
 0003:00031828       ??_C@_0P@HJKNJFNN@?$GAomni?5callsig?8?$AA@ 0054a828     LIBCMTD:undname.obj
 0003:0003183c       ??_C@_0BL@CNOONJFP@?$GAplacement?5delete?5closure?8?$AA@ 0054a83c     LIBCMTD:undname.obj
 0003:0003185c       ??_C@_0BN@CKNJLHMB@?$GAplacement?5delete?$FL?$FN?5closure?8?$AA@ 0054a85c     LIBCMTD:undname.obj
 0003:00031880       ??_C@_0CG@CFDHKGGD@?$GAmanaged?5vector?5constructor?5iter@ 0054a880     LIBCMTD:undname.obj
 0003:000318b0       ??_C@_0CF@IMGKMJNO@?$GAmanaged?5vector?5destructor?5itera@ 0054a8b0     LIBCMTD:undname.obj
 0003:000318dc       ??_C@_0CG@HLDDJMAG@?$GAeh?5vector?5copy?5constructor?5iter@ 0054a8dc     LIBCMTD:undname.obj
 0003:0003190c       ??_C@_0CM@FCBBDIGB@?$GAeh?5vector?5vbase?5copy?5constructo@ 0054a90c     LIBCMTD:undname.obj
 0003:00031940       ??_C@_0BL@CLIPGLGB@?$GAdynamic?5initializer?5for?5?8?$AA@ 0054a940     LIBCMTD:undname.obj
 0003:00031960       ??_C@_0CB@PDBIFEP@?$GAdynamic?5atexit?5destructor?5for?5?8@ 0054a960     LIBCMTD:undname.obj
 0003:00031988       ??_C@_0CD@CGAJBKEJ@?$GAvector?5copy?5constructor?5iterato@ 0054a988     LIBCMTD:undname.obj
 0003:000319b4       ??_C@_0CJ@GJELGAMM@?$GAvector?5vbase?5copy?5constructor?5i@ 0054a9b4     LIBCMTD:undname.obj
 0003:000319e8       ??_C@_0CL@FGIJHLCE@?$GAmanaged?5vector?5copy?5constructor@ 0054a9e8     LIBCMTD:undname.obj
 0003:00031a1c       ??_C@_0BM@PMGGMLDN@?$GAlocal?5static?5thread?5guard?8?$AA@ 0054aa1c     LIBCMTD:undname.obj
 0003:00031a40       ??_C@_0BC@DAFEJGAK@?5Type?5Descriptor?8?$AA@ 0054aa40     LIBCMTD:undname.obj
 0003:00031a58       ??_C@_0BM@LDKODKLH@?5Base?5Class?5Descriptor?5at?5?$CI?$AA@ 0054aa58     LIBCMTD:undname.obj
 0003:00031a7c       ??_C@_0BD@LGICGFMM@?5Base?5Class?5Array?8?$AA@ 0054aa7c     LIBCMTD:undname.obj
 0003:00031a94       ??_C@_0BN@MECKDCOJ@?5Class?5Hierarchy?5Descriptor?8?$AA@ 0054aa94     LIBCMTD:undname.obj
 0003:00031ab8       ??_C@_0BK@CFCOFLF@?5Complete?5Object?5Locator?8?$AA@ 0054aab8     LIBCMTD:undname.obj
 0003:00031ad8       ??_C@_04HEJADOOB@CV?3?5?$AA@ 0054aad8     LIBCMTD:undname.obj
 0003:00031ae0       ??_C@_02MOLJINC@?3?3?$AA@  0054aae0     LIBCMTD:undname.obj
 0003:00031ae4       ??_C@_0BE@JAEOCHPE@template?9parameter?9?$AA@ 0054aae4     LIBCMTD:undname.obj
 0003:00031afc       ??_C@_0O@KHGCOMHP@generic?9type?9?$AA@ 0054aafc     LIBCMTD:undname.obj
 0003:00031b0c       ??_C@_01NLNLIGKH@?$GA?$AA@ 0054ab0c     LIBCMTD:undname.obj
 0003:00031b10       ??_C@_01GEODFPGF@?8?$AA@   0054ab10     LIBCMTD:undname.obj
 0003:00031b14       ??_C@_0BG@JNJLAMPM@?$GAanonymous?5namespace?8?$AA@ 0054ab14     LIBCMTD:undname.obj
 0003:00031b30       ??_C@_02OHHJMEON@?8?8?$AA@ 0054ab30     LIBCMTD:undname.obj
 0003:00031b34       ??_C@_0BN@IBLMMFAP@?$GAnon?9type?9template?9parameter?$AA@ 0054ab34     LIBCMTD:undname.obj
 0003:00031b58       ??_C@_04GKJNKENE@void?$AA@ 0054ab58     LIBCMTD:undname.obj
 0003:00031b60       ??_C@_0BE@EODMJLIF@?$GAtemplate?9parameter?$AA@ 0054ab60     LIBCMTD:undname.obj
 0003:00031b78       ??_C@_03OPGICMGF@?$HN?8?5?$AA@ 0054ab78     LIBCMTD:undname.obj
 0003:00031b7c       ??_C@_02IGFCGPIL@?$HN?8?$AA@ 0054ab7c     LIBCMTD:undname.obj
 0003:00031b80       ??_C@_0N@CBHHHENL@?$GAvtordispex?$HL?$AA@ 0054ab80     LIBCMTD:undname.obj
 0003:00031b90       ??_C@_0L@GHPFDFH@?$GAvtordisp?$HL?$AA@ 0054ab90     LIBCMTD:undname.obj
 0003:00031ba0       ??_C@_0L@HNGCOGAE@?$GAadjustor?$HL?$AA@ 0054aba0     LIBCMTD:undname.obj
 0003:00031bb0       ??_C@_0CB@KJDOOODE@?$GAlocal?5static?5destructor?5helper?8@ 0054abb0     LIBCMTD:undname.obj
 0003:00031bd8       ??_C@_0DB@ILEFOCIJ@?$GAtemplate?5static?5data?5member?5con@ 0054abd8     LIBCMTD:undname.obj
 0003:00031c14       ??_C@_0DA@HGFJFBBE@?$GAtemplate?5static?5data?5member?5des@ 0054ac14     LIBCMTD:undname.obj
 0003:00031c50       ??_C@_07PGOEDBHP@static?5?$AA@ 0054ac50     LIBCMTD:undname.obj
 0003:00031c5c       ??_C@_08NIEOINHE@virtual?5?$AA@ 0054ac5c     LIBCMTD:undname.obj
 0003:00031c68       ??_C@_09LAPHOOG@private?3?5?$AA@ 0054ac68     LIBCMTD:undname.obj
 0003:00031c74       ??_C@_0M@GAIFPFIP@protected?3?5?$AA@ 0054ac74     LIBCMTD:undname.obj
 0003:00031c84       ??_C@_08GPDDCMKI@public?3?5?$AA@ 0054ac84     LIBCMTD:undname.obj
 0003:00031c90       ??_C@_08KJLFOPNE@?$FLthunk?$FN?3?$AA@ 0054ac90     LIBCMTD:undname.obj
 0003:00031c9c       ??_C@_0M@DHNBOJMP@extern?5?$CCC?$CC?5?$AA@ 0054ac9c     LIBCMTD:undname.obj
 0003:00031cac       ??_C@_02KCKGHPCA@?$CJ?5?$AA@ 0054acac     LIBCMTD:undname.obj
 0003:00031cb0       ??_C@_05CIHEBHNO@char?5?$AA@ 0054acb0     LIBCMTD:undname.obj
 0003:00031cb8       ??_C@_06EHJMALKF@short?5?$AA@ 0054acb8     LIBCMTD:undname.obj
 0003:00031cc0       ??_C@_04LAHKHJMA@int?5?$AA@ 0054acc0     LIBCMTD:undname.obj
 0003:00031cc8       ??_C@_05CJIMAING@long?5?$AA@ 0054acc8     LIBCMTD:undname.obj
 0003:00031cd0       ??_C@_09EBBEKKIH@unsigned?5?$AA@ 0054acd0     LIBCMTD:undname.obj
 0003:00031cdc       ??_C@_05BEFAKPML@void?5?$AA@ 0054acdc     LIBCMTD:undname.obj
 0003:00031ce4       ??_C@_08PABEKFH@volatile?$AA@ 0054ace4     LIBCMTD:undname.obj
 0003:00031cf0       ??_C@_0P@GCOCNKDM@std?3?3nullptr_t?$AA@ 0054acf0     LIBCMTD:undname.obj
 0003:00031d04       ??_C@_0L@EGPHHEKN@?$DMellipsis?$DO?$AA@ 0054ad04     LIBCMTD:undname.obj
 0003:00031d14       ??_C@_04EENFHACM@?0?4?4?4?$AA@ 0054ad14     LIBCMTD:undname.obj
 0003:00031d1c       ??_C@_0M@ELJOJFFH@?0?$DMellipsis?$DO?$AA@ 0054ad1c     LIBCMTD:undname.obj
 0003:00031d2c       ??_C@_07HDJPLPEK@?5throw?$CI?$AA@ 0054ad2c     LIBCMTD:undname.obj
 0003:00031d38       ??_C@_03PBJBJNON@cpu?$AA@  0054ad38     LIBCMTD:undname.obj
 0003:00031d3c       ??_C@_03DCBBJBAA@amp?$AA@  0054ad3c     LIBCMTD:undname.obj
 0003:00031d40       ??_C@_02KEGNLNML@?0?5?$AA@ 0054ad40     LIBCMTD:undname.obj
 0003:00031d44       ??_C@_04ENMBGAPA@char?$AA@ 0054ad44     LIBCMTD:undname.obj
 0003:00031d4c       ??_C@_05BFKKPKCG@short?$AA@ 0054ad4c     LIBCMTD:undname.obj
 0003:00031d54       ??_C@_03JBIPMCLC@int?$AA@  0054ad54     LIBCMTD:undname.obj
 0003:00031d58       ??_C@_04GOKPGOLB@long?$AA@ 0054ad58     LIBCMTD:undname.obj
 0003:00031d60       ??_C@_05KNFBNCOH@float?$AA@ 0054ad60     LIBCMTD:undname.obj
 0003:00031d68       ??_C@_06BNJCAIGJ@double?$AA@ 0054ad68     LIBCMTD:undname.obj
 0003:00031d70       ??_C@_04DDKJGDCM@bool?$AA@ 0054ad70     LIBCMTD:undname.obj
 0003:00031d78       ??_C@_06EBGKOKIG@__int8?$AA@ 0054ad78     LIBCMTD:undname.obj
 0003:00031d80       ??_C@_07ICFHOGAF@__int16?$AA@ 0054ad80     LIBCMTD:undname.obj
 0003:00031d8c       ??_C@_07OFLPPHGP@__int32?$AA@ 0054ad8c     LIBCMTD:undname.obj
 0003:00031d98       ??_C@_07LFCOJCAC@__int64?$AA@ 0054ad98     LIBCMTD:undname.obj
 0003:00031da4       ??_C@_08GAHOLHEO@__int128?$AA@ 0054ada4     LIBCMTD:undname.obj
 0003:00031db0       ??_C@_09EEKGDCPH@?$DMunknown?$DO?$AA@ 0054adb0     LIBCMTD:undname.obj
 0003:00031dbc       ??_C@_07CLGGIAMF@wchar_t?$AA@ 0054adbc     LIBCMTD:undname.obj
 0003:00031dc8       ??_C@_06GCICPBLB@__w64?5?$AA@ 0054adc8     LIBCMTD:undname.obj
 0003:00031dd0       ??_C@_07NFANNNEC@UNKNOWN?$AA@ 0054add0     LIBCMTD:undname.obj
 0003:00031ddc       ??_C@_07EDHNAJHC@signed?5?$AA@ 0054addc     LIBCMTD:undname.obj
 0003:00031de8       ??_C@_05BNCCCJPP@const?$AA@ 0054ade8     LIBCMTD:undname.obj
 0003:00031df0       ??_C@_09EFNPDFFP@?5volatile?$AA@ 0054adf0     LIBCMTD:undname.obj
 0003:00031dfc       ??_C@_0P@GCIFDJCJ@?$GAunknown?5ecsu?8?$AA@ 0054adfc     LIBCMTD:undname.obj
 0003:00031e10       ??_C@_06MOJHIBMG@union?5?$AA@ 0054ae10     LIBCMTD:undname.obj
 0003:00031e18       ??_C@_07DIBCDNGL@struct?5?$AA@ 0054ae18     LIBCMTD:undname.obj
 0003:00031e24       ??_C@_06LJBABKPM@class?5?$AA@ 0054ae24     LIBCMTD:undname.obj
 0003:00031e2c       ??_C@_08KOFANOFK@coclass?5?$AA@ 0054ae2c     LIBCMTD:undname.obj
 0003:00031e38       ??_C@_0N@DLIEFKNA@cointerface?5?$AA@ 0054ae38     LIBCMTD:undname.obj
 0003:00031e48       ??_C@_05LJGMCFOG@enum?5?$AA@ 0054ae48     LIBCMTD:undname.obj
 0003:00031e50       ??_C@_09GAIEOBLP@volatile?5?$AA@ 0054ae50     LIBCMTD:undname.obj
 0003:00031e5c       ??_C@_06LIJLOJAG@const?5?$AA@ 0054ae5c     LIBCMTD:undname.obj
 0003:00031e64       ??_C@_0M@EALIELKG@cli?3?3array?$DM?$AA@ 0054ae64     LIBCMTD:undname.obj
 0003:00031e74       ??_C@_0O@GKABPPIF@cli?3?3pin_ptr?$DM?$AA@ 0054ae74     LIBCMTD:undname.obj
 0003:00031e84       ??_C@_02GOGNNPBN@?$CJ?$FL?$AA@ 0054ae84     LIBCMTD:undname.obj
 0003:00031e88       ??_C@_06EEGAIFAK@?$HLflat?$HN?$AA@ 0054ae88     LIBCMTD:undname.obj
 0003:00031e90       ??_C@_05JIBOFOHK@?$HLfor?5?$AA@ 0054ae90     LIBCMTD:undname.obj
 0003:00031e98       ??_C@_02MDINNEEG@s?5?$AA@  0054ae98     LIBCMTD:undname.obj
 0003:00031ea0       ??_7DNameNode@@6B@         0054aea0     LIBCMTD:undname.obj
 0003:00031eb4       ??_7charNode@@6B@          0054aeb4     LIBCMTD:undname.obj
 0003:00031ec8       ??_7pcharNode@@6B@         0054aec8     LIBCMTD:undname.obj
 0003:00031edc       ??_7pDNameNode@@6B@        0054aedc     LIBCMTD:undname.obj
 0003:00031ef0       ??_7DNameStatusNode@@6B@   0054aef0     LIBCMTD:undname.obj
 0003:00031f04       ??_7pairNode@@6B@          0054af04     LIBCMTD:undname.obj
 0003:00031f14       ??_C@_04OKOHEJBO@?5?$DP?$DP?5?$AA@ 0054af14     LIBCMTD:undname.obj
 0003:00031f20       ??_C@_1FE@LABOBFHJ@?$AAf?$AA?3?$AA?2?$AAd?$AAd?$AA?2?$AAv?$AAc?$AAt?$AAo?$AAo?$AAl?$AAs?$AA?2?$AAc?$AAr?$AAt?$AA?2?$AAc?$AAr?$AAt?$AAw?$AA3?$AA2?$AA?2?$AAc?$AAo?$AAn?$AAv?$AAe?$AAr?$AAt@ 0054af20     LIBCMTD:wcstod.obj
 0003:00031f84       ??_C@_1BE@CIGDJHAJ@?$AA_?$AAw?$AAc?$AAs?$AAt?$AAo?$AAd?$AA_?$AAl?$AA?$AA@ 0054af84     LIBCMTD:wcstod.obj
 0003:00031f9c       ??_C@_1CA@JGBKKNCE@?$AA_?$AA_?$AAw?$AAs?$AAt?$AAr?$AAg?$AAt?$AAo?$AAl?$AAd?$AA1?$AA2?$AA_?$AAl?$AA?$AA@ 0054af9c     LIBCMTD:wstrgtold.obj
 0003:00031fc4       ??_C@_07GBKCPIDJ@ext?9fmt?$AA@ 0054afc4     pjmedia-audiodev-i386-win32-vc8-debug:audiodev.obj
 0003:00031fd0       ??_C@_0BI@GGHCECPI@Extended?1non?9PCM?5format?$AA@ 0054afd0     pjmedia-audiodev-i386-win32-vc8-debug:audiodev.obj
 0003:00031fec       ??_C@_0L@IKNMBADD@latency?9in?$AA@ 0054afec     pjmedia-audiodev-i386-win32-vc8-debug:audiodev.obj
 0003:00031ffc       ??_C@_0CC@LIGOHOJN@Input?5latency?1buffer?5size?5settin@ 0054affc     pjmedia-audiodev-i386-win32-vc8-debug:audiodev.obj
 0003:00032024       ??_C@_0M@MBBBBCLJ@latency?9out?$AA@ 0054b024     pjmedia-audiodev-i386-win32-vc8-debug:audiodev.obj
 0003:00032034       ??_C@_0CD@GAINMBC@Output?5latency?1buffer?5size?5setti@ 0054b034     pjmedia-audiodev-i386-win32-vc8-debug:audiodev.obj
 0003:00032060       ??_C@_06KGGLCDDG@vol?9in?$AA@ 0054b060     pjmedia-audiodev-i386-win32-vc8-debug:audiodev.obj
 0003:00032068       ??_C@_0BF@CCEKOJAN@Input?5volume?5setting?$AA@ 0054b068     pjmedia-audiodev-i386-win32-vc8-debug:audiodev.obj
 0003:00032084       ??_C@_07LBFHFBAF@vol?9out?$AA@ 0054b084     pjmedia-audiodev-i386-win32-vc8-debug:audiodev.obj
 0003:00032090       ??_C@_0BG@IBEHJHAD@Output?5volume?5setting?$AA@ 0054b090     pjmedia-audiodev-i386-win32-vc8-debug:audiodev.obj
 0003:000320ac       ??_C@_08BPNDLGG@meter?9in?$AA@ 0054b0ac     pjmedia-audiodev-i386-win32-vc8-debug:audiodev.obj
 0003:000320b8       ??_C@_0M@NCGIGNPG@Input?5meter?$AA@ 0054b0b8     pjmedia-audiodev-i386-win32-vc8-debug:audiodev.obj
 0003:000320c8       ??_C@_09NKJLJGOJ@meter?9out?$AA@ 0054b0c8     pjmedia-audiodev-i386-win32-vc8-debug:audiodev.obj
 0003:000320d4       ??_C@_0N@GBEOEOEP@Output?5meter?$AA@ 0054b0d4     pjmedia-audiodev-i386-win32-vc8-debug:audiodev.obj
 0003:000320e4       ??_C@_08FPHJDLBG@route?9in?$AA@ 0054b0e4     pjmedia-audiodev-i386-win32-vc8-debug:audiodev.obj
 0003:000320f0       ??_C@_0O@JDPFDDM@Input?5routing?$AA@ 0054b0f0     pjmedia-audiodev-i386-win32-vc8-debug:audiodev.obj
 0003:00032100       ??_C@_09IKMAGDNF@route?9out?$AA@ 0054b100     pjmedia-audiodev-i386-win32-vc8-debug:audiodev.obj
 0003:0003210c       ??_C@_0P@JOFPIEJJ@Output?5routing?$AA@ 0054b10c     pjmedia-audiodev-i386-win32-vc8-debug:audiodev.obj
 0003:00032120       ??_C@_03FNONIBCK@aec?$AA@  0054b120     pjmedia-audiodev-i386-win32-vc8-debug:audiodev.obj
 0003:00032124       ??_C@_0BM@HPDLGLFJ@Accoustic?5echo?5cancellation?$AA@ 0054b124     pjmedia-audiodev-i386-win32-vc8-debug:audiodev.obj
 0003:00032148       ??_C@_08MKAPJCJE@aec?9tail?$AA@ 0054b148     pjmedia-audiodev-i386-win32-vc8-debug:audiodev.obj
 0003:00032154       ??_C@_0BM@PBLLADJD@Tail?5length?5setting?5for?5AEC?$AA@ 0054b154     pjmedia-audiodev-i386-win32-vc8-debug:audiodev.obj
 0003:00032178       ??_C@_03NIGLNABH@vad?$AA@  0054b178     pjmedia-audiodev-i386-win32-vc8-debug:audiodev.obj
 0003:0003217c       ??_C@_0BJ@PEELNNPF@Voice?5activity?5detection?$AA@ 0054b17c     pjmedia-audiodev-i386-win32-vc8-debug:audiodev.obj
 0003:0003219c       ??_C@_03JPNNGDEE@cng?$AA@  0054b19c     pjmedia-audiodev-i386-win32-vc8-debug:audiodev.obj
 0003:000321a0       ??_C@_0BJ@MNDOFJGN@Comfort?5noise?5generation?$AA@ 0054b1a0     pjmedia-audiodev-i386-win32-vc8-debug:audiodev.obj
 0003:000321c0       ??_C@_03NOPFEPFL@plg?$AA@  0054b1c0     pjmedia-audiodev-i386-win32-vc8-debug:audiodev.obj
 0003:000321c4       ??_C@_0BI@OMEMKBHH@Packet?5loss?5concealment?$AA@ 0054b1c4     pjmedia-audiodev-i386-win32-vc8-debug:audiodev.obj
 0003:000321e0       ??_C@_02HHFHKOHM@?$DP?$DP?$AA@ 0054b1e0     pjmedia-audiodev-i386-win32-vc8-debug:audiodev.obj
 0003:000321e8       ??_C@_0EF@NLCNMHAD@?$CFd?5device?$CIs?$CJ?5cannot?5be?5registere@ 0054b1e8     pjmedia-audiodev-i386-win32-vc8-debug:audiodev.obj
 0003:0003223c       ??_C@_0L@FGHHAHLM@audiodev?4c?$AA@ 0054b23c     pjmedia-audiodev-i386-win32-vc8-debug:audiodev.obj
 0003:00032250       ??_C@_1NC@GPLMELHC@?$AAc?$AA?3?$AA?2?$AAu?$AAs?$AAe?$AAr?$AAs?$AA?2?$AA9?$AA2?$AA0?$AA0?$AA?2?$AAd?$AAe?$AAs?$AAk?$AAt?$AAo?$AAp?$AA?2?$AAw?$AAo?$AAr?$AAk?$AA?2?$AAp?$AA2?$AAp?$AA?2?$AAp@ 0054b250     pjmedia-audiodev-i386-win32-vc8-debug:audiodev.obj
 0003:0003234c       ??_C@_0CF@NNKJIABC@Unable?5to?5refresh?5device?5list?5fo@ 0054b34c     pjmedia-audiodev-i386-win32-vc8-debug:audiodev.obj
 0003:00032378       ??_C@_1DE@BIILPEEH@?$AAa?$AAu?$AAd?$AA_?$AAs?$AAu?$AAb?$AAs?$AAy?$AAs?$AA?4?$AAd?$AAr?$AAv?$AA?$FL?$AAd?$AAr?$AAv?$AA_?$AAi?$AAd?$AAx?$AA?$FN?$AA?4?$AAf?$AA?$AA@ 0054b378     pjmedia-audiodev-i386-win32-vc8-debug:audiodev.obj
 0003:000323b8       ??_C@_1GG@CMJIPMBM@?$AA?$CK?$AAi?$AAd?$AA?$DO?$AA?$DN?$AA0?$AA?5?$AA?$CG?$AA?$CG?$AA?5?$AA?$CK?$AAi?$AAd?$AA?$DM?$AA?$CI?$AAi?$AAn?$AAt?$AA?$CJ?$AAa?$AAu?$AAd?$AA_?$AAs?$AAu?$AAb?$AAs?$AAy?$AAs?$AA?4?$AAd?$AAr@ 0054b3b8     pjmedia-audiodev-i386-win32-vc8-debug:audiodev.obj
 0003:00032438       ??_C@_1EI@NEALAIDF@?$AAi?$AAn?$AAf?$AAo?$AA?5?$AA?$CG?$AA?$CG?$AA?5?$AAi?$AAd?$AA?$CB?$AA?$DN?$AAP?$AAJ?$AAM?$AAE?$AAD?$AAI?$AAA?$AA_?$AAA?$AAU?$AAD?$AA_?$AAI?$AAN?$AAV?$AAA?$AAL?$AAI?$AAD?$AA_@ 0054b438     pjmedia-audiodev-i386-win32-vc8-debug:audiodev.obj
 0003:00032490       ??_C@_1BM@DPBJELLN@?$AAa?$AAu?$AAd?$AA_?$AAs?$AAu?$AAb?$AAs?$AAy?$AAs?$AA?4?$AAp?$AAf?$AA?$AA@ 0054b490     pjmedia-audiodev-i386-win32-vc8-debug:audiodev.obj
 0003:000324b4       ??_C@_1DG@KGHCCJGJ@?$AAd?$AAr?$AAv?$AA_?$AAn?$AAa?$AAm?$AAe?$AA?5?$AA?$CG?$AA?$CG?$AA?5?$AAd?$AAe?$AAv?$AA_?$AAn?$AAa?$AAm?$AAe?$AA?5?$AA?$CG?$AA?$CG?$AA?5?$AAi?$AAd?$AA?$AA@ 0054b4b4     pjmedia-audiodev-i386-win32-vc8-debug:audiodev.obj
 0003:000324f8       ??_C@_1EK@DJOOKBNF@?$AAp?$AAa?$AAr?$AAa?$AAm?$AA?5?$AA?$CG?$AA?$CG?$AA?5?$AAi?$AAd?$AA?$CB?$AA?$DN?$AAP?$AAJ?$AAM?$AAE?$AAD?$AAI?$AAA?$AA_?$AAA?$AAU?$AAD?$AA_?$AAI?$AAN?$AAV?$AAA?$AAL?$AAI?$AAD@ 0054b4f8     pjmedia-audiodev-i386-win32-vc8-debug:audiodev.obj
 0003:00032550       ??_C@_1DM@JABAMPOD@?$AAp?$AAr?$AAm?$AA?5?$AA?$CG?$AA?$CG?$AA?5?$AAp?$AAr?$AAm?$AA?9?$AA?$DO?$AAd?$AAi?$AAr?$AA?5?$AA?$CG?$AA?$CG?$AA?5?$AAp?$AA_?$AAa?$AAu?$AAd?$AA_?$AAs?$AAt?$AAr?$AAm?$AA?$AA@ 0054b550     pjmedia-audiodev-i386-win32-vc8-debug:audiodev.obj
 0003:00032598       ??_C@_1NE@LCIHHDJA@?$AAp?$AAr?$AAm?$AA?9?$AA?$DO?$AAd?$AAi?$AAr?$AA?$DN?$AA?$DN?$AAP?$AAJ?$AAM?$AAE?$AAD?$AAI?$AAA?$AA_?$AAD?$AAI?$AAR?$AA_?$AAC?$AAA?$AAP?$AAT?$AAU?$AAR?$AAE?$AA?5?$AA?$HM?$AA?$HM@ 0054b598     pjmedia-audiodev-i386-win32-vc8-debug:audiodev.obj
 0003:00032698       ??_C@_1CC@LOOLMMAJ@?$AAf?$AA?5?$AA?$CB?$AA?$DN?$AA?5?$AA?$CI?$AA?$CI?$AAv?$AAo?$AAi?$AAd?$AA?5?$AA?$CK?$AA?$CJ?$AA0?$AA?$CJ?$AA?$AA@ 0054b698     pjmedia-audiodev-i386-win32-vc8-debug:audiodev.obj
 0003:000326c0       ??_C@_1IC@DBCNJHMM@?$AA?$CI?$AAp?$AAa?$AAr?$AAa?$AAm?$AA?4?$AAd?$AAi?$AAr?$AA?5?$AA?$CB?$AA?$DN?$AA?5?$AAP?$AAJ?$AAM?$AAE?$AAD?$AAI?$AAA?$AA_?$AAD?$AAI?$AAR?$AA_?$AAC?$AAA?$AAP?$AAT?$AAU?$AAR@ 0054b6c0     pjmedia-audiodev-i386-win32-vc8-debug:audiodev.obj
 0003:0003275c       ??_C@_1BM@GLEMCIF@?$AAs?$AAt?$AAr?$AAm?$AA?5?$AA?$CG?$AA?$CG?$AA?5?$AAp?$AAa?$AAr?$AAa?$AAm?$AA?$AA@ 0054b75c     pjmedia-audiodev-i386-win32-vc8-debug:audiodev.obj
 0003:000327f4       ??_C@_0DC@MHBBCDGM@Unspecified?5audio?5device?5error?5?$CI@ 0054b7f4     pjmedia-audiodev-i386-win32-vc8-debug:errno.obj
 0003:00032830       ??_C@_0DG@FEDKLOFB@Unknown?5error?5from?5audio?5driver?5@ 0054b830     pjmedia-audiodev-i386-win32-vc8-debug:errno.obj
 0003:00032870       ??_C@_0DE@DOHCBKFK@Audio?5subsystem?5not?5initialized?5@ 0054b870     pjmedia-audiodev-i386-win32-vc8-debug:errno.obj
 0003:000328b0       ??_C@_0CL@NCBJPCNF@Invalid?5audio?5device?5?$CIPJMEDIA_EA@ 0054b8b0     pjmedia-audiodev-i386-win32-vc8-debug:errno.obj
 0003:000328e4       ??_C@_0CM@LOPLLMHO@Found?5no?5audio?5devices?5?$CIPJMEDIA_@ 0054b8e4     pjmedia-audiodev-i386-win32-vc8-debug:errno.obj
 0003:00032918       ??_C@_0DM@DPDKGMIE@Unable?5to?5find?5default?5audio?5dev@ 0054b918     pjmedia-audiodev-i386-win32-vc8-debug:errno.obj
 0003:00032960       ??_C@_0CP@JIPJOIMB@Audio?5device?5not?5ready?5?$CIPJMEDIA_@ 0054b960     pjmedia-audiodev-i386-win32-vc8-debug:errno.obj
 0003:00032998       ??_C@_0DO@NMIGLFFA@Invalid?5or?5unsupported?5audio?5cap@ 0054b998     pjmedia-audiodev-i386-win32-vc8-debug:errno.obj
 0003:000329e8       ??_C@_0ED@PLJALPOA@Invalid?5or?5unsupported?5audio?5dev@ 0054b9e8     pjmedia-audiodev-i386-win32-vc8-debug:errno.obj
 0003:00032a38       ??_C@_0DM@JKDJGBNG@Bad?5or?5invalid?5audio?5device?5form@ 0054ba38     pjmedia-audiodev-i386-win32-vc8-debug:errno.obj
 0003:00032a80       ??_C@_0DN@BLAJILEA@Invalid?5audio?5device?5sample?5form@ 0054ba80     pjmedia-audiodev-i386-win32-vc8-debug:errno.obj
 0003:00032acc       ??_C@_0DE@LJJGJIEF@Bad?5audio?5latency?5setting?5?$CIPJMED@ 0054bacc     pjmedia-audiodev-i386-win32-vc8-debug:errno.obj
 0003:00032b0c       ??_C@_0BJ@GMHLEOAL@MMSYSTEM?5native?5error?5?$CFd?$AA@ 0054bb0c     pjmedia-audiodev-i386-win32-vc8-debug:errno.obj
 0003:00032b2c       ??_C@_0CC@MFOJNIAN@Unknown?5pjmedia?9audiodev?5error?5?$CF@ 0054bb2c     pjmedia-audiodev-i386-win32-vc8-debug:errno.obj
 0003:00032b54       ??_C@_09OFDCJLJM@WMME?5base?$AA@ 0054bb54     pjmedia-audiodev-i386-win32-vc8-debug:wmme_dev.obj
 0003:00032b60       ??_C@_0M@KBHHDDLP@Wave?5mapper?$AA@ 0054bb60     pjmedia-audiodev-i386-win32-vc8-debug:wmme_dev.obj
 0003:00032b70       ??_C@_04CPNMDOAK@WMME?$AA@ 0054bb70     pjmedia-audiodev-i386-win32-vc8-debug:wmme_dev.obj
 0003:00032b78       ??_C@_0BB@EOKKHGLD@WMME?5initialized?$AA@ 0054bb78     pjmedia-audiodev-i386-win32-vc8-debug:wmme_dev.obj
 0003:00032b8c       ??_C@_0L@HHCCMOGO@wmme_dev?4c?$AA@ 0054bb8c     pjmedia-audiodev-i386-win32-vc8-debug:wmme_dev.obj
 0003:00032b9c       ??_C@_0BM@OMJMEAMB@WMME?5found?5no?5sound?5devices?$AA@ 0054bb9c     pjmedia-audiodev-i386-win32-vc8-debug:wmme_dev.obj
 0003:00032bc0       ??_C@_0BH@GEMAAOCL@WMME?5found?5?$CFd?5devices?3?$AA@ 0054bbc0     pjmedia-audiodev-i386-win32-vc8-debug:wmme_dev.obj
 0003:00032bdc       ??_C@_0CA@NLJGEGOG@?5dev_id?5?$CFd?3?5?$CFs?5?5?$CIin?$DN?$CFd?0?5out?$DN?$CFd?$CJ?$AA@ 0054bbdc     pjmedia-audiodev-i386-win32-vc8-debug:wmme_dev.obj
 0003:00032c08       ??_C@_1NC@DNFAKJLF@?$AAc?$AA?3?$AA?2?$AAu?$AAs?$AAe?$AAr?$AAs?$AA?2?$AA9?$AA2?$AA0?$AA0?$AA?2?$AAd?$AAe?$AAs?$AAk?$AAt?$AAo?$AAp?$AA?2?$AAw?$AAo?$AAr?$AAk?$AA?2?$AAp?$AA2?$AAp?$AA?2?$AAp@ 0054bc08     pjmedia-audiodev-i386-win32-vc8-debug:wmme_dev.obj
 0003:00032d04       ??_C@_1CM@DCIMFEME@?$AAi?$AAn?$AAd?$AAe?$AAx?$AA?5?$AA?$DM?$AA?5?$AAw?$AAf?$AA?9?$AA?$DO?$AAd?$AAe?$AAv?$AA_?$AAc?$AAo?$AAu?$AAn?$AAt?$AA?$AA@ 0054bd04     pjmedia-audiodev-i386-win32-vc8-debug:wmme_dev.obj
 0003:00032d38       ??_C@_03CCLNCNJA@PCM?$AA@  0054bd38     pjmedia-audiodev-i386-win32-vc8-debug:wmme_dev.obj
 0003:00032d40       ??_C@_1EE@KABDJHEG@?$AAp?$AAr?$AAm?$AA?9?$AA?$DO?$AAp?$AAl?$AAa?$AAy?$AA_?$AAi?$AAd?$AA?5?$AA?$DM?$AA?5?$AA?$CI?$AAi?$AAn?$AAt?$AA?$CJ?$AAw?$AAf?$AA?9?$AA?$DO?$AAd?$AAe?$AAv?$AA_?$AAc?$AAo?$AAu?$AAn@ 0054bd40     pjmedia-audiodev-i386-win32-vc8-debug:wmme_dev.obj
 0003:00032d98       ??_C@_0HB@MKIBCFPJ@?5WaveAPI?5Sound?5player?5?$CC?$CFs?$CC?5initi@ 0054bd98     pjmedia-audiodev-i386-win32-vc8-debug:wmme_dev.obj
 0003:00032e20       ??_C@_1EC@CICBGNKJ@?$AAp?$AAr?$AAm?$AA?9?$AA?$DO?$AAr?$AAe?$AAc?$AA_?$AAi?$AAd?$AA?5?$AA?$DM?$AA?5?$AA?$CI?$AAi?$AAn?$AAt?$AA?$CJ?$AAw?$AAf?$AA?9?$AA?$DO?$AAd?$AAe?$AAv?$AA_?$AAc?$AAo?$AAu?$AAn?$AAt@ 0054be20     pjmedia-audiodev-i386-win32-vc8-debug:wmme_dev.obj
 0003:00032e70       ??_C@_0HD@PIICIPL@?5WaveAPI?5Sound?5recorder?5?$CC?$CFs?$CC?5ini@ 0054be70     pjmedia-audiodev-i386-win32-vc8-debug:wmme_dev.obj
 0003:00032efc       ??_C@_0BJ@JGIOJGMH@Frame?5type?5not?5supported?$AA@ 0054befc     pjmedia-audiodev-i386-win32-vc8-debug:wmme_dev.obj
 0003:00032f1c       ??_C@_1DI@LANCDOGM@?$AA?$CB?$AA?$CC?$AAF?$AAr?$AAa?$AAm?$AAe?$AA?5?$AAt?$AAy?$AAp?$AAe?$AA?5?$AAn?$AAo?$AAt?$AA?5?$AAs?$AAu?$AAp?$AAp?$AAo?$AAr?$AAt?$AAe?$AAd?$AA?$CC?$AA?$AA@ 0054bf1c     pjmedia-audiodev-i386-win32-vc8-debug:wmme_dev.obj
 0003:00032f60       ??_C@_0BI@BEJPJEBJ@WMME?3?5thread?5stopping?4?4?$AA@ 0054bf60     pjmedia-audiodev-i386-win32-vc8-debug:wmme_dev.obj
 0003:00032f7c       ??_C@_08MOOOBPLB@wmme?9dev?$AA@ 0054bf7c     pjmedia-audiodev-i386-win32-vc8-debug:wmme_dev.obj
 0003:00032f88       ??_C@_1CI@KPEGEECM@?$AAp?$AAo?$AAo?$AAl?$AA?5?$AA?$CB?$AA?$DN?$AA?5?$AA?$CI?$AA?$CI?$AAv?$AAo?$AAi?$AAd?$AA?5?$AA?$CK?$AA?$CJ?$AA0?$AA?$CJ?$AA?$AA@ 0054bf88     pjmedia-audiodev-i386-win32-vc8-debug:wmme_dev.obj
 0003:00032fb8       ??_C@_04ODOGNMHC@wmme?$AA@ 0054bfb8     pjmedia-audiodev-i386-win32-vc8-debug:wmme_dev.obj
 0003:00032fc0       ??_C@_1BG@DEEBDKCH@?$AAs?$AAt?$AAr?$AAm?$AA?5?$AA?$CG?$AA?$CG?$AA?5?$AAp?$AAi?$AA?$AA@ 0054bfc0     pjmedia-audiodev-i386-win32-vc8-debug:wmme_dev.obj
 0003:00032fdc       ??_C@_1BE@IKBALJHE@?$AAs?$AA?5?$AA?$CG?$AA?$CG?$AA?5?$AAp?$AAv?$AAa?$AAl?$AA?$AA@ 0054bfdc     pjmedia-audiodev-i386-win32-vc8-debug:wmme_dev.obj
 0003:00032ff4       ??_C@_0BN@MNACKNIN@WMME?5playback?5stream?5started?$AA@ 0054bff4     pjmedia-audiodev-i386-win32-vc8-debug:wmme_dev.obj
 0003:00033018       ??_C@_0BM@NKDLICNM@WMME?5capture?5stream?5started?$AA@ 0054c018     pjmedia-audiodev-i386-win32-vc8-debug:wmme_dev.obj
 0003:0003303c       ??_C@_1CM@EEPLMOAE@?$AAs?$AAt?$AAr?$AAe?$AAa?$AAm?$AA?5?$AA?$CB?$AA?$DN?$AA?5?$AA?$CI?$AA?$CI?$AAv?$AAo?$AAi?$AAd?$AA?5?$AA?$CK?$AA?$CJ?$AA0?$AA?$CJ?$AA?$AA@ 0054c03c     pjmedia-audiodev-i386-win32-vc8-debug:wmme_dev.obj
 0003:00033070       ??_C@_0BN@FMJNHCPG@Stopped?5WMME?5playback?5stream?$AA@ 0054c070     pjmedia-audiodev-i386-win32-vc8-debug:wmme_dev.obj
 0003:00033094       ??_C@_0BM@KCHDOGNE@Stopped?5WMME?5capture?5stream?$AA@ 0054c094     pjmedia-audiodev-i386-win32-vc8-debug:wmme_dev.obj
 0003:000330b8       __load_config_used         0054c0b8     LIBCMTD:loadcfg.obj
 0003:00033b94       ??_R4bad_exception@std@@6B@ 0054cb94     LIBCMTD:frame.obj
 0003:00033bac       ??_R3bad_exception@std@@8  0054cbac     LIBCMTD:frame.obj
 0003:00033bc0       ??_R2bad_exception@std@@8  0054cbc0     LIBCMTD:frame.obj
 0003:00033bcc       ??_R1A@?0A@EA@bad_exception@std@@8 0054cbcc     LIBCMTD:frame.obj
 0003:00033bf0       ??_R1A@?0A@EA@exception@std@@8 0054cbf0     LIBCMTD:frame.obj
 0003:00033c14       ??_R3exception@std@@8      0054cc14     LIBCMTD:frame.obj
 0003:00033c28       ??_R2exception@std@@8      0054cc28     LIBCMTD:frame.obj
 0003:00033c30       ??_R4type_info@@6B@        0054cc30     LIBCMTD:typinfo.obj
 0003:00033c48       ??_R3type_info@@8          0054cc48     LIBCMTD:typinfo.obj
 0003:00033c5c       ??_R2type_info@@8          0054cc5c     LIBCMTD:typinfo.obj
 0003:00033c64       ??_R1A@?0A@EA@type_info@@8 0054cc64     LIBCMTD:typinfo.obj
 0003:00033c88       ??_R4exception@std@@6B@    0054cc88     LIBCMTD:stdexcpt.obj
 0003:00033ca0       ??_R4bad_cast@std@@6B@     0054cca0     LIBCMTD:stdexcpt.obj
 0003:00033cb8       ??_R3bad_cast@std@@8       0054ccb8     LIBCMTD:stdexcpt.obj
 0003:00033ccc       ??_R2bad_cast@std@@8       0054cccc     LIBCMTD:stdexcpt.obj
 0003:00033cd8       ??_R1A@?0A@EA@bad_cast@std@@8 0054ccd8     LIBCMTD:stdexcpt.obj
 0003:00033cfc       ??_R4bad_typeid@std@@6B@   0054ccfc     LIBCMTD:stdexcpt.obj
 0003:00033d14       ??_R3bad_typeid@std@@8     0054cd14     LIBCMTD:stdexcpt.obj
 0003:00033d28       ??_R2bad_typeid@std@@8     0054cd28     LIBCMTD:stdexcpt.obj
 0003:00033d34       ??_R1A@?0A@EA@bad_typeid@std@@8 0054cd34     LIBCMTD:stdexcpt.obj
 0003:00033d58       ??_R4__non_rtti_object@std@@6B@ 0054cd58     LIBCMTD:stdexcpt.obj
 0003:00033d70       ??_R3__non_rtti_object@std@@8 0054cd70     LIBCMTD:stdexcpt.obj
 0003:00033d84       ??_R2__non_rtti_object@std@@8 0054cd84     LIBCMTD:stdexcpt.obj
 0003:00033d94       ??_R1A@?0A@EA@__non_rtti_object@std@@8 0054cd94     LIBCMTD:stdexcpt.obj
 0003:00033db8       ??_R4DNameNode@@6B@        0054cdb8     LIBCMTD:undname.obj
 0003:00033dd0       ??_R3DNameNode@@8          0054cdd0     LIBCMTD:undname.obj
 0003:00033de4       ??_R2DNameNode@@8          0054cde4     LIBCMTD:undname.obj
 0003:00033dec       ??_R1A@?0A@EA@DNameNode@@8 0054cdec     LIBCMTD:undname.obj
 0003:00033e10       ??_R4charNode@@6B@         0054ce10     LIBCMTD:undname.obj
 0003:00033e28       ??_R3charNode@@8           0054ce28     LIBCMTD:undname.obj
 0003:00033e3c       ??_R2charNode@@8           0054ce3c     LIBCMTD:undname.obj
 0003:00033e48       ??_R1A@?0A@EA@charNode@@8  0054ce48     LIBCMTD:undname.obj
 0003:00033e6c       ??_R4pcharNode@@6B@        0054ce6c     LIBCMTD:undname.obj
 0003:00033e84       ??_R3pcharNode@@8          0054ce84     LIBCMTD:undname.obj
 0003:00033e98       ??_R2pcharNode@@8          0054ce98     LIBCMTD:undname.obj
 0003:00033ea4       ??_R1A@?0A@EA@pcharNode@@8 0054cea4     LIBCMTD:undname.obj
 0003:00033ec8       ??_R4pDNameNode@@6B@       0054cec8     LIBCMTD:undname.obj
 0003:00033ee0       ??_R3pDNameNode@@8         0054cee0     LIBCMTD:undname.obj
 0003:00033ef4       ??_R2pDNameNode@@8         0054cef4     LIBCMTD:undname.obj
 0003:00033f00       ??_R1A@?0A@EA@pDNameNode@@8 0054cf00     LIBCMTD:undname.obj
 0003:00033f24       ??_R4DNameStatusNode@@6B@  0054cf24     LIBCMTD:undname.obj
 0003:00033f3c       ??_R3DNameStatusNode@@8    0054cf3c     LIBCMTD:undname.obj
 0003:00033f50       ??_R2DNameStatusNode@@8    0054cf50     LIBCMTD:undname.obj
 0003:00033f5c       ??_R1A@?0A@EA@DNameStatusNode@@8 0054cf5c     LIBCMTD:undname.obj
 0003:00033f80       ??_R4pairNode@@6B@         0054cf80     LIBCMTD:undname.obj
 0003:00033f98       ??_R3pairNode@@8           0054cf98     LIBCMTD:undname.obj
 0003:00033fac       ??_R2pairNode@@8           0054cfac     LIBCMTD:undname.obj
 0003:00033fb8       ??_R1A@?0A@EA@pairNode@@8  0054cfb8     LIBCMTD:undname.obj
 0003:000340f8       ___rtc_iaa                 0054d0f8     LIBCMTD:initsect.obj
 0003:000341fc       ___rtc_izz                 0054d1fc     LIBCMTD:initsect.obj
 0003:00034300       ___rtc_taa                 0054d300     LIBCMTD:initsect.obj
 0003:00034404       ___rtc_tzz                 0054d404     LIBCMTD:initsect.obj
 0003:00034e08       __TI2?AVbad_exception@std@@ 0054de08     LIBCMTD:frame.obj
 0003:00034e1c       __CTA2?AVbad_exception@std@@ 0054de1c     LIBCMTD:frame.obj
 0003:00034e2c       __CT??_R0?AVbad_exception@std@@@8??0bad_exception@std@@QAE@ABV01@@Z12 0054de2c     LIBCMTD:frame.obj
 0003:00034e4c       __CT??_R0?AVexception@std@@@8??0exception@std@@QAE@ABV01@@Z12 0054de4c     LIBCMTD:frame.obj
 0004:00001cf8       ?__LINE__Var@?1??pjmedia_port_get_frame@@9@9 00550cf8     pjmedia-i386-win32-vc8-debug:port.obj
 0004:00001cfc       ?__LINE__Var@?1??pjmedia_port_put_frame@@9@9 00550cfc     pjmedia-i386-win32-vc8-debug:port.obj
 0004:00001d00       ?__LINE__Var@?1??pjmedia_port_destroy@@9@9 00550d00     pjmedia-i386-win32-vc8-debug:port.obj
 0004:00001d04       _pjmedia_add_rtpmap_for_static_pt 00550d04     pjmedia-i386-win32-vc8-debug:endpoint.obj
 0004:00001d08       _pjmedia_add_bandwidth_tias_in_sdp 00550d08     pjmedia-i386-win32-vc8-debug:endpoint.obj
 0004:00001d10       ?__LINE__Var@?1??pjmedia_endpt_create@@9@9 00550d10     pjmedia-i386-win32-vc8-debug:endpoint.obj
 0004:00001d14       ?__LINE__Var@?1??pjmedia_endpt_set_flag@@9@9 00550d14     pjmedia-i386-win32-vc8-debug:endpoint.obj
 0004:00001d18       ?__LINE__Var@?1??pjmedia_endpt_get_flag@@9@9 00550d18     pjmedia-i386-win32-vc8-debug:endpoint.obj
 0004:00001d1c       ?__LINE__Var@?1??pjmedia_endpt_get_ioqueue@@9@9 00550d1c     pjmedia-i386-win32-vc8-debug:endpoint.obj
 0004:00001d20       ?__LINE__Var@?1??pjmedia_endpt_get_thread_count@@9@9 00550d20     pjmedia-i386-win32-vc8-debug:endpoint.obj
 0004:00001d24       ?__LINE__Var@?1??pjmedia_endpt_get_thread@@9@9 00550d24     pjmedia-i386-win32-vc8-debug:endpoint.obj
 0004:00001d28       ?__LINE__Var@?1??pjmedia_endpt_stop_threads@@9@9 00550d28     pjmedia-i386-win32-vc8-debug:endpoint.obj
 0004:00001d2c       ?__LINE__Var@?1??pjmedia_endpt_create_pool@@9@9 00550d2c     pjmedia-i386-win32-vc8-debug:endpoint.obj
 0004:00001d30       ?__LINE__Var@?1??init_sdp_media@@9@9@01f0ed46 00550d30     pjmedia-i386-win32-vc8-debug:endpoint.obj
 0004:00001d34       ?__LINE__Var@?1??pjmedia_endpt_create_audio_sdp@@9@9 00550d34     pjmedia-i386-win32-vc8-debug:endpoint.obj
 0004:00001d38       ?__LINE__Var@?1??pjmedia_endpt_create_base_sdp@@9@9 00550d38     pjmedia-i386-win32-vc8-debug:endpoint.obj
 0004:00001d3c       ?__LINE__Var@?1??pjmedia_endpt_create_sdp@@9@9 00550d3c     pjmedia-i386-win32-vc8-debug:endpoint.obj
 0004:00001d40       ?__LINE__Var@?1??pjmedia_endpt_atexit@@9@9 00550d40     pjmedia-i386-win32-vc8-debug:endpoint.obj
 0004:00001d44       ?__LINE__Var@?1??play_cb@@9@9@0966e638 00550d44     pjmedia-i386-win32-vc8-debug:sound_port.obj
 0004:00001d48       ?__LINE__Var@?1??start_sound_device@@9@9@0966e638 00550d48     pjmedia-i386-win32-vc8-debug:sound_port.obj
 0004:00001d4c       ?__LINE__Var@?1??pjmedia_snd_port_create2@@9@9 00550d4c     pjmedia-i386-win32-vc8-debug:sound_port.obj
 0004:00001d50       ?__LINE__Var@?1??pjmedia_snd_port_destroy@@9@9 00550d50     pjmedia-i386-win32-vc8-debug:sound_port.obj
 0004:00001d54       ?__LINE__Var@?1??pjmedia_snd_port_get_snd_stream@@9@9 00550d54     pjmedia-i386-win32-vc8-debug:sound_port.obj
 0004:00001d58       ?__LINE__Var@?1??pjmedia_snd_port_set_ec@@9@9 00550d58     pjmedia-i386-win32-vc8-debug:sound_port.obj
 0004:00001d5c       ?__LINE__Var@?1??pjmedia_snd_port_get_ec_tail@@9@9 00550d5c     pjmedia-i386-win32-vc8-debug:sound_port.obj
 0004:00001d60       ?__LINE__Var@?1??pjmedia_snd_port_connect@@9@9 00550d60     pjmedia-i386-win32-vc8-debug:sound_port.obj
 0004:00001d64       ?__LINE__Var@?1??pjmedia_snd_port_get_port@@9@9 00550d64     pjmedia-i386-win32-vc8-debug:sound_port.obj
 0004:00001d68       ?__LINE__Var@?1??pjmedia_snd_port_disconnect@@9@9 00550d68     pjmedia-i386-win32-vc8-debug:sound_port.obj
 0004:00001d6c       ?__LINE__Var@?1??pjmedia_wav_player_port_create@@9@9 00550d6c     pjmedia-i386-win32-vc8-debug:wav_player.obj
 0004:00001d70       ?__LINE__Var@?1??pjmedia_wav_player_get_info@@9@9 00550d70     pjmedia-i386-win32-vc8-debug:wav_player.obj
 0004:00001d74       ?__LINE__Var@?1??pjmedia_wav_player_get_len@@9@9 00550d74     pjmedia-i386-win32-vc8-debug:wav_player.obj
 0004:00001d78       ?__LINE__Var@?1??pjmedia_wav_player_port_set_pos@@9@9 00550d78     pjmedia-i386-win32-vc8-debug:wav_player.obj
 0004:00001d7c       ?__LINE__Var@?1??pjmedia_wav_player_port_get_pos@@9@9 00550d7c     pjmedia-i386-win32-vc8-debug:wav_player.obj
 0004:00001d80       ?__LINE__Var@?1??pjmedia_wav_player_set_eof_cb@@9@9 00550d80     pjmedia-i386-win32-vc8-debug:wav_player.obj
 0004:00001d84       ?__LINE__Var@?1??file_get_frame@@9@9@0578b945 00550d84     pjmedia-i386-win32-vc8-debug:wav_player.obj
 0004:00001d88       ?__LINE__Var@?1??file_on_destroy@@9@9@0578b945 00550d88     pjmedia-i386-win32-vc8-debug:wav_player.obj
 0004:00001d8c       ?__LINE__Var@?1??pjmedia_format_get_audio_format_detail@@9@9 00550d8c     pjmedia-i386-win32-vc8-debug:format.obj
 0004:00001d90       ?__LINE__Var@?1??pjmedia_codec_param_clone@@9@9 00550d90     pjmedia-i386-win32-vc8-debug:codec.obj
 0004:00001d94       ?__LINE__Var@?1??pjmedia_codec_mgr_init@@9@9 00550d94     pjmedia-i386-win32-vc8-debug:codec.obj
 0004:00001d98       ?__LINE__Var@?1??pjmedia_codec_mgr_destroy@@9@9 00550d98     pjmedia-i386-win32-vc8-debug:codec.obj
 0004:00001d9c       ?__LINE__Var@?1??pjmedia_codec_mgr_register_factory@@9@9 00550d9c     pjmedia-i386-win32-vc8-debug:codec.obj
 0004:00001da0       ?__LINE__Var@?1??pjmedia_codec_mgr_unregister_factory@@9@9 00550da0     pjmedia-i386-win32-vc8-debug:codec.obj
 0004:00001da4       ?__LINE__Var@?1??pjmedia_codec_mgr_enum_codecs@@9@9 00550da4     pjmedia-i386-win32-vc8-debug:codec.obj
 0004:00001da8       ?__LINE__Var@?1??pjmedia_codec_mgr_get_codec_info@@9@9 00550da8     pjmedia-i386-win32-vc8-debug:codec.obj
 0004:00001dac       ?__LINE__Var@?1??pjmedia_codec_info_to_id@@9@9 00550dac     pjmedia-i386-win32-vc8-debug:codec.obj
 0004:00001db0       ?__LINE__Var@?1??pjmedia_codec_mgr_find_codecs_by_id@@9@9 00550db0     pjmedia-i386-win32-vc8-debug:codec.obj
 0004:00001db4       ?__LINE__Var@?1??pjmedia_codec_mgr_set_codec_priority@@9@9 00550db4     pjmedia-i386-win32-vc8-debug:codec.obj
 0004:00001db8       ?__LINE__Var@?1??pjmedia_codec_mgr_alloc_codec@@9@9 00550db8     pjmedia-i386-win32-vc8-debug:codec.obj
 0004:00001dbc       ?__LINE__Var@?1??pjmedia_codec_mgr_get_default_param@@9@9 00550dbc     pjmedia-i386-win32-vc8-debug:codec.obj
 0004:00001dc0       ?__LINE__Var@?1??pjmedia_codec_mgr_set_default_param@@9@9 00550dc0     pjmedia-i386-win32-vc8-debug:codec.obj
 0004:00001dc4       ?__LINE__Var@?1??pjmedia_codec_mgr_dealloc_codec@@9@9 00550dc4     pjmedia-i386-win32-vc8-debug:codec.obj
 0004:00001dc8       ?__LINE__Var@?1??pjmedia_sdp_attr_create@@9@9 00550dc8     pjmedia-i386-win32-vc8-debug:sdp.obj
 0004:00001dcc       ?__LINE__Var@?1??pjmedia_sdp_attr_clone@@9@9 00550dcc     pjmedia-i386-win32-vc8-debug:sdp.obj
 0004:00001dd0       ?__LINE__Var@?1??pjmedia_sdp_attr_add@@9@9 00550dd0     pjmedia-i386-win32-vc8-debug:sdp.obj
 0004:00001dd4       ?__LINE__Var@?1??pjmedia_sdp_attr_remove_all@@9@9 00550dd4     pjmedia-i386-win32-vc8-debug:sdp.obj
 0004:00001dd8       ?__LINE__Var@?1??pjmedia_sdp_attr_remove@@9@9 00550dd8     pjmedia-i386-win32-vc8-debug:sdp.obj
 0004:00001ddc       ?__LINE__Var@?1??pjmedia_sdp_attr_get_rtpmap@@9@9 00550ddc     pjmedia-i386-win32-vc8-debug:sdp.obj
 0004:00001de0       ?__LINE__Var@?1??pjmedia_sdp_attr_get_fmtp@@9@9 00550de0     pjmedia-i386-win32-vc8-debug:sdp.obj
 0004:00001de4       ?__LINE__Var@?1??pjmedia_sdp_attr_get_rtcp@@9@9 00550de4     pjmedia-i386-win32-vc8-debug:sdp.obj
 0004:00001de8       ?__LINE__Var@?1??pjmedia_sdp_attr_create_rtcp@@9@9 00550de8     pjmedia-i386-win32-vc8-debug:sdp.obj
 0004:00001dec       ?__LINE__Var@?1??pjmedia_sdp_attr_to_rtpmap@@9@9 00550dec     pjmedia-i386-win32-vc8-debug:sdp.obj
 0004:00001df0       ?__LINE__Var@?1??pjmedia_sdp_rtpmap_to_attr@@9@9 00550df0     pjmedia-i386-win32-vc8-debug:sdp.obj
 0004:00001df4       ?__LINE__Var@?1??pjmedia_sdp_media_clone@@9@9 00550df4     pjmedia-i386-win32-vc8-debug:sdp.obj
 0004:00001df8       ?__LINE__Var@?1??pjmedia_sdp_media_find_attr@@9@9 00550df8     pjmedia-i386-win32-vc8-debug:sdp.obj
 0004:00001dfc       ?__LINE__Var@?1??pjmedia_sdp_media_find_attr2@@9@9 00550dfc     pjmedia-i386-win32-vc8-debug:sdp.obj
 0004:00001e00       ?__LINE__Var@?1??pjmedia_sdp_parse@@9@9 00550e00     pjmedia-i386-win32-vc8-debug:sdp.obj
 0004:00001e04       ?__LINE__Var@?1??pjmedia_sdp_session_clone@@9@9 00550e04     pjmedia-i386-win32-vc8-debug:sdp.obj
 0004:00001e08       ?__LINE__Var@?1??pjmedia_sdp_media_deactivate@@9@9 00550e08     pjmedia-i386-win32-vc8-debug:sdp.obj
 0004:00001e0c       ?__LINE__Var@?1??pjmedia_sdp_media_clone_deactivate@@9@9 00550e0c     pjmedia-i386-win32-vc8-debug:sdp.obj
 0004:00001e10       ?__LINE__Var@?1??pjmedia_clock_src_init@@9@9 00550e10     pjmedia-i386-win32-vc8-debug:clock_thread.obj
 0004:00001e14       ?__LINE__Var@?1??pjmedia_clock_src_update@@9@9 00550e14     pjmedia-i386-win32-vc8-debug:clock_thread.obj
 0004:00001e18       ?__LINE__Var@?1??pjmedia_clock_src_get_current_timestamp@@9@9 00550e18     pjmedia-i386-win32-vc8-debug:clock_thread.obj
 0004:00001e1c       ?__LINE__Var@?1??pjmedia_clock_create2@@9@9 00550e1c     pjmedia-i386-win32-vc8-debug:clock_thread.obj
 0004:00001e20       ?__LINE__Var@?1??pjmedia_clock_start@@9@9 00550e20     pjmedia-i386-win32-vc8-debug:clock_thread.obj
 0004:00001e24       ?__LINE__Var@?1??pjmedia_clock_stop@@9@9 00550e24     pjmedia-i386-win32-vc8-debug:clock_thread.obj
 0004:00001e28       ?__LINE__Var@?1??pjmedia_clock_wait@@9@9 00550e28     pjmedia-i386-win32-vc8-debug:clock_thread.obj
 0004:00001e2c       ?__LINE__Var@?1??pjmedia_clock_destroy@@9@9 00550e2c     pjmedia-i386-win32-vc8-debug:clock_thread.obj
 0004:00001e74       ?__LINE__Var@?1??pjmedia_echo_create2@@9@9 00550e74     pjmedia-i386-win32-vc8-debug:echo_common.obj
 0004:00001f9c       ?__LINE__Var@?1??pjmedia_srtp_setting_default@@9@9 00550f9c     pjmedia-i386-win32-vc8-debug:transport_srtp.obj
 0004:00001fa0       ?__LINE__Var@?1??pjmedia_transport_srtp_create@@9@9 00550fa0     pjmedia-i386-win32-vc8-debug:transport_srtp.obj
 0004:00001fa4       ?__LINE__Var@?1??pjmedia_transport_srtp_start@@9@9 00550fa4     pjmedia-i386-win32-vc8-debug:transport_srtp.obj
 0004:00001fa8       ?__LINE__Var@?1??pjmedia_transport_srtp_stop@@9@9 00550fa8     pjmedia-i386-win32-vc8-debug:transport_srtp.obj
 0004:00001fac       ?__LINE__Var@?1??pjmedia_transport_srtp_get_member@@9@9 00550fac     pjmedia-i386-win32-vc8-debug:transport_srtp.obj
 0004:00001fb0       ?__LINE__Var@?1??transport_get_info@@9@9@879b0916 00550fb0     pjmedia-i386-win32-vc8-debug:transport_srtp.obj
 0004:00001fb4       ?__LINE__Var@?1??transport_attach@@9@9@879b0916 00550fb4     pjmedia-i386-win32-vc8-debug:transport_srtp.obj
 0004:00001fb8       ?__LINE__Var@?1??transport_detach@@9@9@879b0916 00550fb8     pjmedia-i386-win32-vc8-debug:transport_srtp.obj
 0004:00001fbc       ?__LINE__Var@?1??transport_simulate_lost@@9@9@879b0916 00550fbc     pjmedia-i386-win32-vc8-debug:transport_srtp.obj
 0004:00001fc0       ?__LINE__Var@?1??transport_destroy@@9@9@879b0916 00550fc0     pjmedia-i386-win32-vc8-debug:transport_srtp.obj
 0004:00001fc4       ?__LINE__Var@?1??srtp_rtp_cb@@9@9@879b0916 00550fc4     pjmedia-i386-win32-vc8-debug:transport_srtp.obj
 0004:00001fc8       ?__LINE__Var@?1??srtp_rtcp_cb@@9@9@879b0916 00550fc8     pjmedia-i386-win32-vc8-debug:transport_srtp.obj
 0004:00001fcc       ?__LINE__Var@?1??generate_crypto_attr_value@@9@9@879b0916 00550fcc     pjmedia-i386-win32-vc8-debug:transport_srtp.obj
 0004:00001fd0       ?__LINE__Var@?1??transport_media_create@@9@9@879b0916 00550fd0     pjmedia-i386-win32-vc8-debug:transport_srtp.obj
 0004:00001fd4       ?__LINE__Var@?1??transport_encode_sdp@@9@9@879b0916 00550fd4     pjmedia-i386-win32-vc8-debug:transport_srtp.obj
 0004:00001fd8       ?__LINE__Var@?1??transport_media_start@@9@9@879b0916 00550fd8     pjmedia-i386-win32-vc8-debug:transport_srtp.obj
 0004:00001fdc       ?__LINE__Var@?1??transport_media_stop@@9@9@879b0916 00550fdc     pjmedia-i386-win32-vc8-debug:transport_srtp.obj
 0004:00001fe0       ?__LINE__Var@?1??pjmedia_transport_srtp_decrypt_pkt@@9@9 00550fe0     pjmedia-i386-win32-vc8-debug:transport_srtp.obj
 0004:00001fe4       ?__LINE__Var@?1??echo_supp_create@@9@9 00550fe4     pjmedia-i386-win32-vc8-debug:echo_suppress.obj
 0004:00001fe8       ?__LINE__Var@?1??echo_supp_update@@9@9@a4bf1e87 00550fe8     pjmedia-i386-win32-vc8-debug:echo_suppress.obj
 0004:00001fec       ?__LINE__Var@?1??echo_supp_cancel_echo@@9@9 00550fec     pjmedia-i386-win32-vc8-debug:echo_suppress.obj
 0004:00001ff0       ?__LINE__Var@?1??speex_aec_create@@9@9 00550ff0     pjmedia-i386-win32-vc8-debug:echo_speex.obj
 0004:00001ff4       ?__LINE__Var@?1??speex_aec_destroy@@9@9 00550ff4     pjmedia-i386-win32-vc8-debug:echo_speex.obj
 0004:00001ff8       ?__LINE__Var@?1??speex_aec_cancel_echo@@9@9 00550ff8     pjmedia-i386-win32-vc8-debug:echo_speex.obj
 0004:00001ffc       ?__LINE__Var@?1??speex_aec_playback@@9@9 00550ffc     pjmedia-i386-win32-vc8-debug:echo_speex.obj
 0004:00002000       ?__LINE__Var@?1??speex_aec_capture@@9@9 00551000     pjmedia-i386-win32-vc8-debug:echo_speex.obj
 0004:00002004       ?__LINE__Var@?1??pjmedia_delay_buf_create@@9@9 00551004     pjmedia-i386-win32-vc8-debug:delaybuf.obj
 0004:00002008       ?__LINE__Var@?1??pjmedia_delay_buf_destroy@@9@9 00551008     pjmedia-i386-win32-vc8-debug:delaybuf.obj
 0004:0000200c       ?__LINE__Var@?1??shrink_buffer@@9@9@44cee37d 0055100c     pjmedia-i386-win32-vc8-debug:delaybuf.obj
 0004:00002010       ?__LINE__Var@?1??pjmedia_delay_buf_put@@9@9 00551010     pjmedia-i386-win32-vc8-debug:delaybuf.obj
 0004:00002014       ?__LINE__Var@?1??pjmedia_delay_buf_get@@9@9 00551014     pjmedia-i386-win32-vc8-debug:delaybuf.obj
 0004:00002018       ?__LINE__Var@?1??pjmedia_delay_buf_reset@@9@9 00551018     pjmedia-i386-win32-vc8-debug:delaybuf.obj
 0004:0000201c       ?__LINE__Var@?1??pjmedia_silence_det_create@@9@9 0055101c     pjmedia-i386-win32-vc8-debug:silencedet.obj
 0004:00002020       ?__LINE__Var@?1??pjmedia_silence_det_set_name@@9@9 00551020     pjmedia-i386-win32-vc8-debug:silencedet.obj
 0004:00002024       ?__LINE__Var@?1??pjmedia_silence_det_set_adaptive@@9@9 00551024     pjmedia-i386-win32-vc8-debug:silencedet.obj
 0004:00002028       ?__LINE__Var@?1??pjmedia_silence_det_set_fixed@@9@9 00551028     pjmedia-i386-win32-vc8-debug:silencedet.obj
 0004:0000202c       ?__LINE__Var@?1??pjmedia_silence_det_set_params@@9@9 0055102c     pjmedia-i386-win32-vc8-debug:silencedet.obj
 0004:00002030       ?__LINE__Var@?1??pjmedia_silence_det_disable@@9@9 00551030     pjmedia-i386-win32-vc8-debug:silencedet.obj
 0004:00002034       ?__LINE__Var@?1??pjmedia_silence_det_apply@@9@9 00551034     pjmedia-i386-win32-vc8-debug:silencedet.obj
 0004:00002038       ?__LINE__Var@?1??pjmedia_wsola_create@@9@9 00551038     pjmedia-i386-win32-vc8-debug:wsola.obj
 0004:0000203c       ?__LINE__Var@?1??pjmedia_wsola_set_max_expand@@9@9 0055103c     pjmedia-i386-win32-vc8-debug:wsola.obj
 0004:00002040       ?__LINE__Var@?1??pjmedia_wsola_reset@@9@9 00551040     pjmedia-i386-win32-vc8-debug:wsola.obj
 0004:00002044       ?__LINE__Var@?1??expand@@9@9@f109c7ad 00551044     pjmedia-i386-win32-vc8-debug:wsola.obj
 0004:00002048       ?__LINE__Var@?1??pjmedia_wsola_discard@@9@9 00551048     pjmedia-i386-win32-vc8-debug:wsola.obj
 0004:0000204c       _pj_optind                 0055104c     pjlib-util-i386-win32-vc8-debug:getopt.obj
 0004:00002050       _pj_optopt                 00551050     pjlib-util-i386-win32-vc8-debug:getopt.obj
 0004:00002058       ?__LINE__Var@?1??pj_cis_add_range@@9@9 00551058     pjlib-util-i386-win32-vc8-debug:scanner.obj
 0004:0000205c       ?__LINE__Var@?1??pj_scan_init@@9@9 0055105c     pjlib-util-i386-win32-vc8-debug:scanner.obj
 0004:00002060       ?__LINE__Var@?1??pj_scan_fini@@9@9 00551060     pjlib-util-i386-win32-vc8-debug:scanner.obj
 0004:00002064       ?__LINE__Var@?1??pj_scan_get@@9@9 00551064     pjlib-util-i386-win32-vc8-debug:scanner.obj
 0004:00002068       ?__LINE__Var@?1??pj_scan_get_unescape@@9@9 00551068     pjlib-util-i386-win32-vc8-debug:scanner.obj
 0004:0000206c       ?__LINE__Var@?1??pj_scan_get_quotes@@9@9 0055106c     pjlib-util-i386-win32-vc8-debug:scanner.obj
 0004:00002070       ?__LINE__Var@?1??pj_base64_encode@@9@9 00551070     pjlib-util-i386-win32-vc8-debug:base64.obj
 0004:00002074       ?__LINE__Var@?1??pj_base64_decode@@9@9 00551074     pjlib-util-i386-win32-vc8-debug:base64.obj
 0004:0000207c       ?__LINE__Var@?1??pj_init@@9@9 0055107c     pjlib-i386-win32-vc8-debug:os_core_win32.obj
 0004:00002080       ?__LINE__Var@?1??pj_shutdown@@9@9 00551080     pjlib-i386-win32-vc8-debug:os_core_win32.obj
 0004:00002084       ?__LINE__Var@?1??pj_getpid@@9@9 00551084     pjlib-i386-win32-vc8-debug:os_core_win32.obj
 0004:00002088       ?__LINE__Var@?1??pj_thread_set_prio@@9@9 00551088     pjlib-i386-win32-vc8-debug:os_core_win32.obj
 0004:0000208c       ?__LINE__Var@?1??pj_thread_get_os_handle@@9@9 0055108c     pjlib-i386-win32-vc8-debug:os_core_win32.obj
 0004:00002090       ?__LINE__Var@?1??pj_thread_register@@9@9 00551090     pjlib-i386-win32-vc8-debug:os_core_win32.obj
 0004:00002094       ?__LINE__Var@?1??thread_main@@9@9@2d662c1e 00551094     pjlib-i386-win32-vc8-debug:os_core_win32.obj
 0004:00002098       ?__LINE__Var@?1??pj_thread_create@@9@9 00551098     pjlib-i386-win32-vc8-debug:os_core_win32.obj
 0004:0000209c       ?__LINE__Var@?1??pj_thread_get_name@@9@9 0055109c     pjlib-i386-win32-vc8-debug:os_core_win32.obj
 0004:000020a0       ?__LINE__Var@?1??pj_thread_resume@@9@9 005510a0     pjlib-i386-win32-vc8-debug:os_core_win32.obj
 0004:000020a4       ?__LINE__Var@?1??pj_thread_this@@9@9 005510a4     pjlib-i386-win32-vc8-debug:os_core_win32.obj
 0004:000020a8       ?__LINE__Var@?1??pj_thread_join@@9@9 005510a8     pjlib-i386-win32-vc8-debug:os_core_win32.obj
 0004:000020ac       ?__LINE__Var@?1??pj_thread_destroy@@9@9 005510ac     pjlib-i386-win32-vc8-debug:os_core_win32.obj
 0004:000020b0       ?__LINE__Var@?1??pj_thread_sleep@@9@9 005510b0     pjlib-i386-win32-vc8-debug:os_core_win32.obj
 0004:000020b4       ?__LINE__Var@?1??pj_thread_check_stack@@9@9 005510b4     pjlib-i386-win32-vc8-debug:os_core_win32.obj
 0004:000020b8       ?__LINE__Var@?1??pj_thread_get_stack_info@@9@9 005510b8     pjlib-i386-win32-vc8-debug:os_core_win32.obj
 0004:000020bc       ?__LINE__Var@?1??pj_atomic_destroy@@9@9 005510bc     pjlib-i386-win32-vc8-debug:os_core_win32.obj
 0004:000020c0       ?__LINE__Var@?1??pj_atomic_set@@9@9 005510c0     pjlib-i386-win32-vc8-debug:os_core_win32.obj
 0004:000020c4       ?__LINE__Var@?1??pj_atomic_get@@9@9 005510c4     pjlib-i386-win32-vc8-debug:os_core_win32.obj
 0004:000020c8       ?__LINE__Var@?1??pj_atomic_inc_and_get@@9@9 005510c8     pjlib-i386-win32-vc8-debug:os_core_win32.obj
 0004:000020cc       ?__LINE__Var@?1??pj_atomic_dec_and_get@@9@9 005510cc     pjlib-i386-win32-vc8-debug:os_core_win32.obj
 0004:000020d0       ?__LINE__Var@?1??pj_thread_local_alloc@@9@9 005510d0     pjlib-i386-win32-vc8-debug:os_core_win32.obj
 0004:000020d4       ?__LINE__Var@?1??pj_thread_local_free@@9@9 005510d4     pjlib-i386-win32-vc8-debug:os_core_win32.obj
 0004:000020d8       ?__LINE__Var@?1??init_mutex@@9@9@2d662c1e 005510d8     pjlib-i386-win32-vc8-debug:os_core_win32.obj
 0004:000020dc       ?__LINE__Var@?1??pj_mutex_create@@9@9 005510dc     pjlib-i386-win32-vc8-debug:os_core_win32.obj
 0004:000020e0       ?__LINE__Var@?1??pj_mutex_lock@@9@9 005510e0     pjlib-i386-win32-vc8-debug:os_core_win32.obj
 0004:000020e4       ?__LINE__Var@?1??pj_mutex_unlock@@9@9 005510e4     pjlib-i386-win32-vc8-debug:os_core_win32.obj
 0004:000020e8       ?__LINE__Var@?1??pj_mutex_trylock@@9@9 005510e8     pjlib-i386-win32-vc8-debug:os_core_win32.obj
 0004:000020ec       ?__LINE__Var@?1??pj_mutex_destroy@@9@9 005510ec     pjlib-i386-win32-vc8-debug:os_core_win32.obj
 0004:000020f0       ?__LINE__Var@?1??pj_rwmutex_create@@9@9 005510f0     pjlib-i386-win32-vc8-debug:os_core_win32.obj
 0004:000020f4       ?__LINE__Var@?1??pj_rwmutex_lock_read@@9@9 005510f4     pjlib-i386-win32-vc8-debug:os_core_win32.obj
 0004:000020f8       ?__LINE__Var@?1??pj_rwmutex_lock_write@@9@9 005510f8     pjlib-i386-win32-vc8-debug:os_core_win32.obj
 0004:000020fc       ?__LINE__Var@?1??pj_rwmutex_unlock_read@@9@9 005510fc     pjlib-i386-win32-vc8-debug:os_core_win32.obj
 0004:00002100       ?__LINE__Var@?1??pj_rwmutex_unlock_write@@9@9 00551100     pjlib-i386-win32-vc8-debug:os_core_win32.obj
 0004:00002104       ?__LINE__Var@?1??pj_rwmutex_destroy@@9@9 00551104     pjlib-i386-win32-vc8-debug:os_core_win32.obj
 0004:00002108       ?__LINE__Var@?1??pj_sem_create@@9@9 00551108     pjlib-i386-win32-vc8-debug:os_core_win32.obj
 0004:0000210c       ?__LINE__Var@?1??pj_sem_wait_for@@9@9@2d662c1e 0055110c     pjlib-i386-win32-vc8-debug:os_core_win32.obj
 0004:00002110       ?__LINE__Var@?1??pj_sem_wait@@9@9 00551110     pjlib-i386-win32-vc8-debug:os_core_win32.obj
 0004:00002114       ?__LINE__Var@?1??pj_sem_trywait@@9@9 00551114     pjlib-i386-win32-vc8-debug:os_core_win32.obj
 0004:00002118       ?__LINE__Var@?1??pj_sem_post@@9@9 00551118     pjlib-i386-win32-vc8-debug:os_core_win32.obj
 0004:0000211c       ?__LINE__Var@?1??pj_sem_destroy@@9@9 0055111c     pjlib-i386-win32-vc8-debug:os_core_win32.obj
 0004:00002120       ?__LINE__Var@?1??pj_event_create@@9@9 00551120     pjlib-i386-win32-vc8-debug:os_core_win32.obj
 0004:00002124       ?__LINE__Var@?1??pj_event_wait_for@@9@9@2d662c1e 00551124     pjlib-i386-win32-vc8-debug:os_core_win32.obj
 0004:00002128       ?__LINE__Var@?1??pj_event_wait@@9@9 00551128     pjlib-i386-win32-vc8-debug:os_core_win32.obj
 0004:0000212c       ?__LINE__Var@?1??pj_event_trywait@@9@9 0055112c     pjlib-i386-win32-vc8-debug:os_core_win32.obj
 0004:00002130       ?__LINE__Var@?1??pj_event_set@@9@9 00551130     pjlib-i386-win32-vc8-debug:os_core_win32.obj
 0004:00002134       ?__LINE__Var@?1??pj_event_pulse@@9@9 00551134     pjlib-i386-win32-vc8-debug:os_core_win32.obj
 0004:00002138       ?__LINE__Var@?1??pj_event_reset@@9@9 00551138     pjlib-i386-win32-vc8-debug:os_core_win32.obj
 0004:0000213c       ?__LINE__Var@?1??pj_event_destroy@@9@9 0055113c     pjlib-i386-win32-vc8-debug:os_core_win32.obj
 0004:00002140       ?__LINE__Var@?1??pj_term_set_color@@9@9 00551140     pjlib-i386-win32-vc8-debug:os_core_win32.obj
 0004:00002144       ?__LINE__Var@?1??pj_term_get_color@@9@9 00551144     pjlib-i386-win32-vc8-debug:os_core_win32.obj
 0004:00002148       ?__LINE__Var@?1??pj_register_strerror@@9@9 00551148     pjlib-i386-win32-vc8-debug:errno.obj
 0004:0000214c       ?__LINE__Var@?1??pj_strerror@@9@9 0055114c     pjlib-i386-win32-vc8-debug:errno.obj
 0004:00002150       ?__LINE__Var@?1??pj_pool_create_block@@9@9@81992e55 00551150     pjlib-i386-win32-vc8-debug:pool.obj
 0004:00002154       ?__LINE__Var@?1??pj_pool_allocate_find@@9@9 00551154     pjlib-i386-win32-vc8-debug:pool.obj
 0004:00002158       ?__LINE__Var@?1??pj_pool_init_int@@9@9 00551158     pjlib-i386-win32-vc8-debug:pool.obj
 0004:0000215c       ?__LINE__Var@?1??pj_pool_create_int@@9@9 0055115c     pjlib-i386-win32-vc8-debug:pool.obj
 0004:00002160       ?__LINE__Var@?1??reset_pool@@9@9@81992e55 00551160     pjlib-i386-win32-vc8-debug:pool.obj
 0004:000021b4       ?__LINE__Var@?1??pj_caching_pool_init@@9@9 005511b4     pjlib-i386-win32-vc8-debug:pool_caching.obj
 0004:000021b8       ?__LINE__Var@?1??pj_caching_pool_destroy@@9@9 005511b8     pjlib-i386-win32-vc8-debug:pool_caching.obj
 0004:000021bc       ?__LINE__Var@?1??cpool_create_pool@@9@9@b2678561 005511bc     pjlib-i386-win32-vc8-debug:pool_caching.obj
 0004:000021c0       ?__LINE__Var@?1??cpool_release_pool@@9@9@b2678561 005511c0     pjlib-i386-win32-vc8-debug:pool_caching.obj
 0004:00002248       ?__LINE__Var@?1??pj_log@@9@9 00551248     pjlib-i386-win32-vc8-debug:log.obj
 0004:0000224c       _pj_pool_factory_default_policy 0055124c     pjlib-i386-win32-vc8-debug:pool_policy_malloc.obj
 0004:00002260       ?__LINE__Var@?1??default_block_alloc@@9@9@aff1b542 00551260     pjlib-i386-win32-vc8-debug:pool_policy_malloc.obj
 0004:00002264       ?__LINE__Var@?1??default_block_free@@9@9@aff1b542 00551264     pjlib-i386-win32-vc8-debug:pool_policy_malloc.obj
 0004:00002268       ?__LINE__Var@?1??default_pool_callback@@9@9@aff1b542 00551268     pjlib-i386-win32-vc8-debug:pool_policy_malloc.obj
 0004:0000226c       ?__LINE__Var@?1??pj_inet_aton@@9@9 0055126c     pjlib-i386-win32-vc8-debug:sock_bsd.obj
 0004:00002270       ?__LINE__Var@?1??pj_inet_pton@@9@9 00551270     pjlib-i386-win32-vc8-debug:sock_bsd.obj
 0004:00002274       ?__LINE__Var@?1??pj_inet_ntop@@9@9 00551274     pjlib-i386-win32-vc8-debug:sock_bsd.obj
 0004:00002278       ?__LINE__Var@?1??pj_gethostname@@9@9 00551278     pjlib-i386-win32-vc8-debug:sock_bsd.obj
 0004:0000227c       ?__LINE__Var@?1??pj_sock_socket@@9@9 0055127c     pjlib-i386-win32-vc8-debug:sock_bsd.obj
 0004:00002280       ?__LINE__Var@?1??pj_sock_bind@@9@9 00551280     pjlib-i386-win32-vc8-debug:sock_bsd.obj
 0004:00002284       ?__LINE__Var@?1??pj_sock_bind_in@@9@9 00551284     pjlib-i386-win32-vc8-debug:sock_bsd.obj
 0004:00002288       ?__LINE__Var@?1??pj_sock_close@@9@9 00551288     pjlib-i386-win32-vc8-debug:sock_bsd.obj
 0004:0000228c       ?__LINE__Var@?1??pj_sock_getpeername@@9@9 0055128c     pjlib-i386-win32-vc8-debug:sock_bsd.obj
 0004:00002290       ?__LINE__Var@?1??pj_sock_getsockname@@9@9 00551290     pjlib-i386-win32-vc8-debug:sock_bsd.obj
 0004:00002294       ?__LINE__Var@?1??pj_sock_send@@9@9 00551294     pjlib-i386-win32-vc8-debug:sock_bsd.obj
 0004:00002298       ?__LINE__Var@?1??pj_sock_sendto@@9@9 00551298     pjlib-i386-win32-vc8-debug:sock_bsd.obj
 0004:0000229c       ?__LINE__Var@?1??pj_sock_recv@@9@9 0055129c     pjlib-i386-win32-vc8-debug:sock_bsd.obj
 0004:000022a0       ?__LINE__Var@?1??pj_sock_recvfrom@@9@9 005512a0     pjlib-i386-win32-vc8-debug:sock_bsd.obj
 0004:000022a4       ?__LINE__Var@?1??pj_sock_getsockopt@@9@9 005512a4     pjlib-i386-win32-vc8-debug:sock_bsd.obj
 0004:000022a8       ?__LINE__Var@?1??pj_sock_setsockopt@@9@9 005512a8     pjlib-i386-win32-vc8-debug:sock_bsd.obj
 0004:000022ac       ?__LINE__Var@?1??pj_sock_setsockopt_params@@9@9 005512ac     pjlib-i386-win32-vc8-debug:sock_bsd.obj
 0004:000022b0       ?__LINE__Var@?1??pj_sock_connect@@9@9 005512b0     pjlib-i386-win32-vc8-debug:sock_bsd.obj
 0004:000022b4       ?__LINE__Var@?1??pj_sock_shutdown@@9@9 005512b4     pjlib-i386-win32-vc8-debug:sock_bsd.obj
 0004:000022b8       ?__LINE__Var@?1??pj_sock_listen@@9@9 005512b8     pjlib-i386-win32-vc8-debug:sock_bsd.obj
 0004:000022bc       ?__LINE__Var@?1??pj_sock_accept@@9@9 005512bc     pjlib-i386-win32-vc8-debug:sock_bsd.obj
 0004:000022c0       ?__LINE__Var@?1??pj_sockaddr_in_set_str_addr@@9@9 005512c0     pjlib-i386-win32-vc8-debug:sock_common.obj
 0004:000022c4       ?__LINE__Var@?1??pj_sockaddr_set_str_addr@@9@9 005512c4     pjlib-i386-win32-vc8-debug:sock_common.obj
 0004:000022c8       ?__LINE__Var@?1??pj_sockaddr_in_init@@9@9 005512c8     pjlib-i386-win32-vc8-debug:sock_common.obj
 0004:000022cc       ?__LINE__Var@?1??pj_sockaddr_init@@9@9 005512cc     pjlib-i386-win32-vc8-debug:sock_common.obj
 0004:000022d0       ?__LINE__Var@?1??pj_sockaddr_get_addr@@9@9 005512d0     pjlib-i386-win32-vc8-debug:sock_common.obj
 0004:000022d4       ?__LINE__Var@?1??pj_sockaddr_get_port@@9@9 005512d4     pjlib-i386-win32-vc8-debug:sock_common.obj
 0004:000022d8       ?__LINE__Var@?1??pj_sockaddr_get_addr_len@@9@9 005512d8     pjlib-i386-win32-vc8-debug:sock_common.obj
 0004:000022dc       ?__LINE__Var@?1??pj_sockaddr_get_len@@9@9 005512dc     pjlib-i386-win32-vc8-debug:sock_common.obj
 0004:000022e0       ?__LINE__Var@?1??pj_sockaddr_set_port@@9@9 005512e0     pjlib-i386-win32-vc8-debug:sock_common.obj
 0004:000022e4       ?__LINE__Var@?1??pj_sockaddr_parse2@@9@9 005512e4     pjlib-i386-win32-vc8-debug:sock_common.obj
 0004:000022e8       ?__LINE__Var@?1??pj_sockaddr_parse@@9@9 005512e8     pjlib-i386-win32-vc8-debug:sock_common.obj
 0004:000022ec       ?__LINE__Var@?1??pj_gethostip@@9@9 005512ec     pjlib-i386-win32-vc8-debug:sock_common.obj
 0004:000022f0       ?__LINE__Var@?1??pj_sock_bind_random@@9@9 005512f0     pjlib-i386-win32-vc8-debug:sock_common.obj
 0004:000022f4       ?__LINE__Var@?1??pj_sock_setsockopt_sobuf@@9@9 005512f4     pjlib-i386-win32-vc8-debug:sock_common.obj
 0004:000022f8       ?__LINE__Var@?1??pj_create_random_string@@9@9 005512f8     pjlib-i386-win32-vc8-debug:string.obj
 0004:000022fc       ?__LINE__Var@?1??pj_strtol@@9@9 005512fc     pjlib-i386-win32-vc8-debug:string.obj
 0004:00002300       ?__LINE__Var@?1??pj_strtoul@@9@9 00551300     pjlib-i386-win32-vc8-debug:string.obj
 0004:00002304       ?__LINE__Var@?1??pj_strtoul2@@9@9 00551304     pjlib-i386-win32-vc8-debug:string.obj
 0004:00002308       ?__LINE__Var@?1??pj_utoa_pad@@9@9 00551308     pjlib-i386-win32-vc8-debug:string.obj
 0004:0000230c       ?__LINE__Var@?1??pj_ioqueue_set_lock@@9@9 0055130c     pjlib-i386-win32-vc8-debug:ioqueue_select.obj
 0004:00002310       ?__LINE__Var@?1??ioqueue_init_key@@9@9@43b29058 00551310     pjlib-i386-win32-vc8-debug:ioqueue_select.obj
 0004:00002314       ?__LINE__Var@?1??pj_ioqueue_get_user_data@@9@9 00551314     pjlib-i386-win32-vc8-debug:ioqueue_select.obj
 0004:00002318       ?__LINE__Var@?1??pj_ioqueue_set_user_data@@9@9 00551318     pjlib-i386-win32-vc8-debug:ioqueue_select.obj
 0004:0000231c       ?__LINE__Var@?1??ioqueue_dispatch_write_event@@9@9 0055131c     pjlib-i386-win32-vc8-debug:ioqueue_select.obj
 0004:00002320       ?__LINE__Var@?1??ioqueue_dispatch_read_event@@9@9 00551320     pjlib-i386-win32-vc8-debug:ioqueue_select.obj
 0004:00002324       ?__LINE__Var@?1??pj_ioqueue_recv@@9@9 00551324     pjlib-i386-win32-vc8-debug:ioqueue_select.obj
 0004:00002328       ?__LINE__Var@?1??pj_ioqueue_recvfrom@@9@9 00551328     pjlib-i386-win32-vc8-debug:ioqueue_select.obj
 0004:0000232c       ?__LINE__Var@?1??pj_ioqueue_send@@9@9 0055132c     pjlib-i386-win32-vc8-debug:ioqueue_select.obj
 0004:00002330       ?__LINE__Var@?1??pj_ioqueue_sendto@@9@9 00551330     pjlib-i386-win32-vc8-debug:ioqueue_select.obj
 0004:00002334       ?__LINE__Var@?1??pj_ioqueue_accept@@9@9 00551334     pjlib-i386-win32-vc8-debug:ioqueue_select.obj
 0004:00002338       ?__LINE__Var@?1??pj_ioqueue_connect@@9@9 00551338     pjlib-i386-win32-vc8-debug:ioqueue_select.obj
 0004:0000233c       ?__LINE__Var@?1??pj_ioqueue_set_default_concurrency@@9@9 0055133c     pjlib-i386-win32-vc8-debug:ioqueue_select.obj
 0004:00002340       ?__LINE__Var@?1??pj_ioqueue_set_concurrency@@9@9 00551340     pjlib-i386-win32-vc8-debug:ioqueue_select.obj
 0004:00002344       ?__LINE__Var@?1??pj_ioqueue_create@@9@9 00551344     pjlib-i386-win32-vc8-debug:ioqueue_select.obj
 0004:00002348       ?__LINE__Var@?1??pj_ioqueue_destroy@@9@9 00551348     pjlib-i386-win32-vc8-debug:ioqueue_select.obj
 0004:0000234c       ?__LINE__Var@?1??pj_ioqueue_register_sock2@@9@9 0055134c     pjlib-i386-win32-vc8-debug:ioqueue_select.obj
 0004:00002350       ?__LINE__Var@?1??decrement_counter@@9@9@43b29058 00551350     pjlib-i386-win32-vc8-debug:ioqueue_select.obj
 0004:00002354       ?__LINE__Var@?1??pj_ioqueue_unregister@@9@9 00551354     pjlib-i386-win32-vc8-debug:ioqueue_select.obj
 0004:00002358       ?__LINE__Var@?1??ioqueue_remove_from_set@@9@9@43b29058 00551358     pjlib-i386-win32-vc8-debug:ioqueue_select.obj
 0004:0000235c       ?__LINE__Var@?1??ioqueue_add_to_set@@9@9@43b29058 0055135c     pjlib-i386-win32-vc8-debug:ioqueue_select.obj
 0004:00002360       ?__LINE__Var@?1??scan_closing_keys@@9@9@43b29058 00551360     pjlib-i386-win32-vc8-debug:ioqueue_select.obj
 0004:00002364       ?__LINE__Var@?1??pj_ioqueue_poll@@9@9 00551364     pjlib-i386-win32-vc8-debug:ioqueue_select.obj
 0004:00002368       ?__LINE__Var@?1??pj_file_exists@@9@9 00551368     pjlib-i386-win32-vc8-debug:file_access_win32.obj
 0004:0000236c       ?__LINE__Var@?1??pj_file_size@@9@9 0055136c     pjlib-i386-win32-vc8-debug:file_access_win32.obj
 0004:00002370       ?__LINE__Var@?1??pj_file_delete@@9@9 00551370     pjlib-i386-win32-vc8-debug:file_access_win32.obj
 0004:00002374       ?__LINE__Var@?1??pj_file_move@@9@9 00551374     pjlib-i386-win32-vc8-debug:file_access_win32.obj
 0004:00002378       ?__LINE__Var@?1??pj_file_getstat@@9@9 00551378     pjlib-i386-win32-vc8-debug:file_access_win32.obj
 0004:0000237c       ?__LINE__Var@?1??pj_file_open@@9@9 0055137c     pjlib-i386-win32-vc8-debug:file_io_win32.obj
 0004:00002380       ?__LINE__Var@?1??pj_file_setpos@@9@9 00551380     pjlib-i386-win32-vc8-debug:file_io_win32.obj
 0004:00002384       ?__LINE__Var@?1??pj_array_erase@@9@9 00551384     pjlib-i386-win32-vc8-debug:array.obj
 0004:0000238c       ?__LINE__Var@?1??pj_throw_exception_@@9@9 0055138c     pjlib-i386-win32-vc8-debug:except.obj
 0004:00002390       ?__LINE__Var@?1??pj_push_exception_handler_@@9@9 00551390     pjlib-i386-win32-vc8-debug:except.obj
 0004:00002394       ?__LINE__Var@?1??pj_exception_id_free@@9@9 00551394     pjlib-i386-win32-vc8-debug:except.obj
 0004:00002398       ?__LINE__Var@?1??pj_exception_id_name@@9@9 00551398     pjlib-i386-win32-vc8-debug:except.obj
 0004:000023e4       ?__LINE__Var@?1??create_mutex_lock@@9@9@ba144588 005513e4     pjlib-i386-win32-vc8-debug:lock.obj
 0004:000023e8       ?__LINE__Var@?1??pj_lock_create_null_mutex@@9@9 005513e8     pjlib-i386-win32-vc8-debug:lock.obj
 0004:000023ec       ?__LINE__Var@?1??pj_lock_create_semaphore@@9@9 005513ec     pjlib-i386-win32-vc8-debug:lock.obj
 0004:000023f0       ?__LINE__Var@?1??pj_lock_acquire@@9@9 005513f0     pjlib-i386-win32-vc8-debug:lock.obj
 0004:000023f4       ?__LINE__Var@?1??pj_lock_tryacquire@@9@9 005513f4     pjlib-i386-win32-vc8-debug:lock.obj
 0004:000023f8       ?__LINE__Var@?1??pj_lock_release@@9@9 005513f8     pjlib-i386-win32-vc8-debug:lock.obj
 0004:000023fc       ?__LINE__Var@?1??pj_lock_destroy@@9@9 005513fc     pjlib-i386-win32-vc8-debug:lock.obj
 0004:00002400       ?__LINE__Var@?1??grp_lock_set_owner_thread@@9@9@ba144588 00551400     pjlib-i386-win32-vc8-debug:lock.obj
 0004:00002404       ?__LINE__Var@?1??grp_lock_unset_owner_thread@@9@9@ba144588 00551404     pjlib-i386-win32-vc8-debug:lock.obj
 0004:00002408       ?__LINE__Var@?1??grp_lock_acquire@@9@9@ba144588 00551408     pjlib-i386-win32-vc8-debug:lock.obj
 0004:0000240c       ?__LINE__Var@?1??grp_lock_tryacquire@@9@9@ba144588 0055140c     pjlib-i386-win32-vc8-debug:lock.obj
 0004:00002410       ?__LINE__Var@?1??pj_grp_lock_create@@9@9 00551410     pjlib-i386-win32-vc8-debug:lock.obj
 0004:00002414       ?__LINE__Var@?1??grp_lock_dec_ref@@9@9@ba144588 00551414     pjlib-i386-win32-vc8-debug:lock.obj
 0004:0000242c       ?__LINE__Var@?1??pj_generate_unique_string@@9@9 0055142c     pjlib-i386-win32-vc8-debug:guid_win32.obj
 0004:00002434       _PJ_VERSION                00551434     pjlib-i386-win32-vc8-debug:config.obj
 0004:0000243c       ?__LINE__Var@?1??platform_strerror@@9@9 0055143c     pjlib-i386-win32-vc8-debug:os_error_win32.obj
 0004:00002444       ?__LINE__Var@?1??stack_alloc@@9@9@c6253fb9 00551444     pjlib-i386-win32-vc8-debug:pool_buf.obj
 0004:00002448       ?__LINE__Var@?1??pj_pool_create_on_buf@@9@9 00551448     pjlib-i386-win32-vc8-debug:pool_buf.obj
 0004:0000244c       ?__LINE__Var@?1??pj_log_write@@9@9 0055144c     pjlib-i386-win32-vc8-debug:log_writer_stdout.obj
 0004:00002450       ?__LINE__Var@?1??enum_ipv4_interface@@9@9@e36f5909 00551450     pjlib-i386-win32-vc8-debug:ip_helper_win32.obj
 0004:00002454       ?__LINE__Var@?1??pj_enum_ip_interface@@9@9 00551454     pjlib-i386-win32-vc8-debug:ip_helper_win32.obj
 0004:00002458       ?__LINE__Var@?1??pj_enum_ip_route@@9@9 00551458     pjlib-i386-win32-vc8-debug:ip_helper_win32.obj
 0004:0000245c       ?__LINE__Var@?1??pj_gethostbyname@@9@9 0055145c     pjlib-i386-win32-vc8-debug:addr_resolv_sock.obj
 0004:00002460       ?__LINE__Var@?1??pj_getaddrinfo@@9@9 00551460     pjlib-i386-win32-vc8-debug:addr_resolv_sock.obj
 0004:00002464       ?__LINE__Var@?1??pj_srand@@9@9 00551464     pjlib-i386-win32-vc8-debug:rand.obj
 0004:00002468       ?__LINE__Var@?1??pj_rand@@9@9 00551468     pjlib-i386-win32-vc8-debug:rand.obj
 0004:0000246c       ?__LINE__Var@?1??pj_time_val_normalize@@9@9 0055146c     pjlib-i386-win32-vc8-debug:types.obj
 0004:00002470       ?__LINE__Var@?1??PJ_FD_ZERO@@9@9 00551470     pjlib-i386-win32-vc8-debug:sock_select.obj
 0004:00002474       ?__LINE__Var@?1??PJ_FD_SET@@9@9 00551474     pjlib-i386-win32-vc8-debug:sock_select.obj
 0004:00002478       ?__LINE__Var@?1??PJ_FD_CLR@@9@9 00551478     pjlib-i386-win32-vc8-debug:sock_select.obj
 0004:0000247c       ?__LINE__Var@?1??PJ_FD_ISSET@@9@9 0055147c     pjlib-i386-win32-vc8-debug:sock_select.obj
 0004:00002480       ?__LINE__Var@?1??pj_sock_select@@9@9 00551480     pjlib-i386-win32-vc8-debug:sock_select.obj
 0004:000024b8       _mod_crypto_kernel         005514b8     libsrtp-i386-win32-vc8-debug:crypto_kernel.obj
 0004:000024c4       _mod_srtp                  005514c4     libsrtp-i386-win32-vc8-debug:srtp.obj
 0004:000024d4       _mod_alloc                 005514d4     libsrtp-i386-win32-vc8-debug:alloc.obj
 0004:000024e0       _err_level                 005514e0     libsrtp-i386-win32-vc8-debug:srtp_err.obj
 0004:000024e8       _mod_cipher                005514e8     libsrtp-i386-win32-vc8-debug:cipher.obj
 0004:000024f4       _mod_auth                  005514f4     libsrtp-i386-win32-vc8-debug:auth.obj
 0004:00002500       _mod_stat                  00551500     libsrtp-i386-win32-vc8-debug:stat.obj
 0004:0000250c       _null_cipher_description   0055150c     libsrtp-i386-win32-vc8-debug:null_cipher.obj
 0004:00002518       _null_cipher               00551518     libsrtp-i386-win32-vc8-debug:null_cipher.obj
 0004:0000254c       _mod_aes_icm               0055154c     libsrtp-i386-win32-vc8-debug:aes_icm.obj
 0004:00002554       _aes_icm_description       00551554     libsrtp-i386-win32-vc8-debug:aes_icm.obj
 0004:00002570       _aes_icm_test_case_0_key   00551570     libsrtp-i386-win32-vc8-debug:aes_icm.obj
 0004:00002590       _aes_icm_test_case_0_ciphertext 00551590     libsrtp-i386-win32-vc8-debug:aes_icm.obj
 0004:000025b0       _aes_icm_test_case_0       005515b0     libsrtp-i386-win32-vc8-debug:aes_icm.obj
 0004:000025d0       _aes_icm                   005515d0     libsrtp-i386-win32-vc8-debug:aes_icm.obj
 0004:00002620       _mod_aes_cbc               00551620     libsrtp-i386-win32-vc8-debug:aes_cbc.obj
 0004:00002628       _aes_cbc_description       00551628     libsrtp-i386-win32-vc8-debug:aes_cbc.obj
 0004:00002650       _aes_cbc_test_case_0_key   00551650     libsrtp-i386-win32-vc8-debug:aes_cbc.obj
 0004:00002660       _aes_cbc_test_case_0_plaintext 00551660     libsrtp-i386-win32-vc8-debug:aes_cbc.obj
 0004:000026a0       _aes_cbc_test_case_0_ciphertext 005516a0     libsrtp-i386-win32-vc8-debug:aes_cbc.obj
 0004:000026f0       _aes_cbc_test_case_0       005516f0     libsrtp-i386-win32-vc8-debug:aes_cbc.obj
 0004:00002710       _aes_cbc_test_case_1_key   00551710     libsrtp-i386-win32-vc8-debug:aes_cbc.obj
 0004:00002720       _aes_cbc_test_case_1_plaintext 00551720     libsrtp-i386-win32-vc8-debug:aes_cbc.obj
 0004:00002760       _aes_cbc_test_case_1_ciphertext 00551760     libsrtp-i386-win32-vc8-debug:aes_cbc.obj
 0004:000027b0       _aes_cbc_test_case_1_iv    005517b0     libsrtp-i386-win32-vc8-debug:aes_cbc.obj
 0004:000027c0       _aes_cbc_test_case_1       005517c0     libsrtp-i386-win32-vc8-debug:aes_cbc.obj
 0004:000027e0       _aes_cbc                   005517e0     libsrtp-i386-win32-vc8-debug:aes_cbc.obj
 0004:0000286c       _null_auth_description     0055186c     libsrtp-i386-win32-vc8-debug:null_auth.obj
 0004:0000288c       _null_auth                 0055188c     libsrtp-i386-win32-vc8-debug:null_auth.obj
 0004:000028c4       _mod_hmac                  005518c4     libsrtp-i386-win32-vc8-debug:hmac.obj
 0004:000028cc       _hmac_test_case_0_key      005518cc     libsrtp-i386-win32-vc8-debug:hmac.obj
 0004:000028e0       _hmac_test_case_0_data     005518e0     libsrtp-i386-win32-vc8-debug:hmac.obj
 0004:000028e8       _hmac_test_case_0_tag      005518e8     libsrtp-i386-win32-vc8-debug:hmac.obj
 0004:000028fc       _hmac_test_case_0          005518fc     libsrtp-i386-win32-vc8-debug:hmac.obj
 0004:00002918       _hmac_description          00551918     libsrtp-i386-win32-vc8-debug:hmac.obj
 0004:0000293c       _hmac                      0055193c     libsrtp-i386-win32-vc8-debug:hmac.obj
 0004:00002988       _octet_weight              00551988     libsrtp-i386-win32-vc8-debug:datatypes.obj
 0004:00005724       _mod_sha1                  00554724     libsrtp-i386-win32-vc8-debug:sha1.obj
 0004:0000572c       _SHA_K0                    0055472c     libsrtp-i386-win32-vc8-debug:sha1.obj
 0004:00005730       _SHA_K1                    00554730     libsrtp-i386-win32-vc8-debug:sha1.obj
 0004:00005734       _SHA_K2                    00554734     libsrtp-i386-win32-vc8-debug:sha1.obj
 0004:00005738       _SHA_K3                    00554738     libsrtp-i386-win32-vc8-debug:sha1.obj
 0004:00005740       __iob                      00554740     LIBCMTD:_file.obj
 0004:00005ab0       ___security_cookie         00554ab0     LIBCMTD:gs_cookie.obj
 0004:00005ab4       ___security_cookie_complement 00554ab4     LIBCMTD:gs_cookie.obj
 0004:00005ac0       __fltused                  00554ac0     LIBCMTD:fpinit.obj
 0004:00005ac4       __ldused                   00554ac4     LIBCMTD:fpinit.obj
 0004:00005b00       __half                     00554b00     LIBCMTD:pow.obj
 0004:00005c8c       __crtBreakAlloc            00554c8c     LIBCMTD:dbgheap.obj
 0004:00005c90       ___crtDebugFillThreshold   00554c90     LIBCMTD:dbgheap.obj
 0004:00005c94       __crtDbgFlag               00554c94     LIBCMTD:dbgheap.obj
 0004:00005e68       ___badioinfo               00554e68     LIBCMTD:ioinit.obj
 0004:00005eb4       ___nullstring              00554eb4     LIBCMTD:output.obj
 0004:00005eb8       ___wnullstring             00554eb8     LIBCMTD:output.obj
 0004:00005ec0       __mbctype                  00554ec0     LIBCMTD:mbctype.obj
 0004:00005fc8       __mbcasemap                00554fc8     LIBCMTD:mbctype.obj
 0004:000060c8       ___initialmbcinfo          005550c8     LIBCMTD:mbctype.obj
 0004:000062ec       ___ptmbcinfo               005552ec     LIBCMTD:mbctype.obj
 0004:000064e8       ___flsindex                005554e8     LIBCMTD:tidtable.obj
 0004:000064ec       ___mb_cur_max              005554ec     LIBCMTD:nlsdata.obj
 0004:000064f0       ___wclocalestr             005554f0     LIBCMTD:nlsdata.obj
 0004:000064f8       ___lc_time_c               005554f8     LIBCMTD:nlsdata.obj
 0004:000066a4       ___ptlocinfo               005556a4     LIBCMTD:nlsdata.obj
 0004:000066a8       ___initiallocinfo          005556a8     LIBCMTD:nlsdata.obj
 0004:00006784       ___initiallocalestructinfo 00555784     LIBCMTD:nlsdata.obj
 0004:00006790       ___globallocalestatus      00555790     LIBCMTD:glstatus.obj
 0004:00006798       ___abort_behavior          00555798     LIBCMTD:abort.obj
 0004:0000679c       ___isa_enabled             0055579c     LIBCMTD:cpu_disp.obj
 0004:000067a0       __NLG_Destination          005557a0     LIBCMTD:exsup.obj
 0004:000067b4       __pfnAllocHook             005557b4     LIBCMTD:dbghook.obj
 0004:000067bc       __cfltcvt_tab              005557bc     LIBCMTD:cmiscdat.obj
 0004:00006910       __d_inf                    00555910     LIBCMTD:util.obj
 0004:00006918       __d_ind                    00555918     LIBCMTD:util.obj
 0004:00006920       __d_max                    00555920     LIBCMTD:util.obj
 0004:00006928       __d_min                    00555928     LIBCMTD:util.obj
 0004:00006930       __d_mzero                  00555930     LIBCMTD:util.obj
 0004:00006988       __lookuptrailbytes         00555988     LIBCMTD:read.obj
 0004:00006abc       __CrtDbgMode               00555abc     LIBCMTD:dbgrptt.obj
 0004:00006ac8       __CrtDbgFile               00555ac8     LIBCMTD:dbgrptt.obj
 0004:00006ad4       __crtAssertBusy            00555ad4     LIBCMTD:dbgrptt.obj
 0004:00006ae0       ___lconv                   00555ae0     LIBCMTD:lconv.obj
 0004:00006ae4       ___lconv_static_decimal    00555ae4     LIBCMTD:lconv.obj
 0004:00006ae8       ___lconv_c                 00555ae8     LIBCMTD:lconv.obj
 0004:00006b38       ___lconv_static_W_decimal  00555b38     LIBCMTD:lconv.obj
 0004:00006b50       __pctype                   00555b50     LIBCMTD:ctype.obj
 0004:00006b54       __pwctype                  00555b54     LIBCMTD:ctype.obj
 0004:00006b60       __matherr_flag             00555b60     LIBCMTD:matherr.obj
 0004:00006b70       __HUGE                     00555b70     LIBCMTD:huge.obj
 0004:00006bb8       __confh                    00555bb8     LIBCMTD:initcon.obj
 0004:00006bc0       __pow10pos                 00555bc0     LIBCMTD:constpow.obj
 0004:00006d20       __pow10neg                 00555d20     LIBCMTD:constpow.obj
 0004:00006f90       ?__LINE__Var@?1??pjmedia_aud_subsys_init@@9@9 00555f90     pjmedia-audiodev-i386-win32-vc8-debug:audiodev.obj
 0004:00006f94       ?__LINE__Var@?1??make_global_index@@9@9@49badc71 00555f94     pjmedia-audiodev-i386-win32-vc8-debug:audiodev.obj
 0004:00006f98       ?__LINE__Var@?1??pjmedia_aud_dev_get_info@@9@9 00555f98     pjmedia-audiodev-i386-win32-vc8-debug:audiodev.obj
 0004:00006f9c       ?__LINE__Var@?1??pjmedia_aud_dev_lookup@@9@9 00555f9c     pjmedia-audiodev-i386-win32-vc8-debug:audiodev.obj
 0004:00006fa0       ?__LINE__Var@?1??pjmedia_aud_dev_default_param@@9@9 00555fa0     pjmedia-audiodev-i386-win32-vc8-debug:audiodev.obj
 0004:00006fa4       ?__LINE__Var@?1??pjmedia_aud_stream_create@@9@9 00555fa4     pjmedia-audiodev-i386-win32-vc8-debug:audiodev.obj
 0004:00006fa8       ?__LINE__Var@?1??pjmedia_aud_stream_get_param@@9@9 00555fa8     pjmedia-audiodev-i386-win32-vc8-debug:audiodev.obj
 0004:00006fec       ?__LINE__Var@?1??factory_get_dev_info@@9@9@a887bb45 00555fec     pjmedia-audiodev-i386-win32-vc8-debug:wmme_dev.obj
 0004:00006ff0       ?__LINE__Var@?1??factory_default_param@@9@9@a887bb45 00555ff0     pjmedia-audiodev-i386-win32-vc8-debug:wmme_dev.obj
 0004:00006ff4       ?__LINE__Var@?1??init_player_stream@@9@9@a887bb45 00555ff4     pjmedia-audiodev-i386-win32-vc8-debug:wmme_dev.obj
 0004:00006ff8       ?__LINE__Var@?1??init_capture_stream@@9@9@a887bb45 00555ff8     pjmedia-audiodev-i386-win32-vc8-debug:wmme_dev.obj
 0004:00006ffc       ?__LINE__Var@?1??wmme_dev_thread@@9@9@a887bb45 00555ffc     pjmedia-audiodev-i386-win32-vc8-debug:wmme_dev.obj
 0004:00007000       ?__LINE__Var@?1??factory_create_stream@@9@9@a887bb45 00556000     pjmedia-audiodev-i386-win32-vc8-debug:wmme_dev.obj
 0004:00007004       ?__LINE__Var@?1??stream_get_param@@9@9@a887bb45 00556004     pjmedia-audiodev-i386-win32-vc8-debug:wmme_dev.obj
 0004:00007008       ?__LINE__Var@?1??stream_get_cap@@9@9@a887bb45 00556008     pjmedia-audiodev-i386-win32-vc8-debug:wmme_dev.obj
 0004:0000700c       ?__LINE__Var@?1??stream_set_cap@@9@9@a887bb45 0055600c     pjmedia-audiodev-i386-win32-vc8-debug:wmme_dev.obj
 0004:00007010       ?__LINE__Var@?1??stream_stop@@9@9@a887bb45 00556010     pjmedia-audiodev-i386-win32-vc8-debug:wmme_dev.obj
 0004:00007014       ?__LINE__Var@?1??stream_destroy@@9@9@a887bb45 00556014     pjmedia-audiodev-i386-win32-vc8-debug:wmme_dev.obj
 0004:00007274       ??_R0?AVbad_exception@std@@@8 00556274     LIBCMTD:frame.obj
 0004:0000729c       ??_R0?AVexception@std@@@8  0055629c     LIBCMTD:frame.obj
 0004:000072c0       ??_R0?AVtype_info@@@8      005562c0     LIBCMTD:typinfo.obj
 0004:000072dc       ??_R0?AVbad_cast@std@@@8   005562dc     LIBCMTD:stdexcpt.obj
 0004:000072fc       ??_R0?AVbad_typeid@std@@@8 005562fc     LIBCMTD:stdexcpt.obj
 0004:00007320       ??_R0?AV__non_rtti_object@std@@@8 00556320     LIBCMTD:stdexcpt.obj
 0004:0000734c       ??_R0?AVDNameNode@@@8      0055634c     LIBCMTD:undname.obj
 0004:00007368       ??_R0?AVcharNode@@@8       00556368     LIBCMTD:undname.obj
 0004:00007384       ??_R0?AVpcharNode@@@8      00556384     LIBCMTD:undname.obj
 0004:000073a0       ??_R0?AVpDNameNode@@@8     005563a0     LIBCMTD:undname.obj
 0004:000073c0       ??_R0?AVDNameStatusNode@@@8 005563c0     LIBCMTD:undname.obj
 0004:000073e4       ??_R0?AVpairNode@@@8       005563e4     LIBCMTD:undname.obj
 0004:00007a48       _pj_optarg                 00556a48     pjlib-util-i386-win32-vc8-debug:getopt.obj
 0004:00007ea4       _crypto_kernel             00556ea4     libsrtp-i386-win32-vc8-debug:crypto_kernel.obj
 0004:00007eb8       _null_cipher_test_0        00556eb8     libsrtp-i386-win32-vc8-debug:null_cipher.obj
 0004:00007ee0       _aes_icm_test_case_0_nonce 00556ee0     libsrtp-i386-win32-vc8-debug:aes_icm.obj
 0004:00007ef0       _aes_icm_test_case_0_plaintext 00556ef0     libsrtp-i386-win32-vc8-debug:aes_icm.obj
 0004:00007f1c       _aes_cbc_test_case_0_iv    00556f1c     libsrtp-i386-win32-vc8-debug:aes_cbc.obj
 0004:00007f30       _null_auth_test_case_0     00556f30     libsrtp-i386-win32-vc8-debug:null_auth.obj
 0004:00007f54       __cflush                   00556f54     LIBCMTD:_file.obj
 0004:00007f5c       __aenvptr                  00556f5c     LIBCMTD:crt0.obj
 0004:00007f60       __wenvptr                  00556f60     LIBCMTD:crt0.obj
 0004:00008328       ___fastflag                00557328     LIBCMTD:fpinit.obj
 0004:0000832c       __umaskval                 0055732c     LIBCMTD:crt0dat.obj
 0004:00008330       __exitflag                 00557330     LIBCMTD:crt0dat.obj
 0004:00008334       __C_Termination_Done       00557334     LIBCMTD:crt0dat.obj
 0004:00008338       ___winitenv                00557338     LIBCMTD:crt0dat.obj
 0004:0000833c       ___initenv                 0055733c     LIBCMTD:crt0dat.obj
 0004:00008340       ___argc                    00557340     LIBCMTD:crt0dat.obj
 0004:00008344       ___argv                    00557344     LIBCMTD:crt0dat.obj
 0004:00008348       ___wargv                   00557348     LIBCMTD:crt0dat.obj
 0004:0000834c       __environ                  0055734c     LIBCMTD:crt0dat.obj
 0004:00008350       __wenviron                 00557350     LIBCMTD:crt0dat.obj
 0004:00008354       __pgmptr                   00557354     LIBCMTD:crt0dat.obj
 0004:00008358       __wpgmptr                  00557358     LIBCMTD:crt0dat.obj
 0004:0000835c       __C_Exit_Done              0055735c     LIBCMTD:crt0dat.obj
 0004:00008530       ___crtDebugCheckCount      00557530     LIBCMTD:dbgheap.obj
 0004:00008538       ?_pfnDumpClient@@3P6AXPAXI@ZA 00557538     LIBCMTD:dbgheap.obj
 0004:0000855c       ___pInvalidArgHandler      0055755c     LIBCMTD:invarg.obj
 0004:00008560       ___pioinfo                 00557560     LIBCMTD:ioinit.obj
 0004:00008694       __stdbuf                   00557694     LIBCMTD:_sftbuf.obj
 0004:000086a0       ___mbcodepage              005576a0     LIBCMTD:mbctype.obj
 0004:000086a4       ___ismbcodepage            005576a4     LIBCMTD:mbctype.obj
 0004:000086a8       ___mbulinfo                005576a8     LIBCMTD:mbctype.obj
 0004:000086b4       ___mblocalename            005576b4     LIBCMTD:mbctype.obj
 0004:000086c4       ___locale_changed          005576c4     LIBCMTD:wsetloca.obj
 0004:000086c8       ___error_mode              005576c8     LIBCMTD:errmode.obj
 0004:00008700       ___app_type                00557700     LIBCMTD:crt0msg.obj
 0004:00008e6c       __crtheap                  00557e6c     LIBCMTD:heapinit.obj
 0004:00008fac       ___isa_available           00557fac     LIBCMTD:cpu_disp.obj
 0004:00008fb0       ___favor                   00557fb0     LIBCMTD:cpu_disp.obj
 0004:00008fb8       __newmode                  00557fb8     LIBCMTD:_newmode.obj
 0004:00008fc0       ?__pInconsistency@@3P6AXXZA 00557fc0     LIBCMTD:hooks.obj
 0004:00008fc4       ?_pnhHeap@@3P6AHI@ZA       00557fc4     LIBCMTD:handler.obj
 0004:00008fc8       ___pPurecall               00557fc8     LIBCMTD:inithelp.obj
 0004:00008fd0       ___lconv_static_null       00557fd0     LIBCMTD:lconv.obj
 0004:00008fd4       ___lconv_static_W_null     00557fd4     LIBCMTD:lconv.obj
 0004:00008fd8       ?g_OutOfMemoryExceptionCallback@@3P6GPAXXZA 00557fd8     LIBCMTD:frame.obj
 0004:00008fe0       __outputformat             00557fe0     LIBCMTD:outputformat.obj
 0004:00008ff0       ?pArgList@UnDecorator@@0PAVReplicator@@A 00557ff0     LIBCMTD:undname.obj
 0004:00008ff4       ?pZNameList@UnDecorator@@0PAVReplicator@@A 00557ff4     LIBCMTD:undname.obj
 0004:00008ff8       ?pTemplateArgList@UnDecorator@@0PAVReplicator@@A 00557ff8     LIBCMTD:undname.obj
 0004:00008ffc       ?gName@UnDecorator@@0PBDB  00557ffc     LIBCMTD:undname.obj
 0004:00009000       ?name@UnDecorator@@0PBDB   00558000     LIBCMTD:undname.obj
 0004:00009004       ?outputString@UnDecorator@@0PADA 00558004     LIBCMTD:undname.obj
 0004:00009008       ?maxStringLength@UnDecorator@@0HA 00558008     LIBCMTD:undname.obj
 0004:0000900c       ?disableFlags@UnDecorator@@0KA 0055800c     LIBCMTD:undname.obj
 0004:00009010       ?fExplicitTemplateParams@UnDecorator@@0_NA 00558010     LIBCMTD:undname.obj
 0004:00009011       ?fGetTemplateArgumentList@UnDecorator@@0_NA 00558011     LIBCMTD:undname.obj
 0004:00009014       ?m_pGetParameter@UnDecorator@@0P6APADJ@ZA 00558014     LIBCMTD:undname.obj
 0004:00009098       ?nodes@?1??make@DNameStatusNode@@SAPAV2@W4DNameStatus@@@Z@4PAV2@A 00558098     LIBCMTD:undname.obj
 0004:000090d4       ??_B?1??make@DNameStatusNode@@SAPAV1@W4DNameStatus@@@Z@51 005580d4     LIBCMTD:undname.obj
 0004:000096b4       _PJ_NO_MEMORY_EXCEPTION    005586b4     <common>
 0004:000096c0       _bit_string                005586c0     <common>
 0004:00009ba0       _ctr_prng                  00558ba0     <common>
 0004:00009cd4       __pReportHookListW         00558cd4     <common>
 0004:00009ce4       __pReportHookList          00558ce4     <common>
 0004:00009ce8       __pfnReportHook            00558ce8     <common>
 0004:00009cec       __pmatherr                 00558cec     <common>
 0004:00009cf8       ___use_sse2_mathfcns       00558cf8     <common>
 0004:00009d20       _encodedKERNEL32Functions  00558d20     <common>
 0004:00009dc8       __debugger_hook_dummy      00558dc8     <common>
 0004:00009dd4       ___unguarded_readlc_active 00558dd4     <common>
 0004:00009de4       ___setlc_active            00558de4     <common>
 0004:00009de8       __nhandle                  00558de8     <common>
 0004:00009df4       ___dyn_tls_init_callback   00558df4     <common>
 0004:00009e04       ___onexitend               00558e04     <common>
 0004:00009e08       ___onexitbegin             00558e08     <common>
 0004:00009e0c       ___mbctype_initialized     00558e0c     <common>
 0004:00009e10       ___env_initialized         00558e10     <common>
 0004:00009e14       __setjmpexused             00558e14     <common>
 0004:00009e20       __acmdln                   00558e20     <common>
 0004:00009e40       __bufin                    00558e40     <common>
 0004:0000b17c       ___piob                    0055a17c     <common>
 0004:0000b180       __nstream                  0055a180     <common>
 0005:00000000       __imp__GetModuleHandleExW@12 0055b000     kernel32:KERNEL32.dll
 0005:00000004       __imp__GetStringTypeW@16   0055b004     kernel32:KERNEL32.dll
 0005:00000008       __imp__SetFilePointerEx@20 0055b008     kernel32:KERNEL32.dll
 0005:0000000c       __imp__OutputDebugStringA@4 0055b00c     kernel32:KERNEL32.dll
 0005:00000010       __imp__ReadConsoleW@20     0055b010     kernel32:KERNEL32.dll
 0005:00000014       __imp__HeapAlloc@12        0055b014     kernel32:KERNEL32.dll
 0005:00000018       __imp__HeapQueryInformation@20 0055b018     kernel32:KERNEL32.dll
 0005:0000001c       __imp__HeapSize@12         0055b01c     kernel32:KERNEL32.dll
 0005:00000020       __imp__HeapReAlloc@16      0055b020     kernel32:KERNEL32.dll
 0005:00000024       __imp__HeapFree@12         0055b024     kernel32:KERNEL32.dll
 0005:00000028       __imp__GetConsoleMode@8    0055b028     kernel32:KERNEL32.dll
 0005:0000002c       __imp__GetConsoleCP@0      0055b02c     kernel32:KERNEL32.dll
 0005:00000030       __imp__RaiseException@16   0055b030     kernel32:KERNEL32.dll
 0005:00000034       __imp__CreateSemaphoreW@16 0055b034     kernel32:KERNEL32.dll
 0005:00000038       __imp__GetModuleHandleW@4  0055b038     kernel32:KERNEL32.dll
 0005:0000003c       __imp__GetTickCount@0      0055b03c     kernel32:KERNEL32.dll
 0005:00000040       __imp__TerminateProcess@8  0055b040     kernel32:KERNEL32.dll
 0005:00000044       __imp__GetCurrentProcess@0 0055b044     kernel32:KERNEL32.dll
 0005:00000048       __imp__CreateEventW@16     0055b048     kernel32:KERNEL32.dll
 0005:0000004c       __imp__InitializeCriticalSectionAndSpinCount@8 0055b04c     kernel32:KERNEL32.dll
 0005:00000050       __imp__SetUnhandledExceptionFilter@4 0055b050     kernel32:KERNEL32.dll
 0005:00000054       __imp__UnhandledExceptionFilter@4 0055b054     kernel32:KERNEL32.dll
 0005:00000058       __imp__FreeEnvironmentStringsW@4 0055b058     kernel32:KERNEL32.dll
 0005:0000005c       __imp__GetEnvironmentStringsW@0 0055b05c     kernel32:KERNEL32.dll
 0005:00000060       __imp__GetModuleFileNameA@12 0055b060     kernel32:KERNEL32.dll
 0005:00000064       __imp__WaitForMultipleObjects@16 0055b064     kernel32:KERNEL32.dll
 0005:00000068       __imp__CreateFileW@28      0055b068     kernel32:KERNEL32.dll
 0005:0000006c       __imp__SetStdHandle@8      0055b06c     kernel32:KERNEL32.dll
 0005:00000070       __imp__LCMapStringW@24     0055b070     kernel32:KERNEL32.dll
 0005:00000074       __imp__CompareStringW@24   0055b074     kernel32:KERNEL32.dll
 0005:00000078       __imp__GetTimeFormatW@24   0055b078     kernel32:KERNEL32.dll
 0005:0000007c       __imp__GetDateFormatW@24   0055b07c     kernel32:KERNEL32.dll
 0005:00000080       __imp__EnumSystemLocalesW@8 0055b080     kernel32:KERNEL32.dll
 0005:00000084       __imp__GetUserDefaultLCID@0 0055b084     kernel32:KERNEL32.dll
 0005:00000088       __imp__IsValidLocale@8     0055b088     kernel32:KERNEL32.dll
 0005:0000008c       __imp__GetStdHandle@4      0055b08c     kernel32:KERNEL32.dll
 0005:00000090       __imp__CloseHandle@4       0055b090     kernel32:KERNEL32.dll
 0005:00000094       __imp__GetLastError@0      0055b094     kernel32:KERNEL32.dll
 0005:00000098       __imp__InitializeCriticalSection@4 0055b098     kernel32:KERNEL32.dll
 0005:0000009c       __imp__EnterCriticalSection@4 0055b09c     kernel32:KERNEL32.dll
 0005:000000a0       __imp__LeaveCriticalSection@4 0055b0a0     kernel32:KERNEL32.dll
 0005:000000a4       __imp__TryEnterCriticalSection@4 0055b0a4     kernel32:KERNEL32.dll
 0005:000000a8       __imp__DeleteCriticalSection@4 0055b0a8     kernel32:KERNEL32.dll
 0005:000000ac       __imp__SetEvent@4          0055b0ac     kernel32:KERNEL32.dll
 0005:000000b0       __imp__ResetEvent@4        0055b0b0     kernel32:KERNEL32.dll
 0005:000000b4       __imp__ReleaseSemaphore@12 0055b0b4     kernel32:KERNEL32.dll
 0005:000000b8       __imp__WaitForSingleObject@8 0055b0b8     kernel32:KERNEL32.dll
 0005:000000bc       __imp__CreateEventA@16     0055b0bc     kernel32:KERNEL32.dll
 0005:000000c0       __imp__Sleep@4             0055b0c0     kernel32:KERNEL32.dll
 0005:000000c4       __imp__GetCurrentProcessId@0 0055b0c4     kernel32:KERNEL32.dll
 0005:000000c8       __imp__CreateThread@24     0055b0c8     kernel32:KERNEL32.dll
 0005:000000cc       __imp__GetCurrentThread@0  0055b0cc     kernel32:KERNEL32.dll
 0005:000000d0       __imp__GetCurrentThreadId@0 0055b0d0     kernel32:KERNEL32.dll
 0005:000000d4       __imp__SetThreadPriority@8 0055b0d4     kernel32:KERNEL32.dll
 0005:000000d8       __imp__GetThreadPriority@4 0055b0d8     kernel32:KERNEL32.dll
 0005:000000dc       __imp__ResumeThread@4      0055b0dc     kernel32:KERNEL32.dll
 0005:000000e0       __imp__TlsAlloc@0          0055b0e0     kernel32:KERNEL32.dll
 0005:000000e4       __imp__TlsGetValue@4       0055b0e4     kernel32:KERNEL32.dll
 0005:000000e8       __imp__TlsSetValue@8       0055b0e8     kernel32:KERNEL32.dll
 0005:000000ec       __imp__TlsFree@4           0055b0ec     kernel32:KERNEL32.dll
 0005:000000f0       __imp__PulseEvent@4        0055b0f0     kernel32:KERNEL32.dll
 0005:000000f4       __imp__CreateSemaphoreA@16 0055b0f4     kernel32:KERNEL32.dll
 0005:000000f8       __imp__GetConsoleScreenBufferInfo@8 0055b0f8     kernel32:KERNEL32.dll
 0005:000000fc       __imp__SetConsoleTextAttribute@8 0055b0fc     kernel32:KERNEL32.dll
 0005:00000100       __imp__GetLocalTime@4      0055b100     kernel32:KERNEL32.dll
 0005:00000104       __imp__FileTimeToSystemTime@8 0055b104     kernel32:KERNEL32.dll
 0005:00000108       __imp__SystemTimeToFileTime@8 0055b108     kernel32:KERNEL32.dll
 0005:0000010c       __imp__CreateFileA@28      0055b10c     kernel32:KERNEL32.dll
 0005:00000110       __imp__DeleteFileA@4       0055b110     kernel32:KERNEL32.dll
 0005:00000114       __imp__FileTimeToLocalFileTime@8 0055b114     kernel32:KERNEL32.dll
 0005:00000118       __imp__GetFileSize@8       0055b118     kernel32:KERNEL32.dll
 0005:0000011c       __imp__GetFileTime@16      0055b11c     kernel32:KERNEL32.dll
 0005:00000120       __imp__MoveFileExA@12      0055b120     kernel32:KERNEL32.dll
 0005:00000124       __imp__FlushFileBuffers@4  0055b124     kernel32:KERNEL32.dll
 0005:00000128       __imp__ReadFile@20         0055b128     kernel32:KERNEL32.dll
 0005:0000012c       __imp__SetFilePointer@16   0055b12c     kernel32:KERNEL32.dll
 0005:00000130       __imp__WriteFile@20        0055b130     kernel32:KERNEL32.dll
 0005:00000134       __imp__QueryPerformanceCounter@4 0055b134     kernel32:KERNEL32.dll
 0005:00000138       __imp__QueryPerformanceFrequency@4 0055b138     kernel32:KERNEL32.dll
 0005:0000013c       __imp__SetLastError@4      0055b13c     kernel32:KERNEL32.dll
 0005:00000140       __imp__FormatMessageA@28   0055b140     kernel32:KERNEL32.dll
 0005:00000144       __imp__FreeLibrary@4       0055b144     kernel32:KERNEL32.dll
 0005:00000148       __imp__GetProcAddress@8    0055b148     kernel32:KERNEL32.dll
 0005:0000014c       __imp__LoadLibraryA@4      0055b14c     kernel32:KERNEL32.dll
 0005:00000150       __imp__GetFileType@4       0055b150     kernel32:KERNEL32.dll
 0005:00000154       __imp__GetModuleFileNameW@12 0055b154     kernel32:KERNEL32.dll
 0005:00000158       __imp__GetProcessHeap@0    0055b158     kernel32:KERNEL32.dll
 0005:0000015c       __imp__WriteConsoleW@20    0055b15c     kernel32:KERNEL32.dll
 0005:00000160       __imp__GetCommandLineA@0   0055b160     kernel32:KERNEL32.dll
 0005:00000164       __imp__IsDebuggerPresent@0 0055b164     kernel32:KERNEL32.dll
 0005:00000168       __imp__IsProcessorFeaturePresent@4 0055b168     kernel32:KERNEL32.dll
 0005:0000016c       __imp__RtlUnwind@16        0055b16c     kernel32:KERNEL32.dll
 0005:00000170       __imp__EncodePointer@4     0055b170     kernel32:KERNEL32.dll
 0005:00000174       __imp__DecodePointer@4     0055b174     kernel32:KERNEL32.dll
 0005:00000178       __imp__ExitProcess@4       0055b178     kernel32:KERNEL32.dll
 0005:0000017c       __imp__AreFileApisANSI@0   0055b17c     kernel32:KERNEL32.dll
 0005:00000180       __imp__MultiByteToWideChar@24 0055b180     kernel32:KERNEL32.dll
 0005:00000184       __imp__WideCharToMultiByte@32 0055b184     kernel32:KERNEL32.dll
 0005:00000188       __imp__GetSystemTimeAsFileTime@4 0055b188     kernel32:KERNEL32.dll
 0005:0000018c       __imp__FatalAppExitA@8     0055b18c     kernel32:KERNEL32.dll
 0005:00000190       __imp__HeapValidate@12     0055b190     kernel32:KERNEL32.dll
 0005:00000194       __imp__GetSystemInfo@4     0055b194     kernel32:KERNEL32.dll
 0005:00000198       __imp__GetStartupInfoW@4   0055b198     kernel32:KERNEL32.dll
 0005:0000019c       __imp__IsValidCodePage@4   0055b19c     kernel32:KERNEL32.dll
 0005:000001a0       __imp__GetACP@0            0055b1a0     kernel32:KERNEL32.dll
 0005:000001a4       __imp__GetOEMCP@0          0055b1a4     kernel32:KERNEL32.dll
 0005:000001a8       __imp__GetCPInfo@8         0055b1a8     kernel32:KERNEL32.dll
 0005:000001ac       __imp__SetConsoleCtrlHandler@8 0055b1ac     kernel32:KERNEL32.dll
 0005:000001b0       __imp__OutputDebugStringW@4 0055b1b0     kernel32:KERNEL32.dll
 0005:000001b4       __imp__WaitForSingleObjectEx@12 0055b1b4     kernel32:KERNEL32.dll
 0005:000001b8       __imp__LoadLibraryExW@12   0055b1b8     kernel32:KERNEL32.dll
 0005:000001bc       __imp__GetLocaleInfoW@16   0055b1bc     kernel32:KERNEL32.dll
 0005:000001c0       \177KERNEL32_NULL_THUNK_DATA 0055b1c0     kernel32:KERNEL32.dll
 0005:00000244       __imp__waveOutGetErrorTextA@12 0055b244     winmm:WINMM.dll
 0005:00000248       __imp__waveInGetErrorTextA@12 0055b248     winmm:WINMM.dll
 0005:0000024c       __imp__waveOutGetNumDevs@0 0055b24c     winmm:WINMM.dll
 0005:00000250       __imp__waveOutGetDevCapsA@12 0055b250     winmm:WINMM.dll
 0005:00000254       __imp__waveOutGetVolume@8  0055b254     winmm:WINMM.dll
 0005:00000258       __imp__waveOutSetVolume@8  0055b258     winmm:WINMM.dll
 0005:0000025c       __imp__waveOutOpen@24      0055b25c     winmm:WINMM.dll
 0005:00000260       __imp__waveOutClose@4      0055b260     winmm:WINMM.dll
 0005:00000264       __imp__waveOutPrepareHeader@12 0055b264     winmm:WINMM.dll
 0005:00000268       __imp__waveOutUnprepareHeader@12 0055b268     winmm:WINMM.dll
 0005:0000026c       __imp__waveOutWrite@12     0055b26c     winmm:WINMM.dll
 0005:00000270       __imp__waveOutPause@4      0055b270     winmm:WINMM.dll
 0005:00000274       __imp__waveOutRestart@4    0055b274     winmm:WINMM.dll
 0005:00000278       __imp__waveOutReset@4      0055b278     winmm:WINMM.dll
 0005:0000027c       __imp__waveInGetNumDevs@0  0055b27c     winmm:WINMM.dll
 0005:00000280       __imp__waveInGetDevCapsA@12 0055b280     winmm:WINMM.dll
 0005:00000284       __imp__waveInOpen@24       0055b284     winmm:WINMM.dll
 0005:00000288       __imp__waveInClose@4       0055b288     winmm:WINMM.dll
 0005:0000028c       __imp__waveInPrepareHeader@12 0055b28c     winmm:WINMM.dll
 0005:00000290       __imp__waveInUnprepareHeader@12 0055b290     winmm:WINMM.dll
 0005:00000294       __imp__waveInAddBuffer@12  0055b294     winmm:WINMM.dll
 0005:00000298       __imp__waveInStart@4       0055b298     winmm:WINMM.dll
 0005:0000029c       __imp__waveInStop@4        0055b29c     winmm:WINMM.dll
 0005:000002a0       __imp__waveInReset@4       0055b2a0     winmm:WINMM.dll
 0005:000002a4       \177WINMM_NULL_THUNK_DATA  0055b2a4     winmm:WINMM.dll
 0005:000002e0       __imp__select@20           0055b2e0     ws2_32:WS2_32.dll
 0005:000002e4       __imp____WSAFDIsSet@8      0055b2e4     ws2_32:WS2_32.dll
 0005:000002e8       __imp__gethostbyname@4     0055b2e8     ws2_32:WS2_32.dll
 0005:000002ec       __imp__WSASetLastError@4   0055b2ec     ws2_32:WS2_32.dll
 0005:000002f0       __imp__ioctlsocket@12      0055b2f0     ws2_32:WS2_32.dll
 0005:000002f4       __imp__WSAStringToAddressA@20 0055b2f4     ws2_32:WS2_32.dll
 0005:000002f8       __imp__WSAAddressToStringA@20 0055b2f8     ws2_32:WS2_32.dll
 0005:000002fc       __imp__WSASocketA@24       0055b2fc     ws2_32:WS2_32.dll
 0005:00000300       __imp__WSAIoctl@36         0055b300     ws2_32:WS2_32.dll
 0005:00000304       __imp__gethostname@8       0055b304     ws2_32:WS2_32.dll
 0005:00000308       __imp__shutdown@8          0055b308     ws2_32:WS2_32.dll
 0005:0000030c       __imp__setsockopt@20       0055b30c     ws2_32:WS2_32.dll
 0005:00000310       __imp__sendto@24           0055b310     ws2_32:WS2_32.dll
 0005:00000314       __imp__send@16             0055b314     ws2_32:WS2_32.dll
 0005:00000318       __imp__recvfrom@24         0055b318     ws2_32:WS2_32.dll
 0005:0000031c       __imp__recv@16             0055b31c     ws2_32:WS2_32.dll
 0005:00000320       __imp__ntohs@4             0055b320     ws2_32:WS2_32.dll
 0005:00000324       __imp__ntohl@4             0055b324     ws2_32:WS2_32.dll
 0005:00000328       __imp__listen@8            0055b328     ws2_32:WS2_32.dll
 0005:0000032c       __imp__inet_ntoa@4         0055b32c     ws2_32:WS2_32.dll
 0005:00000330       __imp__inet_addr@4         0055b330     ws2_32:WS2_32.dll
 0005:00000334       __imp__htons@4             0055b334     ws2_32:WS2_32.dll
 0005:00000338       __imp__htonl@4             0055b338     ws2_32:WS2_32.dll
 0005:0000033c       __imp__getsockopt@20       0055b33c     ws2_32:WS2_32.dll
 0005:00000340       __imp__getsockname@12      0055b340     ws2_32:WS2_32.dll
 0005:00000344       __imp__getpeername@12      0055b344     ws2_32:WS2_32.dll
 0005:00000348       __imp__connect@12          0055b348     ws2_32:WS2_32.dll
 0005:0000034c       __imp__closesocket@4       0055b34c     ws2_32:WS2_32.dll
 0005:00000350       __imp__bind@12             0055b350     ws2_32:WS2_32.dll
 0005:00000354       __imp__accept@12           0055b354     ws2_32:WS2_32.dll
 0005:00000358       __imp__WSAGetLastError@0   0055b358     ws2_32:WS2_32.dll
 0005:0000035c       __imp__WSACleanup@0        0055b35c     ws2_32:WS2_32.dll
 0005:00000360       __imp__WSAStartup@8        0055b360     ws2_32:WS2_32.dll
 0005:00000364       \177WS2_32_NULL_THUNK_DATA 0055b364     ws2_32:WS2_32.dll
 0005:000003a8       __imp__CoCreateGuid@4      0055b3a8     ole32:ole32.dll
 0005:000003ac       \177ole32_NULL_THUNK_DATA  0055b3ac     ole32:ole32.dll
 0005:000003d8       __IMPORT_DESCRIPTOR_ole32  0055b3d8     ole32:ole32.dll
 0005:000003ec       __IMPORT_DESCRIPTOR_WS2_32 0055b3ec     ws2_32:WS2_32.dll
 0005:00000400       __IMPORT_DESCRIPTOR_KERNEL32 0055b400     kernel32:KERNEL32.dll
 0005:00000414       __IMPORT_DESCRIPTOR_WINMM  0055b414     winmm:WINMM.dll
 0005:00000428       __NULL_IMPORT_DESCRIPTOR   0055b428     ole32:ole32.dll
